
_build/LPCSB_Light_ID_s110.elf:     file format elf32-littlearm

Sections:
Idx Name          Size      VMA       LMA       File off  Algn
  0 .text         00007424  00018000  00018000  00008000  2**3
                  CONTENTS, ALLOC, LOAD, READONLY, CODE
  1 .ARM.exidx    00000008  0001f424  0001f424  0000f424  2**2
                  CONTENTS, ALLOC, LOAD, READONLY, DATA
  2 .data         00000468  20002000  0001f42c  00012000  2**3
                  CONTENTS, ALLOC, LOAD, DATA
  3 .bss          00000551  20002468  0001f894  00012468  2**2
                  ALLOC
  4 .heap         00000100  200029c0  200029c0  00012468  2**3
                  CONTENTS, READONLY
  5 .stack_dummy  00000c00  200029c0  200029c0  00012568  2**3
                  CONTENTS, READONLY
  6 .ARM.attributes 00000028  00000000  00000000  00013168  2**0
                  CONTENTS, READONLY
  7 .comment      0000007f  00000000  00000000  00013190  2**0
                  CONTENTS, READONLY
  8 .debug_frame  000008e4  00000000  00000000  00013210  2**2
                  CONTENTS, READONLY, DEBUGGING

Disassembly of section .text:

00018000 <__Vectors>:
   18000:	4000      	ands	r0, r0
   18002:	2000      	movs	r0, #0
   18004:	8139      	strh	r1, [r7, #8]
   18006:	0001      	movs	r1, r0
   18008:	8179      	strh	r1, [r7, #10]
   1800a:	0001      	movs	r1, r0
   1800c:	817b      	strh	r3, [r7, #10]
   1800e:	0001      	movs	r1, r0
	...
   1802c:	817d      	strh	r5, [r7, #10]
   1802e:	0001      	movs	r1, r0
	...
   18038:	817f      	strh	r7, [r7, #10]
   1803a:	0001      	movs	r1, r0
   1803c:	8181      	strh	r1, [r0, #12]
   1803e:	0001      	movs	r1, r0
   18040:	8185      	strh	r5, [r0, #12]
   18042:	0001      	movs	r1, r0
   18044:	8187      	strh	r7, [r0, #12]
   18046:	0001      	movs	r1, r0
   18048:	8189      	strh	r1, [r1, #12]
   1804a:	0001      	movs	r1, r0
   1804c:	a3dd      	add	r3, pc, #884	; (adr r3, 183c4 <finish_reading_blue+0x104>)
   1804e:	0001      	movs	r1, r0
   18050:	a3ed      	add	r3, pc, #948	; (adr r3, 18408 <finish_reading_blue+0x148>)
   18052:	0001      	movs	r1, r0
   18054:	0000      	movs	r0, r0
   18056:	0000      	movs	r0, r0
   18058:	818f      	strh	r7, [r1, #12]
   1805a:	0001      	movs	r1, r0
   1805c:	8191      	strh	r1, [r2, #12]
   1805e:	0001      	movs	r1, r0
   18060:	8193      	strh	r3, [r2, #12]
   18062:	0001      	movs	r1, r0
   18064:	8195      	strh	r5, [r2, #12]
   18066:	0001      	movs	r1, r0
   18068:	8197      	strh	r7, [r2, #12]
   1806a:	0001      	movs	r1, r0
   1806c:	8199      	strh	r1, [r3, #12]
   1806e:	0001      	movs	r1, r0
   18070:	819b      	strh	r3, [r3, #12]
   18072:	0001      	movs	r1, r0
   18074:	819d      	strh	r5, [r3, #12]
   18076:	0001      	movs	r1, r0
   18078:	819f      	strh	r7, [r3, #12]
   1807a:	0001      	movs	r1, r0
   1807c:	81a1      	strh	r1, [r4, #12]
   1807e:	0001      	movs	r1, r0
   18080:	81a3      	strh	r3, [r4, #12]
   18082:	0001      	movs	r1, r0
   18084:	8da5      	ldrh	r5, [r4, #44]	; 0x2c
   18086:	0001      	movs	r1, r0
   18088:	81a7      	strh	r7, [r4, #12]
   1808a:	0001      	movs	r1, r0
   1808c:	0000      	movs	r0, r0
   1808e:	0000      	movs	r0, r0
   18090:	8e65      	ldrh	r5, [r4, #50]	; 0x32
   18092:	0001      	movs	r1, r0
   18094:	81ab      	strh	r3, [r5, #12]
   18096:	0001      	movs	r1, r0
   18098:	a535      	add	r5, pc, #212	; (adr r5, 18170 <.flash_to_ram_loop_end+0x18>)
   1809a:	0001      	movs	r1, r0
   1809c:	81af      	strh	r7, [r5, #12]
   1809e:	0001      	movs	r1, r0
   180a0:	81b1      	strh	r1, [r6, #12]
   180a2:	0001      	movs	r1, r0
   180a4:	81b3      	strh	r3, [r6, #12]
   180a6:	0001      	movs	r1, r0
	...

000180c0 <_mainCRTStartup>:
   180c0:	4b16      	ldr	r3, [pc, #88]	; (1811c <_mainCRTStartup+0x5c>)
   180c2:	2b00      	cmp	r3, #0
   180c4:	d100      	bne.n	180c8 <_mainCRTStartup+0x8>
   180c6:	4b14      	ldr	r3, [pc, #80]	; (18118 <_mainCRTStartup+0x58>)
   180c8:	469d      	mov	sp, r3
   180ca:	2240      	movs	r2, #64	; 0x40
   180cc:	0292      	lsls	r2, r2, #10
   180ce:	1a9a      	subs	r2, r3, r2
   180d0:	4692      	mov	sl, r2
   180d2:	2100      	movs	r1, #0
   180d4:	468b      	mov	fp, r1
   180d6:	460f      	mov	r7, r1
   180d8:	4813      	ldr	r0, [pc, #76]	; (18128 <_mainCRTStartup+0x68>)
   180da:	4a14      	ldr	r2, [pc, #80]	; (1812c <_mainCRTStartup+0x6c>)
   180dc:	1a12      	subs	r2, r2, r0
   180de:	f004 facd 	bl	1c67c <memset>
   180e2:	4b0f      	ldr	r3, [pc, #60]	; (18120 <_mainCRTStartup+0x60>)
   180e4:	2b00      	cmp	r3, #0
   180e6:	d000      	beq.n	180ea <_mainCRTStartup+0x2a>
   180e8:	4798      	blx	r3
   180ea:	4b0e      	ldr	r3, [pc, #56]	; (18124 <_mainCRTStartup+0x64>)
   180ec:	2b00      	cmp	r3, #0
   180ee:	d000      	beq.n	180f2 <_mainCRTStartup+0x32>
   180f0:	4798      	blx	r3
   180f2:	2000      	movs	r0, #0
   180f4:	2100      	movs	r1, #0
   180f6:	0004      	movs	r4, r0
   180f8:	000d      	movs	r5, r1
   180fa:	480d      	ldr	r0, [pc, #52]	; (18130 <_mainCRTStartup+0x70>)
   180fc:	2800      	cmp	r0, #0
   180fe:	d002      	beq.n	18106 <_mainCRTStartup+0x46>
   18100:	480c      	ldr	r0, [pc, #48]	; (18134 <_mainCRTStartup+0x74>)
   18102:	f004 fbc7 	bl	1c894 <atexit>
   18106:	f004 fa51 	bl	1c5ac <__libc_init_array>
   1810a:	0020      	movs	r0, r4
   1810c:	0029      	movs	r1, r5
   1810e:	f000 fab5 	bl	1867c <main>
   18112:	f004 fa3b 	bl	1c58c <exit>
   18116:	46c0      	nop			; (mov r8, r8)
   18118:	0000      	movs	r0, r0
   1811a:	0008      	movs	r0, r1
   1811c:	4000      	ands	r0, r0
   1811e:	2000      	movs	r0, #0
	...
   18128:	2468      	movs	r4, #104	; 0x68
   1812a:	2000      	movs	r0, #0
   1812c:	29b9      	cmp	r1, #185	; 0xb9
   1812e:	2000      	movs	r0, #0
   18130:	c895      	ldmia	r0, {r0, r2, r4, r7}
   18132:	0001      	movs	r1, r0
   18134:	c8a5      	ldmia	r0, {r0, r2, r5, r7}
   18136:	0001      	movs	r1, r0

00018138 <Reset_Handler>:
   18138:	4809      	ldr	r0, [pc, #36]	; (18160 <.flash_to_ram_loop_end+0x8>)
   1813a:	6802      	ldr	r2, [r0, #0]
   1813c:	2103      	movs	r1, #3
   1813e:	430a      	orrs	r2, r1
   18140:	6002      	str	r2, [r0, #0]
   18142:	4908      	ldr	r1, [pc, #32]	; (18164 <.flash_to_ram_loop_end+0xc>)
   18144:	4a08      	ldr	r2, [pc, #32]	; (18168 <.flash_to_ram_loop_end+0x10>)
   18146:	4b09      	ldr	r3, [pc, #36]	; (1816c <.flash_to_ram_loop_end+0x14>)
   18148:	1a9b      	subs	r3, r3, r2
   1814a:	dd05      	ble.n	18158 <.flash_to_ram_loop_end>
   1814c:	2400      	movs	r4, #0

0001814e <.flash_to_ram_loop>:
   1814e:	5908      	ldr	r0, [r1, r4]
   18150:	5110      	str	r0, [r2, r4]
   18152:	3404      	adds	r4, #4
   18154:	429c      	cmp	r4, r3
   18156:	dbfa      	blt.n	1814e <.flash_to_ram_loop>

00018158 <.flash_to_ram_loop_end>:
   18158:	4805      	ldr	r0, [pc, #20]	; (18170 <.flash_to_ram_loop_end+0x18>)
   1815a:	4780      	blx	r0
   1815c:	4805      	ldr	r0, [pc, #20]	; (18174 <.flash_to_ram_loop_end+0x1c>)
   1815e:	4700      	bx	r0
   18160:	0524      	lsls	r4, r4, #20
   18162:	4000      	ands	r0, r0
   18164:	f42c 0001 	bic.w	r0, ip, #8454144	; 0x810000
   18168:	2000      	movs	r0, #0
   1816a:	2000      	movs	r0, #0
   1816c:	2468      	movs	r4, #104	; 0x68
   1816e:	2000      	movs	r0, #0
   18170:	81b5      	strh	r5, [r6, #12]
   18172:	0001      	movs	r1, r0
   18174:	80c1      	strh	r1, [r0, #6]
   18176:	0001      	movs	r1, r0

00018178 <NMI_Handler>:
   18178:	e7fe      	b.n	18178 <NMI_Handler>

0001817a <HardFault_Handler>:
   1817a:	e7fe      	b.n	1817a <HardFault_Handler>

0001817c <SVC_Handler>:
   1817c:	e7fe      	b.n	1817c <SVC_Handler>

0001817e <PendSV_Handler>:
   1817e:	e7fe      	b.n	1817e <PendSV_Handler>

00018180 <SysTick_Handler>:
   18180:	e7fe      	b.n	18180 <SysTick_Handler>

00018182 <DEF_IRQHandler>:
   18182:	e7fe      	b.n	18182 <DEF_IRQHandler>

00018184 <POWER_CLOCK_IRQHandler>:
   18184:	e7fe      	b.n	18184 <POWER_CLOCK_IRQHandler>

00018186 <RADIO_IRQHandler>:
   18186:	e7fe      	b.n	18186 <RADIO_IRQHandler>

00018188 <UART0_IRQHandler>:
   18188:	e7fe      	b.n	18188 <UART0_IRQHandler>
   1818a:	e7fe      	b.n	1818a <UART0_IRQHandler+0x2>
   1818c:	e7fe      	b.n	1818c <UART0_IRQHandler+0x4>

0001818e <GPIOTE_IRQHandler>:
   1818e:	e7fe      	b.n	1818e <GPIOTE_IRQHandler>

00018190 <ADC_IRQHandler>:
   18190:	e7fe      	b.n	18190 <ADC_IRQHandler>

00018192 <TIMER0_IRQHandler>:
   18192:	e7fe      	b.n	18192 <TIMER0_IRQHandler>

00018194 <TIMER1_IRQHandler>:
   18194:	e7fe      	b.n	18194 <TIMER1_IRQHandler>

00018196 <TIMER2_IRQHandler>:
   18196:	e7fe      	b.n	18196 <TIMER2_IRQHandler>

00018198 <RTC0_IRQHandler>:
   18198:	e7fe      	b.n	18198 <RTC0_IRQHandler>

0001819a <TEMP_IRQHandler>:
   1819a:	e7fe      	b.n	1819a <TEMP_IRQHandler>

0001819c <RNG_IRQHandler>:
   1819c:	e7fe      	b.n	1819c <RNG_IRQHandler>

0001819e <ECB_IRQHandler>:
   1819e:	e7fe      	b.n	1819e <ECB_IRQHandler>

000181a0 <CCM_AAR_IRQHandler>:
   181a0:	e7fe      	b.n	181a0 <CCM_AAR_IRQHandler>

000181a2 <WDT_IRQHandler>:
   181a2:	e7fe      	b.n	181a2 <WDT_IRQHandler>
   181a4:	e7fe      	b.n	181a4 <WDT_IRQHandler+0x2>

000181a6 <QDEC_IRQHandler>:
   181a6:	e7fe      	b.n	181a6 <QDEC_IRQHandler>
   181a8:	e7fe      	b.n	181a8 <QDEC_IRQHandler+0x2>

000181aa <SWI1_IRQHandler>:
   181aa:	e7fe      	b.n	181aa <SWI1_IRQHandler>
   181ac:	e7fe      	b.n	181ac <SWI1_IRQHandler+0x2>

000181ae <SWI3_IRQHandler>:
   181ae:	e7fe      	b.n	181ae <SWI3_IRQHandler>

000181b0 <SWI4_IRQHandler>:
   181b0:	e7fe      	b.n	181b0 <SWI4_IRQHandler>

000181b2 <SWI5_IRQHandler>:
   181b2:	e7fe      	b.n	181b2 <SWI5_IRQHandler>

000181b4 <SystemInit>:
   181b4:	491c      	ldr	r1, [pc, #112]	; (18228 <SystemInit+0x74>)
   181b6:	b510      	push	{r4, lr}
   181b8:	680b      	ldr	r3, [r1, #0]
   181ba:	b2db      	uxtb	r3, r3
   181bc:	2b01      	cmp	r3, #1
   181be:	d10f      	bne.n	181e0 <SystemInit+0x2c>
   181c0:	4b1a      	ldr	r3, [pc, #104]	; (1822c <SystemInit+0x78>)
   181c2:	681b      	ldr	r3, [r3, #0]
   181c4:	071b      	lsls	r3, r3, #28
   181c6:	d10b      	bne.n	181e0 <SystemInit+0x2c>
   181c8:	4b19      	ldr	r3, [pc, #100]	; (18230 <SystemInit+0x7c>)
   181ca:	24e0      	movs	r4, #224	; 0xe0
   181cc:	681a      	ldr	r2, [r3, #0]
   181ce:	23f0      	movs	r3, #240	; 0xf0
   181d0:	0010      	movs	r0, r2
   181d2:	4018      	ands	r0, r3
   181d4:	4222      	tst	r2, r4
   181d6:	d11b      	bne.n	18210 <SystemInit+0x5c>
   181d8:	4a16      	ldr	r2, [pc, #88]	; (18234 <SystemInit+0x80>)
   181da:	6812      	ldr	r2, [r2, #0]
   181dc:	421a      	tst	r2, r3
   181de:	d01a      	beq.n	18216 <SystemInit+0x62>
   181e0:	680b      	ldr	r3, [r1, #0]
   181e2:	b2db      	uxtb	r3, r3
   181e4:	2b01      	cmp	r3, #1
   181e6:	d112      	bne.n	1820e <SystemInit+0x5a>
   181e8:	4a10      	ldr	r2, [pc, #64]	; (1822c <SystemInit+0x78>)
   181ea:	6812      	ldr	r2, [r2, #0]
   181ec:	0712      	lsls	r2, r2, #28
   181ee:	d10e      	bne.n	1820e <SystemInit+0x5a>
   181f0:	21f0      	movs	r1, #240	; 0xf0
   181f2:	4a0f      	ldr	r2, [pc, #60]	; (18230 <SystemInit+0x7c>)
   181f4:	6812      	ldr	r2, [r2, #0]
   181f6:	400a      	ands	r2, r1
   181f8:	2a40      	cmp	r2, #64	; 0x40
   181fa:	d108      	bne.n	1820e <SystemInit+0x5a>
   181fc:	4a0d      	ldr	r2, [pc, #52]	; (18234 <SystemInit+0x80>)
   181fe:	6812      	ldr	r2, [r2, #0]
   18200:	420a      	tst	r2, r1
   18202:	d104      	bne.n	1820e <SystemInit+0x5a>
   18204:	2180      	movs	r1, #128	; 0x80
   18206:	22c1      	movs	r2, #193	; 0xc1
   18208:	05c9      	lsls	r1, r1, #23
   1820a:	00d2      	lsls	r2, r2, #3
   1820c:	508b      	str	r3, [r1, r2]
   1820e:	bd10      	pop	{r4, pc}
   18210:	2830      	cmp	r0, #48	; 0x30
   18212:	d0e1      	beq.n	181d8 <SystemInit+0x24>
   18214:	e7e4      	b.n	181e0 <SystemInit+0x2c>
   18216:	4b08      	ldr	r3, [pc, #32]	; (18238 <SystemInit+0x84>)
   18218:	4a08      	ldr	r2, [pc, #32]	; (1823c <SystemInit+0x88>)
   1821a:	601a      	str	r2, [r3, #0]
   1821c:	2280      	movs	r2, #128	; 0x80
   1821e:	4b08      	ldr	r3, [pc, #32]	; (18240 <SystemInit+0x8c>)
   18220:	0212      	lsls	r2, r2, #8
   18222:	601a      	str	r2, [r3, #0]
   18224:	e7dc      	b.n	181e0 <SystemInit+0x2c>
   18226:	46c0      	nop			; (mov r8, r8)
   18228:	0fe0      	lsrs	r0, r4, #31
   1822a:	f000 0fe4 	and.w	pc, r0, #228	; 0xe4
   1822e:	f000 0fe8 	and.w	pc, r0, #232	; 0xe8
   18232:	f000 0fec 	and.w	pc, r0, #236	; 0xec
   18236:	f000 0504 	and.w	r5, r0, #4
   1823a:	4000      	ands	r0, r0
   1823c:	ffdf c007 	vaddl.u16	q14, d15, d7
   18240:	6c18      	ldr	r0, [r3, #64]	; 0x40
   18242:	4000      	ands	r0, r0

00018244 <start_color_measuring>:
   18244:	b510      	push	{r4, lr}
   18246:	4802      	ldr	r0, [pc, #8]	; (18250 <start_color_measuring+0xc>)
   18248:	f000 fbb6 	bl	189b8 <tcs34725_read_clear>
   1824c:	bd10      	pop	{r4, pc}
   1824e:	46c0      	nop			; (mov r8, r8)
   18250:	826d      	strh	r5, [r5, #18]
   18252:	0001      	movs	r1, r0

00018254 <finish_adc_enable>:
   18254:	20af      	movs	r0, #175	; 0xaf
   18256:	b510      	push	{r4, lr}
   18258:	0080      	lsls	r0, r0, #2
   1825a:	f001 fcf1 	bl	19c40 <nrf_delay_ms>
   1825e:	4802      	ldr	r0, [pc, #8]	; (18268 <finish_adc_enable+0x14>)
   18260:	f000 fbaa 	bl	189b8 <tcs34725_read_clear>
   18264:	bd10      	pop	{r4, pc}
   18266:	46c0      	nop			; (mov r8, r8)
   18268:	826d      	strh	r5, [r5, #18]
   1826a:	0001      	movs	r1, r0

0001826c <finish_reading_clear>:
   1826c:	b510      	push	{r4, lr}
   1826e:	4b04      	ldr	r3, [pc, #16]	; (18280 <finish_reading_clear+0x14>)
   18270:	1202      	asrs	r2, r0, #8
   18272:	7098      	strb	r0, [r3, #2]
   18274:	4803      	ldr	r0, [pc, #12]	; (18284 <finish_reading_clear+0x18>)
   18276:	705a      	strb	r2, [r3, #1]
   18278:	f000 fbb8 	bl	189ec <tcs34725_read_red>
   1827c:	bd10      	pop	{r4, pc}
   1827e:	46c0      	nop			; (mov r8, r8)
   18280:	2468      	movs	r4, #104	; 0x68
   18282:	2000      	movs	r0, #0
   18284:	8289      	strh	r1, [r1, #20]
   18286:	0001      	movs	r1, r0

00018288 <finish_reading_red>:
   18288:	b510      	push	{r4, lr}
   1828a:	4b04      	ldr	r3, [pc, #16]	; (1829c <finish_reading_red+0x14>)
   1828c:	1202      	asrs	r2, r0, #8
   1828e:	7118      	strb	r0, [r3, #4]
   18290:	4803      	ldr	r0, [pc, #12]	; (182a0 <finish_reading_red+0x18>)
   18292:	70da      	strb	r2, [r3, #3]
   18294:	f000 fbc4 	bl	18a20 <tcs34725_read_green>
   18298:	bd10      	pop	{r4, pc}
   1829a:	46c0      	nop			; (mov r8, r8)
   1829c:	2468      	movs	r4, #104	; 0x68
   1829e:	2000      	movs	r0, #0
   182a0:	82a5      	strh	r5, [r4, #20]
   182a2:	0001      	movs	r1, r0

000182a4 <finish_reading_green>:
   182a4:	b510      	push	{r4, lr}
   182a6:	4b04      	ldr	r3, [pc, #16]	; (182b8 <finish_reading_green+0x14>)
   182a8:	1202      	asrs	r2, r0, #8
   182aa:	7198      	strb	r0, [r3, #6]
   182ac:	4803      	ldr	r0, [pc, #12]	; (182bc <finish_reading_green+0x18>)
   182ae:	715a      	strb	r2, [r3, #5]
   182b0:	f000 fbd0 	bl	18a54 <tcs34725_read_blue>
   182b4:	bd10      	pop	{r4, pc}
   182b6:	46c0      	nop			; (mov r8, r8)
   182b8:	2468      	movs	r4, #104	; 0x68
   182ba:	2000      	movs	r0, #0
   182bc:	82c1      	strh	r1, [r0, #22]
   182be:	0001      	movs	r1, r0

000182c0 <finish_reading_blue>:
   182c0:	b5f0      	push	{r4, r5, r6, r7, lr}
   182c2:	4cbf      	ldr	r4, [pc, #764]	; (185c0 <finish_reading_blue+0x300>)
   182c4:	b089      	sub	sp, #36	; 0x24
   182c6:	1203      	asrs	r3, r0, #8
   182c8:	71e3      	strb	r3, [r4, #7]
   182ca:	7220      	strb	r0, [r4, #8]
   182cc:	f000 fbdc 	bl	18a88 <tcs34725_calculate_color_temperature>
   182d0:	0a00      	lsrs	r0, r0, #8
   182d2:	7260      	strb	r0, [r4, #9]
   182d4:	f000 fbd8 	bl	18a88 <tcs34725_calculate_color_temperature>
   182d8:	72a0      	strb	r0, [r4, #10]
   182da:	f000 fca9 	bl	18c30 <tcs34725_calculate_lux>
   182de:	0a00      	lsrs	r0, r0, #8
   182e0:	72e0      	strb	r0, [r4, #11]
   182e2:	f000 fca5 	bl	18c30 <tcs34725_calculate_lux>
   182e6:	7923      	ldrb	r3, [r4, #4]
   182e8:	78e2      	ldrb	r2, [r4, #3]
   182ea:	021b      	lsls	r3, r3, #8
   182ec:	4313      	orrs	r3, r2
   182ee:	ba5b      	rev16	r3, r3
   182f0:	b29a      	uxth	r2, r3
   182f2:	9200      	str	r2, [sp, #0]
   182f4:	4ab3      	ldr	r2, [pc, #716]	; (185c4 <finish_reading_blue+0x304>)
   182f6:	7320      	strb	r0, [r4, #12]
   182f8:	8013      	strh	r3, [r2, #0]
   182fa:	79a3      	ldrb	r3, [r4, #6]
   182fc:	7962      	ldrb	r2, [r4, #5]
   182fe:	021b      	lsls	r3, r3, #8
   18300:	4313      	orrs	r3, r2
   18302:	ba5b      	rev16	r3, r3
   18304:	b29a      	uxth	r2, r3
   18306:	9201      	str	r2, [sp, #4]
   18308:	4aaf      	ldr	r2, [pc, #700]	; (185c8 <finish_reading_blue+0x308>)
   1830a:	b2c0      	uxtb	r0, r0
   1830c:	8013      	strh	r3, [r2, #0]
   1830e:	7a23      	ldrb	r3, [r4, #8]
   18310:	79e2      	ldrb	r2, [r4, #7]
   18312:	021b      	lsls	r3, r3, #8
   18314:	4313      	orrs	r3, r2
   18316:	4aad      	ldr	r2, [pc, #692]	; (185cc <finish_reading_blue+0x30c>)
   18318:	ba5b      	rev16	r3, r3
   1831a:	8013      	strh	r3, [r2, #0]
   1831c:	b29d      	uxth	r5, r3
   1831e:	7aa3      	ldrb	r3, [r4, #10]
   18320:	7a62      	ldrb	r2, [r4, #9]
   18322:	021b      	lsls	r3, r3, #8
   18324:	4313      	orrs	r3, r2
   18326:	4aaa      	ldr	r2, [pc, #680]	; (185d0 <finish_reading_blue+0x310>)
   18328:	ba5b      	rev16	r3, r3
   1832a:	8013      	strh	r3, [r2, #0]
   1832c:	7ae3      	ldrb	r3, [r4, #11]
   1832e:	4fa9      	ldr	r7, [pc, #676]	; (185d4 <finish_reading_blue+0x314>)
   18330:	021b      	lsls	r3, r3, #8
   18332:	4318      	orrs	r0, r3
   18334:	4ba8      	ldr	r3, [pc, #672]	; (185d8 <finish_reading_blue+0x318>)
   18336:	4ea9      	ldr	r6, [pc, #676]	; (185dc <finish_reading_blue+0x31c>)
   18338:	8018      	strh	r0, [r3, #0]
   1833a:	2300      	movs	r3, #0
   1833c:	9a01      	ldr	r2, [sp, #4]
   1833e:	603b      	str	r3, [r7, #0]
   18340:	6033      	str	r3, [r6, #0]
   18342:	9b00      	ldr	r3, [sp, #0]
   18344:	4293      	cmp	r3, r2
   18346:	d200      	bcs.n	1834a <finish_reading_blue+0x8a>
   18348:	e126      	b.n	18598 <finish_reading_blue+0x2d8>
   1834a:	42ab      	cmp	r3, r5
   1834c:	d200      	bcs.n	18350 <finish_reading_blue+0x90>
   1834e:	e0ae      	b.n	184ae <finish_reading_blue+0x1ee>
   18350:	0028      	movs	r0, r5
   18352:	f003 fc6d 	bl	1bc30 <__aeabi_ui2f>
   18356:	9002      	str	r0, [sp, #8]
   18358:	9801      	ldr	r0, [sp, #4]
   1835a:	f003 fc69 	bl	1bc30 <__aeabi_ui2f>
   1835e:	9003      	str	r0, [sp, #12]
   18360:	9800      	ldr	r0, [sp, #0]
   18362:	f003 fc65 	bl	1bc30 <__aeabi_ui2f>
   18366:	9b01      	ldr	r3, [sp, #4]
   18368:	42ab      	cmp	r3, r5
   1836a:	d200      	bcs.n	1836e <finish_reading_blue+0xae>
   1836c:	e098      	b.n	184a0 <finish_reading_blue+0x1e0>
   1836e:	9903      	ldr	r1, [sp, #12]
   18370:	f002 ff26 	bl	1b1c0 <__aeabi_fdiv>
   18374:	9902      	ldr	r1, [sp, #8]
   18376:	6038      	str	r0, [r7, #0]
   18378:	9803      	ldr	r0, [sp, #12]
   1837a:	f002 ff21 	bl	1b1c0 <__aeabi_fdiv>
   1837e:	6030      	str	r0, [r6, #0]
   18380:	4b94      	ldr	r3, [pc, #592]	; (185d4 <finish_reading_blue+0x314>)
   18382:	4f96      	ldr	r7, [pc, #600]	; (185dc <finish_reading_blue+0x31c>)
   18384:	681b      	ldr	r3, [r3, #0]
   18386:	683d      	ldr	r5, [r7, #0]
   18388:	1c18      	adds	r0, r3, #0
   1838a:	1c29      	adds	r1, r5, #0
   1838c:	9302      	str	r3, [sp, #8]
   1838e:	f002 fd5b 	bl	1ae48 <__aeabi_fcmpge>
   18392:	4e93      	ldr	r6, [pc, #588]	; (185e0 <finish_reading_blue+0x320>)
   18394:	2800      	cmp	r0, #0
   18396:	d100      	bne.n	1839a <finish_reading_blue+0xda>
   18398:	e0c5      	b.n	18526 <finish_reading_blue+0x266>
   1839a:	9802      	ldr	r0, [sp, #8]
   1839c:	1c29      	adds	r1, r5, #0
   1839e:	f002 ff0f 	bl	1b1c0 <__aeabi_fdiv>
   183a2:	6030      	str	r0, [r6, #0]
   183a4:	7ba2      	ldrb	r2, [r4, #14]
   183a6:	2aff      	cmp	r2, #255	; 0xff
   183a8:	d004      	beq.n	183b4 <finish_reading_blue+0xf4>
   183aa:	498e      	ldr	r1, [pc, #568]	; (185e4 <finish_reading_blue+0x324>)
   183ac:	78cb      	ldrb	r3, [r1, #3]
   183ae:	2bff      	cmp	r3, #255	; 0xff
   183b0:	d000      	beq.n	183b4 <finish_reading_blue+0xf4>
   183b2:	e0bb      	b.n	1852c <finish_reading_blue+0x26c>
   183b4:	2200      	movs	r2, #0
   183b6:	7b63      	ldrb	r3, [r4, #13]
   183b8:	73a2      	strb	r2, [r4, #14]
   183ba:	3301      	adds	r3, #1
   183bc:	7363      	strb	r3, [r4, #13]
   183be:	4b89      	ldr	r3, [pc, #548]	; (185e4 <finish_reading_blue+0x324>)
   183c0:	70da      	strb	r2, [r3, #3]
   183c2:	789a      	ldrb	r2, [r3, #2]
   183c4:	3201      	adds	r2, #1
   183c6:	709a      	strb	r2, [r3, #2]
   183c8:	9b00      	ldr	r3, [sp, #0]
   183ca:	9a01      	ldr	r2, [sp, #4]
   183cc:	4d85      	ldr	r5, [pc, #532]	; (185e4 <finish_reading_blue+0x324>)
   183ce:	4293      	cmp	r3, r2
   183d0:	d318      	bcc.n	18404 <finish_reading_blue+0x144>
   183d2:	4b7e      	ldr	r3, [pc, #504]	; (185cc <finish_reading_blue+0x30c>)
   183d4:	9a00      	ldr	r2, [sp, #0]
   183d6:	881b      	ldrh	r3, [r3, #0]
   183d8:	4293      	cmp	r3, r2
   183da:	d813      	bhi.n	18404 <finish_reading_blue+0x144>
   183dc:	4b7d      	ldr	r3, [pc, #500]	; (185d4 <finish_reading_blue+0x314>)
   183de:	6818      	ldr	r0, [r3, #0]
   183e0:	f003 ffe0 	bl	1c3a4 <__aeabi_f2d>
   183e4:	4a80      	ldr	r2, [pc, #512]	; (185e8 <finish_reading_blue+0x328>)
   183e6:	4b81      	ldr	r3, [pc, #516]	; (185ec <finish_reading_blue+0x32c>)
   183e8:	f002 fcf4 	bl	1add4 <__aeabi_dcmpge>
   183ec:	2800      	cmp	r0, #0
   183ee:	d009      	beq.n	18404 <finish_reading_blue+0x144>
   183f0:	6838      	ldr	r0, [r7, #0]
   183f2:	f003 ffd7 	bl	1c3a4 <__aeabi_f2d>
   183f6:	4b7d      	ldr	r3, [pc, #500]	; (185ec <finish_reading_blue+0x32c>)
   183f8:	4a7b      	ldr	r2, [pc, #492]	; (185e8 <finish_reading_blue+0x328>)
   183fa:	f002 fcd7 	bl	1adac <__aeabi_dcmple>
   183fe:	2300      	movs	r3, #0
   18400:	2800      	cmp	r0, #0
   18402:	d113      	bne.n	1842c <finish_reading_blue+0x16c>
   18404:	6830      	ldr	r0, [r6, #0]
   18406:	f003 ffcd 	bl	1c3a4 <__aeabi_f2d>
   1840a:	4a79      	ldr	r2, [pc, #484]	; (185f0 <finish_reading_blue+0x330>)
   1840c:	4b79      	ldr	r3, [pc, #484]	; (185f4 <finish_reading_blue+0x334>)
   1840e:	0006      	movs	r6, r0
   18410:	000f      	movs	r7, r1
   18412:	f002 fccb 	bl	1adac <__aeabi_dcmple>
   18416:	2800      	cmp	r0, #0
   18418:	d100      	bne.n	1841c <finish_reading_blue+0x15c>
   1841a:	e08c      	b.n	18536 <finish_reading_blue+0x276>
   1841c:	23fa      	movs	r3, #250	; 0xfa
   1841e:	4a6e      	ldr	r2, [pc, #440]	; (185d8 <finish_reading_blue+0x318>)
   18420:	00db      	lsls	r3, r3, #3
   18422:	8812      	ldrh	r2, [r2, #0]
   18424:	429a      	cmp	r2, r3
   18426:	d900      	bls.n	1842a <finish_reading_blue+0x16a>
   18428:	e085      	b.n	18536 <finish_reading_blue+0x276>
   1842a:	2311      	movs	r3, #17
   1842c:	706b      	strb	r3, [r5, #1]
   1842e:	786b      	ldrb	r3, [r5, #1]
   18430:	ae05      	add	r6, sp, #20
   18432:	2b44      	cmp	r3, #68	; 0x44
   18434:	d000      	beq.n	18438 <finish_reading_blue+0x178>
   18436:	e08f      	b.n	18558 <finish_reading_blue+0x298>
   18438:	4d6f      	ldr	r5, [pc, #444]	; (185f8 <finish_reading_blue+0x338>)
   1843a:	3b13      	subs	r3, #19
   1843c:	1c68      	adds	r0, r5, #1
   1843e:	0021      	movs	r1, r4
   18440:	220f      	movs	r2, #15
   18442:	702b      	strb	r3, [r5, #0]
   18444:	f004 f8d6 	bl	1c5f4 <memcpy>
   18448:	23b8      	movs	r3, #184	; 0xb8
   1844a:	2411      	movs	r4, #17
   1844c:	60b5      	str	r5, [r6, #8]
   1844e:	2732      	movs	r7, #50	; 0x32
   18450:	250a      	movs	r5, #10
   18452:	009b      	lsls	r3, r3, #2
   18454:	8033      	strh	r3, [r6, #0]
   18456:	80b4      	strh	r4, [r6, #4]
   18458:	0020      	movs	r0, r4
   1845a:	f001 fbdb 	bl	19c14 <led_toggle>
   1845e:	0038      	movs	r0, r7
   18460:	f001 fbee 	bl	19c40 <nrf_delay_ms>
   18464:	0020      	movs	r0, r4
   18466:	f001 fbd5 	bl	19c14 <led_toggle>
   1846a:	3d01      	subs	r5, #1
   1846c:	0038      	movs	r0, r7
   1846e:	f001 fbe7 	bl	19c40 <nrf_delay_ms>
   18472:	2d00      	cmp	r5, #0
   18474:	d1f0      	bne.n	18458 <finish_reading_blue+0x198>
   18476:	0030      	movs	r0, r6
   18478:	f002 fc5c 	bl	1ad34 <simple_adv_manuf_data>
   1847c:	2011      	movs	r0, #17
   1847e:	f001 fbb7 	bl	19bf0 <led_on>
   18482:	20fa      	movs	r0, #250	; 0xfa
   18484:	0080      	lsls	r0, r0, #2
   18486:	f001 fbdb 	bl	19c40 <nrf_delay_ms>
   1848a:	2011      	movs	r0, #17
   1848c:	f001 fbba 	bl	19c04 <led_off>
   18490:	21a0      	movs	r1, #160	; 0xa0
   18492:	2200      	movs	r2, #0
   18494:	0289      	lsls	r1, r1, #10
   18496:	4859      	ldr	r0, [pc, #356]	; (185fc <finish_reading_blue+0x33c>)
   18498:	f000 ff3a 	bl	19310 <app_timer_start>
   1849c:	b009      	add	sp, #36	; 0x24
   1849e:	bdf0      	pop	{r4, r5, r6, r7, pc}
   184a0:	9902      	ldr	r1, [sp, #8]
   184a2:	f002 fe8d 	bl	1b1c0 <__aeabi_fdiv>
   184a6:	9903      	ldr	r1, [sp, #12]
   184a8:	6038      	str	r0, [r7, #0]
   184aa:	9802      	ldr	r0, [sp, #8]
   184ac:	e765      	b.n	1837a <finish_reading_blue+0xba>
   184ae:	9b01      	ldr	r3, [sp, #4]
   184b0:	42ab      	cmp	r3, r5
   184b2:	d32b      	bcc.n	1850c <finish_reading_blue+0x24c>
   184b4:	9b00      	ldr	r3, [sp, #0]
   184b6:	9a01      	ldr	r2, [sp, #4]
   184b8:	4293      	cmp	r3, r2
   184ba:	d823      	bhi.n	18504 <finish_reading_blue+0x244>
   184bc:	0028      	movs	r0, r5
   184be:	f003 fbb7 	bl	1bc30 <__aeabi_ui2f>
   184c2:	1c05      	adds	r5, r0, #0
   184c4:	9801      	ldr	r0, [sp, #4]
   184c6:	f003 fbb3 	bl	1bc30 <__aeabi_ui2f>
   184ca:	1c29      	adds	r1, r5, #0
   184cc:	f002 fe78 	bl	1b1c0 <__aeabi_fdiv>
   184d0:	6038      	str	r0, [r7, #0]
   184d2:	9800      	ldr	r0, [sp, #0]
   184d4:	f003 fbac 	bl	1bc30 <__aeabi_ui2f>
   184d8:	1c01      	adds	r1, r0, #0
   184da:	1c28      	adds	r0, r5, #0
   184dc:	e74d      	b.n	1837a <finish_reading_blue+0xba>
   184de:	9b00      	ldr	r3, [sp, #0]
   184e0:	42ab      	cmp	r3, r5
   184e2:	d9eb      	bls.n	184bc <finish_reading_blue+0x1fc>
   184e4:	9800      	ldr	r0, [sp, #0]
   184e6:	f003 fba3 	bl	1bc30 <__aeabi_ui2f>
   184ea:	9002      	str	r0, [sp, #8]
   184ec:	9801      	ldr	r0, [sp, #4]
   184ee:	f003 fb9f 	bl	1bc30 <__aeabi_ui2f>
   184f2:	9902      	ldr	r1, [sp, #8]
   184f4:	f002 fe64 	bl	1b1c0 <__aeabi_fdiv>
   184f8:	6038      	str	r0, [r7, #0]
   184fa:	0028      	movs	r0, r5
   184fc:	f003 fb98 	bl	1bc30 <__aeabi_ui2f>
   18500:	1c01      	adds	r1, r0, #0
   18502:	e7d2      	b.n	184aa <finish_reading_blue+0x1ea>
   18504:	9b01      	ldr	r3, [sp, #4]
   18506:	42ab      	cmp	r3, r5
   18508:	d900      	bls.n	1850c <finish_reading_blue+0x24c>
   1850a:	e739      	b.n	18380 <finish_reading_blue+0xc0>
   1850c:	9800      	ldr	r0, [sp, #0]
   1850e:	f003 fb8f 	bl	1bc30 <__aeabi_ui2f>
   18512:	9002      	str	r0, [sp, #8]
   18514:	0028      	movs	r0, r5
   18516:	f003 fb8b 	bl	1bc30 <__aeabi_ui2f>
   1851a:	9902      	ldr	r1, [sp, #8]
   1851c:	f002 fe50 	bl	1b1c0 <__aeabi_fdiv>
   18520:	6038      	str	r0, [r7, #0]
   18522:	9801      	ldr	r0, [sp, #4]
   18524:	e7ea      	b.n	184fc <finish_reading_blue+0x23c>
   18526:	9902      	ldr	r1, [sp, #8]
   18528:	1c28      	adds	r0, r5, #0
   1852a:	e738      	b.n	1839e <finish_reading_blue+0xde>
   1852c:	3201      	adds	r2, #1
   1852e:	3301      	adds	r3, #1
   18530:	73a2      	strb	r2, [r4, #14]
   18532:	70cb      	strb	r3, [r1, #3]
   18534:	e748      	b.n	183c8 <finish_reading_blue+0x108>
   18536:	4a2e      	ldr	r2, [pc, #184]	; (185f0 <finish_reading_blue+0x330>)
   18538:	4b31      	ldr	r3, [pc, #196]	; (18600 <finish_reading_blue+0x340>)
   1853a:	0030      	movs	r0, r6
   1853c:	0039      	movs	r1, r7
   1853e:	f002 fc35 	bl	1adac <__aeabi_dcmple>
   18542:	2800      	cmp	r0, #0
   18544:	d006      	beq.n	18554 <finish_reading_blue+0x294>
   18546:	4a24      	ldr	r2, [pc, #144]	; (185d8 <finish_reading_blue+0x318>)
   18548:	4b2e      	ldr	r3, [pc, #184]	; (18604 <finish_reading_blue+0x344>)
   1854a:	8812      	ldrh	r2, [r2, #0]
   1854c:	429a      	cmp	r2, r3
   1854e:	d901      	bls.n	18554 <finish_reading_blue+0x294>
   18550:	2322      	movs	r3, #34	; 0x22
   18552:	e76b      	b.n	1842c <finish_reading_blue+0x16c>
   18554:	2344      	movs	r3, #68	; 0x44
   18556:	e769      	b.n	1842c <finish_reading_blue+0x16c>
   18558:	2332      	movs	r3, #50	; 0x32
   1855a:	4c2b      	ldr	r4, [pc, #172]	; (18608 <finish_reading_blue+0x348>)
   1855c:	0029      	movs	r1, r5
   1855e:	2205      	movs	r2, #5
   18560:	482a      	ldr	r0, [pc, #168]	; (1860c <finish_reading_blue+0x34c>)
   18562:	7023      	strb	r3, [r4, #0]
   18564:	f004 f846 	bl	1c5f4 <memcpy>
   18568:	23b8      	movs	r3, #184	; 0xb8
   1856a:	009b      	lsls	r3, r3, #2
   1856c:	8033      	strh	r3, [r6, #0]
   1856e:	2306      	movs	r3, #6
   18570:	60b4      	str	r4, [r6, #8]
   18572:	2511      	movs	r5, #17
   18574:	240a      	movs	r4, #10
   18576:	80b3      	strh	r3, [r6, #4]
   18578:	0028      	movs	r0, r5
   1857a:	f001 fb4b 	bl	19c14 <led_toggle>
   1857e:	2032      	movs	r0, #50	; 0x32
   18580:	f001 fb5e 	bl	19c40 <nrf_delay_ms>
   18584:	0028      	movs	r0, r5
   18586:	f001 fb45 	bl	19c14 <led_toggle>
   1858a:	3c01      	subs	r4, #1
   1858c:	20fa      	movs	r0, #250	; 0xfa
   1858e:	f001 fb57 	bl	19c40 <nrf_delay_ms>
   18592:	2c00      	cmp	r4, #0
   18594:	d1f0      	bne.n	18578 <finish_reading_blue+0x2b8>
   18596:	e76e      	b.n	18476 <finish_reading_blue+0x1b6>
   18598:	9b01      	ldr	r3, [sp, #4]
   1859a:	42ab      	cmp	r3, r5
   1859c:	d29f      	bcs.n	184de <finish_reading_blue+0x21e>
   1859e:	9b00      	ldr	r3, [sp, #0]
   185a0:	42ab      	cmp	r3, r5
   185a2:	d900      	bls.n	185a6 <finish_reading_blue+0x2e6>
   185a4:	e6ec      	b.n	18380 <finish_reading_blue+0xc0>
   185a6:	9801      	ldr	r0, [sp, #4]
   185a8:	f003 fb42 	bl	1bc30 <__aeabi_ui2f>
   185ac:	9002      	str	r0, [sp, #8]
   185ae:	0028      	movs	r0, r5
   185b0:	f003 fb3e 	bl	1bc30 <__aeabi_ui2f>
   185b4:	9902      	ldr	r1, [sp, #8]
   185b6:	f002 fe03 	bl	1b1c0 <__aeabi_fdiv>
   185ba:	6038      	str	r0, [r7, #0]
   185bc:	9800      	ldr	r0, [sp, #0]
   185be:	e79d      	b.n	184fc <finish_reading_blue+0x23c>
   185c0:	2468      	movs	r4, #104	; 0x68
   185c2:	2000      	movs	r0, #0
   185c4:	2972      	cmp	r1, #114	; 0x72
   185c6:	2000      	movs	r0, #0
   185c8:	2970      	cmp	r1, #112	; 0x70
   185ca:	2000      	movs	r0, #0
   185cc:	2960      	cmp	r1, #96	; 0x60
   185ce:	2000      	movs	r0, #0
   185d0:	2978      	cmp	r1, #120	; 0x78
   185d2:	2000      	movs	r0, #0
   185d4:	2974      	cmp	r1, #116	; 0x74
   185d6:	2000      	movs	r0, #0
   185d8:	2962      	cmp	r1, #98	; 0x62
   185da:	2000      	movs	r0, #0
   185dc:	295c      	cmp	r1, #92	; 0x5c
   185de:	2000      	movs	r0, #0
   185e0:	296c      	cmp	r1, #108	; 0x6c
   185e2:	2000      	movs	r0, #0
   185e4:	2498      	movs	r4, #152	; 0x98
   185e6:	2000      	movs	r0, #0
   185e8:	999a      	ldr	r1, [sp, #616]	; 0x268
   185ea:	9999      	ldr	r1, [sp, #612]	; 0x264
   185ec:	9999      	ldr	r1, [sp, #612]	; 0x264
   185ee:	3ff1      	subs	r7, #241	; 0xf1
   185f0:	3333      	adds	r3, #51	; 0x33
   185f2:	3333      	adds	r3, #51	; 0x33
   185f4:	3333      	adds	r3, #51	; 0x33
   185f6:	3ff7      	subs	r7, #247	; 0xf7
   185f8:	294c      	cmp	r1, #76	; 0x4c
   185fa:	2000      	movs	r0, #0
   185fc:	2478      	movs	r4, #120	; 0x78
   185fe:	2000      	movs	r0, #0
   18600:	3333      	adds	r3, #51	; 0x33
   18602:	3ffb      	subs	r7, #251	; 0xfb
   18604:	07cf      	lsls	r7, r1, #31
   18606:	0000      	movs	r0, r0
   18608:	2964      	cmp	r1, #100	; 0x64
   1860a:	2000      	movs	r0, #0
   1860c:	2965      	cmp	r1, #101	; 0x65
   1860e:	2000      	movs	r0, #0

00018610 <start_sensing>:
   18610:	b510      	push	{r4, lr}
   18612:	4803      	ldr	r0, [pc, #12]	; (18620 <start_sensing+0x10>)
   18614:	f000 f950 	bl	188b8 <tcs34725_init>
   18618:	4802      	ldr	r0, [pc, #8]	; (18624 <start_sensing+0x14>)
   1861a:	f000 f963 	bl	188e4 <tcs34725_read_ID>
   1861e:	bd10      	pop	{r4, pc}
   18620:	2010      	movs	r0, #16
   18622:	2000      	movs	r0, #0
   18624:	8629      	strh	r1, [r5, #48]	; 0x30
   18626:	0001      	movs	r1, r0

00018628 <finish_reading_ID>:
   18628:	b510      	push	{r4, lr}
   1862a:	4b04      	ldr	r3, [pc, #16]	; (1863c <finish_reading_ID+0x14>)
   1862c:	b2c0      	uxtb	r0, r0
   1862e:	7018      	strb	r0, [r3, #0]
   18630:	4b03      	ldr	r3, [pc, #12]	; (18640 <finish_reading_ID+0x18>)
   18632:	7018      	strb	r0, [r3, #0]
   18634:	4803      	ldr	r0, [pc, #12]	; (18644 <finish_reading_ID+0x1c>)
   18636:	f000 f96f 	bl	18918 <tcs34725_Set_Int_Time>
   1863a:	bd10      	pop	{r4, pc}
   1863c:	2468      	movs	r4, #104	; 0x68
   1863e:	2000      	movs	r0, #0
   18640:	2498      	movs	r4, #152	; 0x98
   18642:	2000      	movs	r0, #0
   18644:	8649      	strh	r1, [r1, #50]	; 0x32
   18646:	0001      	movs	r1, r0

00018648 <finish_set_int_time>:
   18648:	b510      	push	{r4, lr}
   1864a:	4802      	ldr	r0, [pc, #8]	; (18654 <finish_set_int_time+0xc>)
   1864c:	f000 f978 	bl	18940 <tcs34725_Set_Gain>
   18650:	bd10      	pop	{r4, pc}
   18652:	46c0      	nop			; (mov r8, r8)
   18654:	8659      	strh	r1, [r3, #50]	; 0x32
   18656:	0001      	movs	r1, r0

00018658 <finish_set_gain>:
   18658:	b510      	push	{r4, lr}
   1865a:	4802      	ldr	r0, [pc, #8]	; (18664 <finish_set_gain+0xc>)
   1865c:	f000 f984 	bl	18968 <tcs34725_sensor_enable>
   18660:	bd10      	pop	{r4, pc}
   18662:	46c0      	nop			; (mov r8, r8)
   18664:	8669      	strh	r1, [r5, #50]	; 0x32
   18666:	0001      	movs	r1, r0

00018668 <finish_sensor_enable>:
   18668:	b510      	push	{r4, lr}
   1866a:	2003      	movs	r0, #3
   1866c:	f001 fae8 	bl	19c40 <nrf_delay_ms>
   18670:	4801      	ldr	r0, [pc, #4]	; (18678 <finish_sensor_enable+0x10>)
   18672:	f000 f98d 	bl	18990 <tcs34725_adc_enable>
   18676:	bd10      	pop	{r4, pc}
   18678:	8255      	strh	r5, [r2, #18]
   1867a:	0001      	movs	r1, r0

0001867c <main>:
   1867c:	b51f      	push	{r0, r1, r2, r3, r4, lr}
   1867e:	2400      	movs	r4, #0
   18680:	2011      	movs	r0, #17
   18682:	f001 faa7 	bl	19bd4 <led_init>
   18686:	2011      	movs	r0, #17
   18688:	f001 fabc 	bl	19c04 <led_off>
   1868c:	4b2d      	ldr	r3, [pc, #180]	; (18744 <main+0xc8>)
   1868e:	2011      	movs	r0, #17
   18690:	735c      	strb	r4, [r3, #13]
   18692:	739c      	strb	r4, [r3, #14]
   18694:	4b2c      	ldr	r3, [pc, #176]	; (18748 <main+0xcc>)
   18696:	709c      	strb	r4, [r3, #2]
   18698:	70dc      	strb	r4, [r3, #3]
   1869a:	f001 faa9 	bl	19bf0 <led_on>
   1869e:	20fa      	movs	r0, #250	; 0xfa
   186a0:	0080      	lsls	r0, r0, #2
   186a2:	f001 facd 	bl	19c40 <nrf_delay_ms>
   186a6:	4829      	ldr	r0, [pc, #164]	; (1874c <main+0xd0>)
   186a8:	f002 fafc 	bl	1aca4 <simple_ble_init>
   186ac:	2011      	movs	r0, #17
   186ae:	f001 faa9 	bl	19c04 <led_off>
   186b2:	20fa      	movs	r0, #250	; 0xfa
   186b4:	0080      	lsls	r0, r0, #2
   186b6:	f001 fac3 	bl	19c40 <nrf_delay_ms>
   186ba:	2011      	movs	r0, #17
   186bc:	f001 fa98 	bl	19bf0 <led_on>
   186c0:	20fa      	movs	r0, #250	; 0xfa
   186c2:	0080      	lsls	r0, r0, #2
   186c4:	f001 fabc 	bl	19c40 <nrf_delay_ms>
   186c8:	231d      	movs	r3, #29
   186ca:	9301      	str	r3, [sp, #4]
   186cc:	3b01      	subs	r3, #1
   186ce:	9300      	str	r3, [sp, #0]
   186d0:	23cc      	movs	r3, #204	; 0xcc
   186d2:	045b      	lsls	r3, r3, #17
   186d4:	466a      	mov	r2, sp
   186d6:	9302      	str	r3, [sp, #8]
   186d8:	2303      	movs	r3, #3
   186da:	4669      	mov	r1, sp
   186dc:	7313      	strb	r3, [r2, #12]
   186de:	481c      	ldr	r0, [pc, #112]	; (18750 <main+0xd4>)
   186e0:	4b1c      	ldr	r3, [pc, #112]	; (18754 <main+0xd8>)
   186e2:	2208      	movs	r2, #8
   186e4:	f001 fffe 	bl	1a6e4 <app_twi_init>
   186e8:	42a0      	cmp	r0, r4
   186ea:	d003      	beq.n	186f4 <main+0x78>
   186ec:	0022      	movs	r2, r4
   186ee:	0021      	movs	r1, r4
   186f0:	f002 f8a4 	bl	1a83c <app_error_handler>
   186f4:	2011      	movs	r0, #17
   186f6:	f001 fa85 	bl	19c04 <led_off>
   186fa:	20fa      	movs	r0, #250	; 0xfa
   186fc:	0080      	lsls	r0, r0, #2
   186fe:	f001 fa9f 	bl	19c40 <nrf_delay_ms>
   18702:	2011      	movs	r0, #17
   18704:	f001 fa74 	bl	19bf0 <led_on>
   18708:	20fa      	movs	r0, #250	; 0xfa
   1870a:	0080      	lsls	r0, r0, #2
   1870c:	f001 fa98 	bl	19c40 <nrf_delay_ms>
   18710:	4a11      	ldr	r2, [pc, #68]	; (18758 <main+0xdc>)
   18712:	2100      	movs	r1, #0
   18714:	4811      	ldr	r0, [pc, #68]	; (1875c <main+0xe0>)
   18716:	f000 fde3 	bl	192e0 <app_timer_create>
   1871a:	4a11      	ldr	r2, [pc, #68]	; (18760 <main+0xe4>)
   1871c:	2100      	movs	r1, #0
   1871e:	4811      	ldr	r0, [pc, #68]	; (18764 <main+0xe8>)
   18720:	f000 fdde 	bl	192e0 <app_timer_create>
   18724:	2011      	movs	r0, #17
   18726:	f001 fa6d 	bl	19c04 <led_off>
   1872a:	20fa      	movs	r0, #250	; 0xfa
   1872c:	0080      	lsls	r0, r0, #2
   1872e:	f001 fa87 	bl	19c40 <nrf_delay_ms>
   18732:	21a4      	movs	r1, #164	; 0xa4
   18734:	2200      	movs	r2, #0
   18736:	0049      	lsls	r1, r1, #1
   18738:	480b      	ldr	r0, [pc, #44]	; (18768 <main+0xec>)
   1873a:	f000 fde9 	bl	19310 <app_timer_start>
   1873e:	f002 faa3 	bl	1ac88 <power_manage>
   18742:	e7fc      	b.n	1873e <main+0xc2>
   18744:	2468      	movs	r4, #104	; 0x68
   18746:	2000      	movs	r0, #0
   18748:	2498      	movs	r4, #152	; 0x98
   1874a:	2000      	movs	r0, #0
   1874c:	2000      	movs	r0, #0
   1874e:	2000      	movs	r0, #0
   18750:	2010      	movs	r0, #16
   18752:	2000      	movs	r0, #0
   18754:	249c      	movs	r4, #156	; 0x9c
   18756:	2000      	movs	r0, #0
   18758:	8611      	strh	r1, [r2, #48]	; 0x30
   1875a:	0001      	movs	r1, r0
   1875c:	f0ac 0001 			; <UNDEFINED> instruction: 0xf0ac0001
   18760:	8245      	strh	r5, [r0, #18]
   18762:	0001      	movs	r1, r0
   18764:	f0a8 0001 			; <UNDEFINED> instruction: 0xf0a80001
   18768:	24c0      	movs	r4, #192	; 0xc0
   1876a:	2000      	movs	r0, #0

0001876c <tcs34725_event_handler>:
   1876c:	4b40      	ldr	r3, [pc, #256]	; (18870 <tcs34725_event_handler+0x104>)
   1876e:	b510      	push	{r4, lr}
   18770:	7818      	ldrb	r0, [r3, #0]
   18772:	3801      	subs	r0, #1
   18774:	2813      	cmp	r0, #19
   18776:	d81a      	bhi.n	187ae <tcs34725_event_handler+0x42>
   18778:	f002 fae4 	bl	1ad44 <__gnu_thumb1_case_uqi>
   1877c:	0f0a      	lsrs	r2, r1, #28
   1877e:	1c1a      	adds	r2, r3, #0
   18780:	2624      	movs	r6, #36	; 0x24
   18782:	382a      	subs	r0, #42	; 0x2a
   18784:	413c      	asrs	r4, r7
   18786:	4745      	bx	r8
   18788:	4d4b      	ldr	r5, [pc, #300]	; (188b8 <tcs34725_init>)
   1878a:	5d5b      	ldrb	r3, [r3, r5]
   1878c:	6765      	str	r5, [r4, #116]	; 0x74
   1878e:	716f      	strb	r7, [r5, #5]
   18790:	2202      	movs	r2, #2
   18792:	701a      	strb	r2, [r3, #0]
   18794:	2121      	movs	r1, #33	; 0x21
   18796:	2200      	movs	r2, #0
   18798:	e01e      	b.n	187d8 <tcs34725_event_handler+0x6c>
   1879a:	2200      	movs	r2, #0
   1879c:	701a      	strb	r2, [r3, #0]
   1879e:	4b35      	ldr	r3, [pc, #212]	; (18874 <tcs34725_event_handler+0x108>)
   187a0:	681b      	ldr	r3, [r3, #0]
   187a2:	4293      	cmp	r3, r2
   187a4:	d003      	beq.n	187ae <tcs34725_event_handler+0x42>
   187a6:	2000      	movs	r0, #0
   187a8:	4a33      	ldr	r2, [pc, #204]	; (18878 <tcs34725_event_handler+0x10c>)
   187aa:	5610      	ldrsb	r0, [r2, r0]
   187ac:	4798      	blx	r3
   187ae:	bd10      	pop	{r4, pc}
   187b0:	2204      	movs	r2, #4
   187b2:	e7ee      	b.n	18792 <tcs34725_event_handler+0x26>
   187b4:	2200      	movs	r2, #0
   187b6:	701a      	strb	r2, [r3, #0]
   187b8:	4b30      	ldr	r3, [pc, #192]	; (1887c <tcs34725_event_handler+0x110>)
   187ba:	681b      	ldr	r3, [r3, #0]
   187bc:	4293      	cmp	r3, r2
   187be:	d0f6      	beq.n	187ae <tcs34725_event_handler+0x42>
   187c0:	4798      	blx	r3
   187c2:	e7f4      	b.n	187ae <tcs34725_event_handler+0x42>
   187c4:	2206      	movs	r2, #6
   187c6:	e7e4      	b.n	18792 <tcs34725_event_handler+0x26>
   187c8:	2200      	movs	r2, #0
   187ca:	701a      	strb	r2, [r3, #0]
   187cc:	4b2c      	ldr	r3, [pc, #176]	; (18880 <tcs34725_event_handler+0x114>)
   187ce:	e7f4      	b.n	187ba <tcs34725_event_handler+0x4e>
   187d0:	2208      	movs	r2, #8
   187d2:	21a4      	movs	r1, #164	; 0xa4
   187d4:	701a      	strb	r2, [r3, #0]
   187d6:	2200      	movs	r2, #0
   187d8:	482a      	ldr	r0, [pc, #168]	; (18884 <tcs34725_event_handler+0x118>)
   187da:	f000 fd99 	bl	19310 <app_timer_start>
   187de:	2800      	cmp	r0, #0
   187e0:	d0e5      	beq.n	187ae <tcs34725_event_handler+0x42>
   187e2:	2200      	movs	r2, #0
   187e4:	0011      	movs	r1, r2
   187e6:	f002 f829 	bl	1a83c <app_error_handler>
   187ea:	e7e0      	b.n	187ae <tcs34725_event_handler+0x42>
   187ec:	2200      	movs	r2, #0
   187ee:	701a      	strb	r2, [r3, #0]
   187f0:	4b25      	ldr	r3, [pc, #148]	; (18888 <tcs34725_event_handler+0x11c>)
   187f2:	e7e2      	b.n	187ba <tcs34725_event_handler+0x4e>
   187f4:	220a      	movs	r2, #10
   187f6:	4925      	ldr	r1, [pc, #148]	; (1888c <tcs34725_event_handler+0x120>)
   187f8:	701a      	strb	r2, [r3, #0]
   187fa:	2200      	movs	r2, #0
   187fc:	e7ec      	b.n	187d8 <tcs34725_event_handler+0x6c>
   187fe:	2200      	movs	r2, #0
   18800:	701a      	strb	r2, [r3, #0]
   18802:	4b23      	ldr	r3, [pc, #140]	; (18890 <tcs34725_event_handler+0x124>)
   18804:	e7d9      	b.n	187ba <tcs34725_event_handler+0x4e>
   18806:	220c      	movs	r2, #12
   18808:	e7c3      	b.n	18792 <tcs34725_event_handler+0x26>
   1880a:	2200      	movs	r2, #0
   1880c:	701a      	strb	r2, [r3, #0]
   1880e:	4b21      	ldr	r3, [pc, #132]	; (18894 <tcs34725_event_handler+0x128>)
   18810:	e7d3      	b.n	187ba <tcs34725_event_handler+0x4e>
   18812:	220e      	movs	r2, #14
   18814:	e7bd      	b.n	18792 <tcs34725_event_handler+0x26>
   18816:	2200      	movs	r2, #0
   18818:	701a      	strb	r2, [r3, #0]
   1881a:	4b1f      	ldr	r3, [pc, #124]	; (18898 <tcs34725_event_handler+0x12c>)
   1881c:	491f      	ldr	r1, [pc, #124]	; (1889c <tcs34725_event_handler+0x130>)
   1881e:	681a      	ldr	r2, [r3, #0]
   18820:	2a00      	cmp	r2, #0
   18822:	d0c4      	beq.n	187ae <tcs34725_event_handler+0x42>
   18824:	784b      	ldrb	r3, [r1, #1]
   18826:	7808      	ldrb	r0, [r1, #0]
   18828:	021b      	lsls	r3, r3, #8
   1882a:	4318      	orrs	r0, r3
   1882c:	b200      	sxth	r0, r0
   1882e:	4790      	blx	r2
   18830:	e7bd      	b.n	187ae <tcs34725_event_handler+0x42>
   18832:	2210      	movs	r2, #16
   18834:	e7ad      	b.n	18792 <tcs34725_event_handler+0x26>
   18836:	2200      	movs	r2, #0
   18838:	701a      	strb	r2, [r3, #0]
   1883a:	4b19      	ldr	r3, [pc, #100]	; (188a0 <tcs34725_event_handler+0x134>)
   1883c:	4919      	ldr	r1, [pc, #100]	; (188a4 <tcs34725_event_handler+0x138>)
   1883e:	681a      	ldr	r2, [r3, #0]
   18840:	2a00      	cmp	r2, #0
   18842:	d1ef      	bne.n	18824 <tcs34725_event_handler+0xb8>
   18844:	e7b3      	b.n	187ae <tcs34725_event_handler+0x42>
   18846:	2212      	movs	r2, #18
   18848:	e7a3      	b.n	18792 <tcs34725_event_handler+0x26>
   1884a:	2200      	movs	r2, #0
   1884c:	701a      	strb	r2, [r3, #0]
   1884e:	4b16      	ldr	r3, [pc, #88]	; (188a8 <tcs34725_event_handler+0x13c>)
   18850:	4916      	ldr	r1, [pc, #88]	; (188ac <tcs34725_event_handler+0x140>)
   18852:	681a      	ldr	r2, [r3, #0]
   18854:	2a00      	cmp	r2, #0
   18856:	d1e5      	bne.n	18824 <tcs34725_event_handler+0xb8>
   18858:	e7a9      	b.n	187ae <tcs34725_event_handler+0x42>
   1885a:	2214      	movs	r2, #20
   1885c:	e799      	b.n	18792 <tcs34725_event_handler+0x26>
   1885e:	2200      	movs	r2, #0
   18860:	701a      	strb	r2, [r3, #0]
   18862:	4b13      	ldr	r3, [pc, #76]	; (188b0 <tcs34725_event_handler+0x144>)
   18864:	681a      	ldr	r2, [r3, #0]
   18866:	2a00      	cmp	r2, #0
   18868:	d0a1      	beq.n	187ae <tcs34725_event_handler+0x42>
   1886a:	4912      	ldr	r1, [pc, #72]	; (188b4 <tcs34725_event_handler+0x148>)
   1886c:	e7da      	b.n	18824 <tcs34725_event_handler+0xb8>
   1886e:	46c0      	nop			; (mov r8, r8)
   18870:	2514      	movs	r5, #20
   18872:	2000      	movs	r0, #0
   18874:	24ec      	movs	r4, #236	; 0xec
   18876:	2000      	movs	r0, #0
   18878:	2538      	movs	r5, #56	; 0x38
   1887a:	2000      	movs	r0, #0
   1887c:	250c      	movs	r5, #12
   1887e:	2000      	movs	r0, #0
   18880:	2508      	movs	r5, #8
   18882:	2000      	movs	r0, #0
   18884:	2518      	movs	r5, #24
   18886:	2000      	movs	r0, #0
   18888:	2504      	movs	r5, #4
   1888a:	2000      	movs	r0, #0
   1888c:	599a      	ldr	r2, [r3, r6]
   1888e:	0000      	movs	r0, r0
   18890:	24e0      	movs	r4, #224	; 0xe0
   18892:	2000      	movs	r0, #0
   18894:	2510      	movs	r5, #16
   18896:	2000      	movs	r0, #0
   18898:	24f4      	movs	r4, #244	; 0xf4
   1889a:	2000      	movs	r0, #0
   1889c:	24e6      	movs	r4, #230	; 0xe6
   1889e:	2000      	movs	r0, #0
   188a0:	24fc      	movs	r4, #252	; 0xfc
   188a2:	2000      	movs	r0, #0
   188a4:	2500      	movs	r5, #0
   188a6:	2000      	movs	r0, #0
   188a8:	24f8      	movs	r4, #248	; 0xf8
   188aa:	2000      	movs	r0, #0
   188ac:	24e8      	movs	r4, #232	; 0xe8
   188ae:	2000      	movs	r0, #0
   188b0:	24f0      	movs	r4, #240	; 0xf0
   188b2:	2000      	movs	r0, #0
   188b4:	24e4      	movs	r4, #228	; 0xe4
   188b6:	2000      	movs	r0, #0

000188b8 <tcs34725_init>:
   188b8:	4b07      	ldr	r3, [pc, #28]	; (188d8 <tcs34725_init+0x20>)
   188ba:	b510      	push	{r4, lr}
   188bc:	4a07      	ldr	r2, [pc, #28]	; (188dc <tcs34725_init+0x24>)
   188be:	6018      	str	r0, [r3, #0]
   188c0:	2100      	movs	r1, #0
   188c2:	4807      	ldr	r0, [pc, #28]	; (188e0 <tcs34725_init+0x28>)
   188c4:	f000 fd0c 	bl	192e0 <app_timer_create>
   188c8:	2800      	cmp	r0, #0
   188ca:	d003      	beq.n	188d4 <tcs34725_init+0x1c>
   188cc:	2200      	movs	r2, #0
   188ce:	0011      	movs	r1, r2
   188d0:	f001 ffb4 	bl	1a83c <app_error_handler>
   188d4:	bd10      	pop	{r4, pc}
   188d6:	46c0      	nop			; (mov r8, r8)
   188d8:	253c      	movs	r5, #60	; 0x3c
   188da:	2000      	movs	r0, #0
   188dc:	876d      	strh	r5, [r5, #58]	; 0x3a
   188de:	0001      	movs	r1, r0
   188e0:	f1a0 0001 	sub.w	r0, r0, #1

000188e4 <tcs34725_read_ID>:
   188e4:	2201      	movs	r2, #1
   188e6:	4b08      	ldr	r3, [pc, #32]	; (18908 <tcs34725_read_ID+0x24>)
   188e8:	b510      	push	{r4, lr}
   188ea:	6018      	str	r0, [r3, #0]
   188ec:	4b07      	ldr	r3, [pc, #28]	; (1890c <tcs34725_read_ID+0x28>)
   188ee:	4908      	ldr	r1, [pc, #32]	; (18910 <tcs34725_read_ID+0x2c>)
   188f0:	701a      	strb	r2, [r3, #0]
   188f2:	4b08      	ldr	r3, [pc, #32]	; (18914 <tcs34725_read_ID+0x30>)
   188f4:	6818      	ldr	r0, [r3, #0]
   188f6:	f001 ff11 	bl	1a71c <app_twi_schedule>
   188fa:	2800      	cmp	r0, #0
   188fc:	d003      	beq.n	18906 <tcs34725_read_ID+0x22>
   188fe:	2200      	movs	r2, #0
   18900:	0011      	movs	r1, r2
   18902:	f001 ff9b 	bl	1a83c <app_error_handler>
   18906:	bd10      	pop	{r4, pc}
   18908:	24ec      	movs	r4, #236	; 0xec
   1890a:	2000      	movs	r0, #0
   1890c:	2514      	movs	r5, #20
   1890e:	2000      	movs	r0, #0
   18910:	f170 0001 	sbcs.w	r0, r0, #1
   18914:	253c      	movs	r5, #60	; 0x3c
   18916:	2000      	movs	r0, #0

00018918 <tcs34725_Set_Int_Time>:
   18918:	2203      	movs	r2, #3
   1891a:	4b05      	ldr	r3, [pc, #20]	; (18930 <tcs34725_Set_Int_Time+0x18>)
   1891c:	b510      	push	{r4, lr}
   1891e:	6018      	str	r0, [r3, #0]
   18920:	4b04      	ldr	r3, [pc, #16]	; (18934 <tcs34725_Set_Int_Time+0x1c>)
   18922:	4905      	ldr	r1, [pc, #20]	; (18938 <tcs34725_Set_Int_Time+0x20>)
   18924:	701a      	strb	r2, [r3, #0]
   18926:	4b05      	ldr	r3, [pc, #20]	; (1893c <tcs34725_Set_Int_Time+0x24>)
   18928:	6818      	ldr	r0, [r3, #0]
   1892a:	f001 fef7 	bl	1a71c <app_twi_schedule>
   1892e:	bd10      	pop	{r4, pc}
   18930:	250c      	movs	r5, #12
   18932:	2000      	movs	r0, #0
   18934:	2514      	movs	r5, #20
   18936:	2000      	movs	r0, #0
   18938:	f190 0001 			; <UNDEFINED> instruction: 0xf1900001
   1893c:	253c      	movs	r5, #60	; 0x3c
   1893e:	2000      	movs	r0, #0

00018940 <tcs34725_Set_Gain>:
   18940:	2205      	movs	r2, #5
   18942:	4b05      	ldr	r3, [pc, #20]	; (18958 <tcs34725_Set_Gain+0x18>)
   18944:	b510      	push	{r4, lr}
   18946:	6018      	str	r0, [r3, #0]
   18948:	4b04      	ldr	r3, [pc, #16]	; (1895c <tcs34725_Set_Gain+0x1c>)
   1894a:	4905      	ldr	r1, [pc, #20]	; (18960 <tcs34725_Set_Gain+0x20>)
   1894c:	701a      	strb	r2, [r3, #0]
   1894e:	4b05      	ldr	r3, [pc, #20]	; (18964 <tcs34725_Set_Gain+0x24>)
   18950:	6818      	ldr	r0, [r3, #0]
   18952:	f001 fee3 	bl	1a71c <app_twi_schedule>
   18956:	bd10      	pop	{r4, pc}
   18958:	2508      	movs	r5, #8
   1895a:	2000      	movs	r0, #0
   1895c:	2514      	movs	r5, #20
   1895e:	2000      	movs	r0, #0
   18960:	f180 0001 			; <UNDEFINED> instruction: 0xf1800001
   18964:	253c      	movs	r5, #60	; 0x3c
   18966:	2000      	movs	r0, #0

00018968 <tcs34725_sensor_enable>:
   18968:	2207      	movs	r2, #7
   1896a:	4b05      	ldr	r3, [pc, #20]	; (18980 <tcs34725_sensor_enable+0x18>)
   1896c:	b510      	push	{r4, lr}
   1896e:	6018      	str	r0, [r3, #0]
   18970:	4b04      	ldr	r3, [pc, #16]	; (18984 <tcs34725_sensor_enable+0x1c>)
   18972:	4905      	ldr	r1, [pc, #20]	; (18988 <tcs34725_sensor_enable+0x20>)
   18974:	701a      	strb	r2, [r3, #0]
   18976:	4b05      	ldr	r3, [pc, #20]	; (1898c <tcs34725_sensor_enable+0x24>)
   18978:	6818      	ldr	r0, [r3, #0]
   1897a:	f001 fecf 	bl	1a71c <app_twi_schedule>
   1897e:	bd10      	pop	{r4, pc}
   18980:	2504      	movs	r5, #4
   18982:	2000      	movs	r0, #0
   18984:	2514      	movs	r5, #20
   18986:	2000      	movs	r0, #0
   18988:	f160 0001 	sbc.w	r0, r0, #1
   1898c:	253c      	movs	r5, #60	; 0x3c
   1898e:	2000      	movs	r0, #0

00018990 <tcs34725_adc_enable>:
   18990:	2209      	movs	r2, #9
   18992:	4b05      	ldr	r3, [pc, #20]	; (189a8 <tcs34725_adc_enable+0x18>)
   18994:	b510      	push	{r4, lr}
   18996:	6018      	str	r0, [r3, #0]
   18998:	4b04      	ldr	r3, [pc, #16]	; (189ac <tcs34725_adc_enable+0x1c>)
   1899a:	4905      	ldr	r1, [pc, #20]	; (189b0 <tcs34725_adc_enable+0x20>)
   1899c:	701a      	strb	r2, [r3, #0]
   1899e:	4b05      	ldr	r3, [pc, #20]	; (189b4 <tcs34725_adc_enable+0x24>)
   189a0:	6818      	ldr	r0, [r3, #0]
   189a2:	f001 febb 	bl	1a71c <app_twi_schedule>
   189a6:	bd10      	pop	{r4, pc}
   189a8:	24e0      	movs	r4, #224	; 0xe0
   189aa:	2000      	movs	r0, #0
   189ac:	2514      	movs	r5, #20
   189ae:	2000      	movs	r0, #0
   189b0:	f150 0001 	adcs.w	r0, r0, #1
   189b4:	253c      	movs	r5, #60	; 0x3c
   189b6:	2000      	movs	r0, #0

000189b8 <tcs34725_read_clear>:
   189b8:	220d      	movs	r2, #13
   189ba:	4b08      	ldr	r3, [pc, #32]	; (189dc <tcs34725_read_clear+0x24>)
   189bc:	b510      	push	{r4, lr}
   189be:	6018      	str	r0, [r3, #0]
   189c0:	4b07      	ldr	r3, [pc, #28]	; (189e0 <tcs34725_read_clear+0x28>)
   189c2:	4908      	ldr	r1, [pc, #32]	; (189e4 <tcs34725_read_clear+0x2c>)
   189c4:	701a      	strb	r2, [r3, #0]
   189c6:	4b08      	ldr	r3, [pc, #32]	; (189e8 <tcs34725_read_clear+0x30>)
   189c8:	6818      	ldr	r0, [r3, #0]
   189ca:	f001 fea7 	bl	1a71c <app_twi_schedule>
   189ce:	2800      	cmp	r0, #0
   189d0:	d003      	beq.n	189da <tcs34725_read_clear+0x22>
   189d2:	2200      	movs	r2, #0
   189d4:	0011      	movs	r1, r2
   189d6:	f001 ff31 	bl	1a83c <app_error_handler>
   189da:	bd10      	pop	{r4, pc}
   189dc:	24f4      	movs	r4, #244	; 0xf4
   189de:	2000      	movs	r0, #0
   189e0:	2514      	movs	r5, #20
   189e2:	2000      	movs	r0, #0
   189e4:	f1a4 0001 	sub.w	r0, r4, #1
   189e8:	253c      	movs	r5, #60	; 0x3c
   189ea:	2000      	movs	r0, #0

000189ec <tcs34725_read_red>:
   189ec:	220f      	movs	r2, #15
   189ee:	4b08      	ldr	r3, [pc, #32]	; (18a10 <tcs34725_read_red+0x24>)
   189f0:	b510      	push	{r4, lr}
   189f2:	6018      	str	r0, [r3, #0]
   189f4:	4b07      	ldr	r3, [pc, #28]	; (18a14 <tcs34725_read_red+0x28>)
   189f6:	4908      	ldr	r1, [pc, #32]	; (18a18 <tcs34725_read_red+0x2c>)
   189f8:	701a      	strb	r2, [r3, #0]
   189fa:	4b08      	ldr	r3, [pc, #32]	; (18a1c <tcs34725_read_red+0x30>)
   189fc:	6818      	ldr	r0, [r3, #0]
   189fe:	f001 fe8d 	bl	1a71c <app_twi_schedule>
   18a02:	2800      	cmp	r0, #0
   18a04:	d003      	beq.n	18a0e <tcs34725_read_red+0x22>
   18a06:	2200      	movs	r2, #0
   18a08:	0011      	movs	r1, r2
   18a0a:	f001 ff17 	bl	1a83c <app_error_handler>
   18a0e:	bd10      	pop	{r4, pc}
   18a10:	24fc      	movs	r4, #252	; 0xfc
   18a12:	2000      	movs	r0, #0
   18a14:	2514      	movs	r5, #20
   18a16:	2000      	movs	r0, #0
   18a18:	f1b4 0001 	subs.w	r0, r4, #1
   18a1c:	253c      	movs	r5, #60	; 0x3c
   18a1e:	2000      	movs	r0, #0

00018a20 <tcs34725_read_green>:
   18a20:	2211      	movs	r2, #17
   18a22:	4b08      	ldr	r3, [pc, #32]	; (18a44 <tcs34725_read_green+0x24>)
   18a24:	b510      	push	{r4, lr}
   18a26:	6018      	str	r0, [r3, #0]
   18a28:	4b07      	ldr	r3, [pc, #28]	; (18a48 <tcs34725_read_green+0x28>)
   18a2a:	4908      	ldr	r1, [pc, #32]	; (18a4c <tcs34725_read_green+0x2c>)
   18a2c:	701a      	strb	r2, [r3, #0]
   18a2e:	4b08      	ldr	r3, [pc, #32]	; (18a50 <tcs34725_read_green+0x30>)
   18a30:	6818      	ldr	r0, [r3, #0]
   18a32:	f001 fe73 	bl	1a71c <app_twi_schedule>
   18a36:	2800      	cmp	r0, #0
   18a38:	d003      	beq.n	18a42 <tcs34725_read_green+0x22>
   18a3a:	2200      	movs	r2, #0
   18a3c:	0011      	movs	r1, r2
   18a3e:	f001 fefd 	bl	1a83c <app_error_handler>
   18a42:	bd10      	pop	{r4, pc}
   18a44:	24f8      	movs	r4, #248	; 0xf8
   18a46:	2000      	movs	r0, #0
   18a48:	2514      	movs	r5, #20
   18a4a:	2000      	movs	r0, #0
   18a4c:	f1c4 0001 	rsb	r0, r4, #1
   18a50:	253c      	movs	r5, #60	; 0x3c
   18a52:	2000      	movs	r0, #0

00018a54 <tcs34725_read_blue>:
   18a54:	2213      	movs	r2, #19
   18a56:	4b08      	ldr	r3, [pc, #32]	; (18a78 <tcs34725_read_blue+0x24>)
   18a58:	b510      	push	{r4, lr}
   18a5a:	6018      	str	r0, [r3, #0]
   18a5c:	4b07      	ldr	r3, [pc, #28]	; (18a7c <tcs34725_read_blue+0x28>)
   18a5e:	4908      	ldr	r1, [pc, #32]	; (18a80 <tcs34725_read_blue+0x2c>)
   18a60:	701a      	strb	r2, [r3, #0]
   18a62:	4b08      	ldr	r3, [pc, #32]	; (18a84 <tcs34725_read_blue+0x30>)
   18a64:	6818      	ldr	r0, [r3, #0]
   18a66:	f001 fe59 	bl	1a71c <app_twi_schedule>
   18a6a:	2800      	cmp	r0, #0
   18a6c:	d003      	beq.n	18a76 <tcs34725_read_blue+0x22>
   18a6e:	2200      	movs	r2, #0
   18a70:	0011      	movs	r1, r2
   18a72:	f001 fee3 	bl	1a83c <app_error_handler>
   18a76:	bd10      	pop	{r4, pc}
   18a78:	24f0      	movs	r4, #240	; 0xf0
   18a7a:	2000      	movs	r0, #0
   18a7c:	2514      	movs	r5, #20
   18a7e:	2000      	movs	r0, #0
   18a80:	f1d4 0001 	rsbs	r0, r4, #1
   18a84:	253c      	movs	r5, #60	; 0x3c
   18a86:	2000      	movs	r0, #0

00018a88 <tcs34725_calculate_color_temperature>:
   18a88:	b5f7      	push	{r0, r1, r2, r4, r5, r6, r7, lr}
   18a8a:	4a56      	ldr	r2, [pc, #344]	; (18be4 <tcs34725_calculate_color_temperature+0x15c>)
   18a8c:	7853      	ldrb	r3, [r2, #1]
   18a8e:	7810      	ldrb	r0, [r2, #0]
   18a90:	021b      	lsls	r3, r3, #8
   18a92:	4318      	orrs	r0, r3
   18a94:	f003 f882 	bl	1bb9c <__aeabi_i2f>
   18a98:	4a53      	ldr	r2, [pc, #332]	; (18be8 <tcs34725_calculate_color_temperature+0x160>)
   18a9a:	1c06      	adds	r6, r0, #0
   18a9c:	7853      	ldrb	r3, [r2, #1]
   18a9e:	7810      	ldrb	r0, [r2, #0]
   18aa0:	021b      	lsls	r3, r3, #8
   18aa2:	4318      	orrs	r0, r3
   18aa4:	f003 f87a 	bl	1bb9c <__aeabi_i2f>
   18aa8:	4a50      	ldr	r2, [pc, #320]	; (18bec <tcs34725_calculate_color_temperature+0x164>)
   18aaa:	1c05      	adds	r5, r0, #0
   18aac:	7853      	ldrb	r3, [r2, #1]
   18aae:	7810      	ldrb	r0, [r2, #0]
   18ab0:	021b      	lsls	r3, r3, #8
   18ab2:	4318      	orrs	r0, r3
   18ab4:	f003 f872 	bl	1bb9c <__aeabi_i2f>
   18ab8:	494d      	ldr	r1, [pc, #308]	; (18bf0 <tcs34725_calculate_color_temperature+0x168>)
   18aba:	1c04      	adds	r4, r0, #0
   18abc:	1c30      	adds	r0, r6, #0
   18abe:	f002 fd57 	bl	1b570 <__aeabi_fmul>
   18ac2:	494c      	ldr	r1, [pc, #304]	; (18bf4 <tcs34725_calculate_color_temperature+0x16c>)
   18ac4:	1c07      	adds	r7, r0, #0
   18ac6:	1c28      	adds	r0, r5, #0
   18ac8:	f002 fd52 	bl	1b570 <__aeabi_fmul>
   18acc:	1c01      	adds	r1, r0, #0
   18ace:	1c38      	adds	r0, r7, #0
   18ad0:	f002 f9dc 	bl	1ae8c <__aeabi_fadd>
   18ad4:	4948      	ldr	r1, [pc, #288]	; (18bf8 <tcs34725_calculate_color_temperature+0x170>)
   18ad6:	1c07      	adds	r7, r0, #0
   18ad8:	1c20      	adds	r0, r4, #0
   18ada:	f002 fd49 	bl	1b570 <__aeabi_fmul>
   18ade:	1c01      	adds	r1, r0, #0
   18ae0:	1c38      	adds	r0, r7, #0
   18ae2:	f002 f9d3 	bl	1ae8c <__aeabi_fadd>
   18ae6:	4945      	ldr	r1, [pc, #276]	; (18bfc <tcs34725_calculate_color_temperature+0x174>)
   18ae8:	1c07      	adds	r7, r0, #0
   18aea:	1c30      	adds	r0, r6, #0
   18aec:	f002 fd40 	bl	1b570 <__aeabi_fmul>
   18af0:	4943      	ldr	r1, [pc, #268]	; (18c00 <tcs34725_calculate_color_temperature+0x178>)
   18af2:	9001      	str	r0, [sp, #4]
   18af4:	1c28      	adds	r0, r5, #0
   18af6:	f002 fd3b 	bl	1b570 <__aeabi_fmul>
   18afa:	1c01      	adds	r1, r0, #0
   18afc:	9801      	ldr	r0, [sp, #4]
   18afe:	f002 f9c5 	bl	1ae8c <__aeabi_fadd>
   18b02:	4940      	ldr	r1, [pc, #256]	; (18c04 <tcs34725_calculate_color_temperature+0x17c>)
   18b04:	9001      	str	r0, [sp, #4]
   18b06:	1c20      	adds	r0, r4, #0
   18b08:	f002 fd32 	bl	1b570 <__aeabi_fmul>
   18b0c:	1c01      	adds	r1, r0, #0
   18b0e:	9801      	ldr	r0, [sp, #4]
   18b10:	f002 f9bc 	bl	1ae8c <__aeabi_fadd>
   18b14:	493c      	ldr	r1, [pc, #240]	; (18c08 <tcs34725_calculate_color_temperature+0x180>)
   18b16:	9001      	str	r0, [sp, #4]
   18b18:	1c30      	adds	r0, r6, #0
   18b1a:	f002 fd29 	bl	1b570 <__aeabi_fmul>
   18b1e:	493b      	ldr	r1, [pc, #236]	; (18c0c <tcs34725_calculate_color_temperature+0x184>)
   18b20:	1c06      	adds	r6, r0, #0
   18b22:	1c28      	adds	r0, r5, #0
   18b24:	f002 fd24 	bl	1b570 <__aeabi_fmul>
   18b28:	1c01      	adds	r1, r0, #0
   18b2a:	1c30      	adds	r0, r6, #0
   18b2c:	f002 f9ae 	bl	1ae8c <__aeabi_fadd>
   18b30:	4937      	ldr	r1, [pc, #220]	; (18c10 <tcs34725_calculate_color_temperature+0x188>)
   18b32:	1c05      	adds	r5, r0, #0
   18b34:	1c20      	adds	r0, r4, #0
   18b36:	f002 fd1b 	bl	1b570 <__aeabi_fmul>
   18b3a:	1c01      	adds	r1, r0, #0
   18b3c:	1c28      	adds	r0, r5, #0
   18b3e:	f002 f9a5 	bl	1ae8c <__aeabi_fadd>
   18b42:	9901      	ldr	r1, [sp, #4]
   18b44:	1c04      	adds	r4, r0, #0
   18b46:	1c38      	adds	r0, r7, #0
   18b48:	f002 f9a0 	bl	1ae8c <__aeabi_fadd>
   18b4c:	1c01      	adds	r1, r0, #0
   18b4e:	1c20      	adds	r0, r4, #0
   18b50:	f002 f99c 	bl	1ae8c <__aeabi_fadd>
   18b54:	1c04      	adds	r4, r0, #0
   18b56:	1c01      	adds	r1, r0, #0
   18b58:	1c38      	adds	r0, r7, #0
   18b5a:	f002 fb31 	bl	1b1c0 <__aeabi_fdiv>
   18b5e:	492d      	ldr	r1, [pc, #180]	; (18c14 <tcs34725_calculate_color_temperature+0x18c>)
   18b60:	f002 fe38 	bl	1b7d4 <__aeabi_fsub>
   18b64:	1c21      	adds	r1, r4, #0
   18b66:	1c05      	adds	r5, r0, #0
   18b68:	9801      	ldr	r0, [sp, #4]
   18b6a:	f002 fb29 	bl	1b1c0 <__aeabi_fdiv>
   18b6e:	1c01      	adds	r1, r0, #0
   18b70:	4829      	ldr	r0, [pc, #164]	; (18c18 <tcs34725_calculate_color_temperature+0x190>)
   18b72:	f002 fe2f 	bl	1b7d4 <__aeabi_fsub>
   18b76:	1c01      	adds	r1, r0, #0
   18b78:	1c28      	adds	r0, r5, #0
   18b7a:	f002 fb21 	bl	1b1c0 <__aeabi_fdiv>
   18b7e:	9001      	str	r0, [sp, #4]
   18b80:	f003 fc10 	bl	1c3a4 <__aeabi_f2d>
   18b84:	2200      	movs	r2, #0
   18b86:	4b25      	ldr	r3, [pc, #148]	; (18c1c <tcs34725_calculate_color_temperature+0x194>)
   18b88:	000d      	movs	r5, r1
   18b8a:	0004      	movs	r4, r0
   18b8c:	f003 ff22 	bl	1c9d4 <pow>
   18b90:	0022      	movs	r2, r4
   18b92:	002b      	movs	r3, r5
   18b94:	0006      	movs	r6, r0
   18b96:	000f      	movs	r7, r1
   18b98:	0020      	movs	r0, r4
   18b9a:	0029      	movs	r1, r5
   18b9c:	f003 f990 	bl	1bec0 <__aeabi_dmul>
   18ba0:	f003 fc52 	bl	1c448 <__aeabi_d2f>
   18ba4:	491e      	ldr	r1, [pc, #120]	; (18c20 <tcs34725_calculate_color_temperature+0x198>)
   18ba6:	f002 fce3 	bl	1b570 <__aeabi_fmul>
   18baa:	0039      	movs	r1, r7
   18bac:	1c04      	adds	r4, r0, #0
   18bae:	0030      	movs	r0, r6
   18bb0:	f003 fc4a 	bl	1c448 <__aeabi_d2f>
   18bb4:	491b      	ldr	r1, [pc, #108]	; (18c24 <tcs34725_calculate_color_temperature+0x19c>)
   18bb6:	f002 fcdb 	bl	1b570 <__aeabi_fmul>
   18bba:	1c01      	adds	r1, r0, #0
   18bbc:	1c20      	adds	r0, r4, #0
   18bbe:	f002 f965 	bl	1ae8c <__aeabi_fadd>
   18bc2:	4919      	ldr	r1, [pc, #100]	; (18c28 <tcs34725_calculate_color_temperature+0x1a0>)
   18bc4:	1c04      	adds	r4, r0, #0
   18bc6:	9801      	ldr	r0, [sp, #4]
   18bc8:	f002 fcd2 	bl	1b570 <__aeabi_fmul>
   18bcc:	1c01      	adds	r1, r0, #0
   18bce:	1c20      	adds	r0, r4, #0
   18bd0:	f002 f95c 	bl	1ae8c <__aeabi_fadd>
   18bd4:	4915      	ldr	r1, [pc, #84]	; (18c2c <tcs34725_calculate_color_temperature+0x1a4>)
   18bd6:	f002 f959 	bl	1ae8c <__aeabi_fadd>
   18bda:	f002 f93f 	bl	1ae5c <__aeabi_f2uiz>
   18bde:	b280      	uxth	r0, r0
   18be0:	bdfe      	pop	{r1, r2, r3, r4, r5, r6, r7, pc}
   18be2:	46c0      	nop			; (mov r8, r8)
   18be4:	2500      	movs	r5, #0
   18be6:	2000      	movs	r0, #0
   18be8:	24e8      	movs	r4, #232	; 0xe8
   18bea:	2000      	movs	r0, #0
   18bec:	24e4      	movs	r4, #228	; 0xe4
   18bee:	2000      	movs	r0, #0
   18bf0:	3f68      	subs	r7, #104	; 0x68
   18bf2:	be12      	bkpt	0x0012
   18bf4:	4d7f      	ldr	r5, [pc, #508]	; (18df4 <RTC1_IRQHandler+0x50>)
   18bf6:	3fc6      	subs	r7, #198	; 0xc6
   18bf8:	d749      	bvc.n	18c8e <tcs34725_calculate_lux+0x5e>
   18bfa:	bf74      	ite	vc
   18bfc:	39d6      	subvc	r1, #214	; 0xd6
   18bfe:	bea6      	bkpt	0x00a6
   18c00:	0807      	lsrs	r7, r0, #32
   18c02:	3fca      	subs	r7, #202	; 0xca
   18c04:	5e74      	ldrsh	r4, [r6, r1]
   18c06:	bf3b      	ittet	cc
   18c08:	98dd      	ldrcc	r0, [sp, #884]	; 0x374
   18c0a:	bf2e      	itee	cs	; unpredictable <IT:cc>
   18c0c:	4e90      	ldrcs	r6, [pc, #576]	; (18e50 <RTC1_IRQHandler+0xac>)
   18c0e:	3f45      	subcc	r7, #69	; 0x45
   18c10:	35bd      	addcc	r5, #189	; 0xbd
   18c12:	3f10      	subs	r7, #16
   18c14:	fbe7 3ea9 			; <UNDEFINED> instruction: 0xfbe73ea9
   18c18:	425b      	negs	r3, r3
   18c1a:	3e3e      	subs	r6, #62	; 0x3e
   18c1c:	0000      	movs	r0, r0
   18c1e:	4008      	ands	r0, r1
   18c20:	5000      	str	r0, [r0, r0]
   18c22:	455c      	cmp	r4, fp
   18c24:	8000      	strh	r0, [r0, #0]
   18c26:	43e0      	mvns	r0, r4
   18c28:	3a66      	subs	r2, #102	; 0x66
   18c2a:	45d5      	cmp	sp, sl
   18c2c:	82a4      	strh	r4, [r4, #20]
   18c2e:	45ac      	cmp	ip, r5

00018c30 <tcs34725_calculate_lux>:
   18c30:	b510      	push	{r4, lr}
   18c32:	4a16      	ldr	r2, [pc, #88]	; (18c8c <tcs34725_calculate_lux+0x5c>)
   18c34:	7853      	ldrb	r3, [r2, #1]
   18c36:	7810      	ldrb	r0, [r2, #0]
   18c38:	021b      	lsls	r3, r3, #8
   18c3a:	4318      	orrs	r0, r3
   18c3c:	f002 ffae 	bl	1bb9c <__aeabi_i2f>
   18c40:	4913      	ldr	r1, [pc, #76]	; (18c90 <tcs34725_calculate_lux+0x60>)
   18c42:	f002 fc95 	bl	1b570 <__aeabi_fmul>
   18c46:	4a13      	ldr	r2, [pc, #76]	; (18c94 <tcs34725_calculate_lux+0x64>)
   18c48:	1c04      	adds	r4, r0, #0
   18c4a:	7853      	ldrb	r3, [r2, #1]
   18c4c:	7810      	ldrb	r0, [r2, #0]
   18c4e:	021b      	lsls	r3, r3, #8
   18c50:	4318      	orrs	r0, r3
   18c52:	f002 ffa3 	bl	1bb9c <__aeabi_i2f>
   18c56:	4910      	ldr	r1, [pc, #64]	; (18c98 <tcs34725_calculate_lux+0x68>)
   18c58:	f002 fc8a 	bl	1b570 <__aeabi_fmul>
   18c5c:	1c01      	adds	r1, r0, #0
   18c5e:	1c20      	adds	r0, r4, #0
   18c60:	f002 f914 	bl	1ae8c <__aeabi_fadd>
   18c64:	4a0d      	ldr	r2, [pc, #52]	; (18c9c <tcs34725_calculate_lux+0x6c>)
   18c66:	1c04      	adds	r4, r0, #0
   18c68:	7853      	ldrb	r3, [r2, #1]
   18c6a:	7810      	ldrb	r0, [r2, #0]
   18c6c:	021b      	lsls	r3, r3, #8
   18c6e:	4318      	orrs	r0, r3
   18c70:	f002 ff94 	bl	1bb9c <__aeabi_i2f>
   18c74:	490a      	ldr	r1, [pc, #40]	; (18ca0 <tcs34725_calculate_lux+0x70>)
   18c76:	f002 fc7b 	bl	1b570 <__aeabi_fmul>
   18c7a:	1c01      	adds	r1, r0, #0
   18c7c:	1c20      	adds	r0, r4, #0
   18c7e:	f002 f905 	bl	1ae8c <__aeabi_fadd>
   18c82:	f002 f8eb 	bl	1ae5c <__aeabi_f2uiz>
   18c86:	b280      	uxth	r0, r0
   18c88:	bd10      	pop	{r4, pc}
   18c8a:	46c0      	nop			; (mov r8, r8)
   18c8c:	2500      	movs	r5, #0
   18c8e:	2000      	movs	r0, #0
   18c90:	39d6      	subs	r1, #214	; 0xd6
   18c92:	bea6      	bkpt	0x00a6
   18c94:	24e8      	movs	r4, #232	; 0xe8
   18c96:	2000      	movs	r0, #0
   18c98:	0807      	lsrs	r7, r0, #32
   18c9a:	3fca      	subs	r7, #202	; 0xca
   18c9c:	24e4      	movs	r4, #228	; 0xe4
   18c9e:	2000      	movs	r0, #0
   18ca0:	5e74      	ldrsh	r4, [r6, r1]
   18ca2:	bf3b      	ittet	cc

00018ca4 <rtc1_stop>:
   18ca4:	2280      	movcc	r2, #128	; 0x80
   18ca6:	4b19      	ldrcc	r3, [pc, #100]	; (18d0c <rtc1_stop+0x68>)
   18ca8:	0292      	lslcs	r2, r2, #10
   18caa:	67da      	strcc	r2, [r3, #124]	; 0x7c
   18cac:	21d2      	movs	r1, #210	; 0xd2
   18cae:	2280      	movs	r2, #128	; 0x80
   18cb0:	4b17      	ldr	r3, [pc, #92]	; (18d10 <rtc1_stop+0x6c>)
   18cb2:	0252      	lsls	r2, r2, #9
   18cb4:	0089      	lsls	r1, r1, #2
   18cb6:	505a      	str	r2, [r3, r1]
   18cb8:	3940      	subs	r1, #64	; 0x40
   18cba:	505a      	str	r2, [r3, r1]
   18cbc:	2101      	movs	r1, #1
   18cbe:	222f      	movs	r2, #47	; 0x2f
   18cc0:	6059      	str	r1, [r3, #4]
   18cc2:	0010      	movs	r0, r2
   18cc4:	3801      	subs	r0, #1
   18cc6:	46c0      	nop			; (mov r8, r8)
   18cc8:	46c0      	nop			; (mov r8, r8)
   18cca:	46c0      	nop			; (mov r8, r8)
   18ccc:	46c0      	nop			; (mov r8, r8)
   18cce:	46c0      	nop			; (mov r8, r8)
   18cd0:	46c0      	nop			; (mov r8, r8)
   18cd2:	46c0      	nop			; (mov r8, r8)
   18cd4:	46c0      	nop			; (mov r8, r8)
   18cd6:	46c0      	nop			; (mov r8, r8)
   18cd8:	46c0      	nop			; (mov r8, r8)
   18cda:	46c0      	nop			; (mov r8, r8)
   18cdc:	46c0      	nop			; (mov r8, r8)
   18cde:	d1f1      	bne.n	18cc4 <rtc1_stop+0x20>
   18ce0:	6099      	str	r1, [r3, #8]
   18ce2:	2300      	movs	r3, #0
   18ce4:	490b      	ldr	r1, [pc, #44]	; (18d14 <rtc1_stop+0x70>)
   18ce6:	0010      	movs	r0, r2
   18ce8:	600b      	str	r3, [r1, #0]
   18cea:	3801      	subs	r0, #1
   18cec:	46c0      	nop			; (mov r8, r8)
   18cee:	46c0      	nop			; (mov r8, r8)
   18cf0:	46c0      	nop			; (mov r8, r8)
   18cf2:	46c0      	nop			; (mov r8, r8)
   18cf4:	46c0      	nop			; (mov r8, r8)
   18cf6:	46c0      	nop			; (mov r8, r8)
   18cf8:	46c0      	nop			; (mov r8, r8)
   18cfa:	46c0      	nop			; (mov r8, r8)
   18cfc:	46c0      	nop			; (mov r8, r8)
   18cfe:	46c0      	nop			; (mov r8, r8)
   18d00:	46c0      	nop			; (mov r8, r8)
   18d02:	46c0      	nop			; (mov r8, r8)
   18d04:	d1f1      	bne.n	18cea <rtc1_stop+0x46>
   18d06:	4a04      	ldr	r2, [pc, #16]	; (18d18 <rtc1_stop+0x74>)
   18d08:	7013      	strb	r3, [r2, #0]
   18d0a:	4770      	bx	lr
   18d0c:	e104      	b.n	18f18 <SWI0_IRQHandler+0xb4>
   18d0e:	e000      	b.n	18d12 <rtc1_stop+0x6e>
   18d10:	1000      	asrs	r0, r0, #32
   18d12:	4001      	ands	r1, r0
   18d14:	2554      	movs	r5, #84	; 0x54
   18d16:	2000      	movs	r0, #0
   18d18:	2545      	movs	r5, #69	; 0x45
   18d1a:	2000      	movs	r0, #0

00018d1c <user_op_alloc>:
   18d1c:	b510      	push	{r4, lr}
   18d1e:	7843      	ldrb	r3, [r0, #1]
   18d20:	0002      	movs	r2, r0
   18d22:	3301      	adds	r3, #1
   18d24:	7880      	ldrb	r0, [r0, #2]
   18d26:	b2db      	uxtb	r3, r3
   18d28:	4298      	cmp	r0, r3
   18d2a:	d100      	bne.n	18d2e <user_op_alloc+0x12>
   18d2c:	2300      	movs	r3, #0
   18d2e:	7814      	ldrb	r4, [r2, #0]
   18d30:	2000      	movs	r0, #0
   18d32:	429c      	cmp	r4, r3
   18d34:	d005      	beq.n	18d42 <user_op_alloc+0x26>
   18d36:	700b      	strb	r3, [r1, #0]
   18d38:	7853      	ldrb	r3, [r2, #1]
   18d3a:	3018      	adds	r0, #24
   18d3c:	4343      	muls	r3, r0
   18d3e:	6850      	ldr	r0, [r2, #4]
   18d40:	18c0      	adds	r0, r0, r3
   18d42:	bd10      	pop	{r4, pc}

00018d44 <user_id_get>:
   18d44:	4b14      	ldr	r3, [pc, #80]	; (18d98 <user_id_get+0x54>)
   18d46:	2002      	movs	r0, #2
   18d48:	685b      	ldr	r3, [r3, #4]
   18d4a:	05db      	lsls	r3, r3, #23
   18d4c:	0ddb      	lsrs	r3, r3, #23
   18d4e:	d01c      	beq.n	18d8a <user_id_get+0x46>
   18d50:	3b10      	subs	r3, #16
   18d52:	b25a      	sxtb	r2, r3
   18d54:	b2db      	uxtb	r3, r3
   18d56:	0019      	movs	r1, r3
   18d58:	3001      	adds	r0, #1
   18d5a:	4001      	ands	r1, r0
   18d5c:	4081      	lsls	r1, r0
   18d5e:	2a00      	cmp	r2, #0
   18d60:	da14      	bge.n	18d8c <user_id_get+0x48>
   18d62:	220f      	movs	r2, #15
   18d64:	4013      	ands	r3, r2
   18d66:	3b08      	subs	r3, #8
   18d68:	089b      	lsrs	r3, r3, #2
   18d6a:	4a0c      	ldr	r2, [pc, #48]	; (18d9c <user_id_get+0x58>)
   18d6c:	009b      	lsls	r3, r3, #2
   18d6e:	189b      	adds	r3, r3, r2
   18d70:	685b      	ldr	r3, [r3, #4]
   18d72:	40cb      	lsrs	r3, r1
   18d74:	099b      	lsrs	r3, r3, #6
   18d76:	4003      	ands	r3, r0
   18d78:	b2db      	uxtb	r3, r3
   18d7a:	2000      	movs	r0, #0
   18d7c:	2b01      	cmp	r3, #1
   18d7e:	d004      	beq.n	18d8a <user_id_get+0x46>
   18d80:	3b03      	subs	r3, #3
   18d82:	0018      	movs	r0, r3
   18d84:	1e43      	subs	r3, r0, #1
   18d86:	4198      	sbcs	r0, r3
   18d88:	3001      	adds	r0, #1
   18d8a:	4770      	bx	lr
   18d8c:	0892      	lsrs	r2, r2, #2
   18d8e:	32c0      	adds	r2, #192	; 0xc0
   18d90:	4b03      	ldr	r3, [pc, #12]	; (18da0 <user_id_get+0x5c>)
   18d92:	0092      	lsls	r2, r2, #2
   18d94:	58d3      	ldr	r3, [r2, r3]
   18d96:	e7ec      	b.n	18d72 <user_id_get+0x2e>
   18d98:	ed00 e000 	stc	0, cr14, [r0, #-0]
   18d9c:	ed18 e000 	ldc	0, cr14, [r8, #-0]
   18da0:	e100      	b.n	18fa4 <SWI0_IRQHandler+0x140>
   18da2:	e000      	b.n	18da6 <RTC1_IRQHandler+0x2>

00018da4 <RTC1_IRQHandler>:
   18da4:	b5f8      	push	{r3, r4, r5, r6, r7, lr}
   18da6:	2400      	movs	r4, #0
   18da8:	4b24      	ldr	r3, [pc, #144]	; (18e3c <RTC1_IRQHandler+0x98>)
   18daa:	645c      	str	r4, [r3, #68]	; 0x44
   18dac:	649c      	str	r4, [r3, #72]	; 0x48
   18dae:	64dc      	str	r4, [r3, #76]	; 0x4c
   18db0:	651c      	str	r4, [r3, #80]	; 0x50
   18db2:	605c      	str	r4, [r3, #4]
   18db4:	609c      	str	r4, [r3, #8]
   18db6:	4b22      	ldr	r3, [pc, #136]	; (18e40 <RTC1_IRQHandler+0x9c>)
   18db8:	6819      	ldr	r1, [r3, #0]
   18dba:	42a1      	cmp	r1, r4
   18dbc:	d035      	beq.n	18e2a <RTC1_IRQHandler+0x86>
   18dbe:	4b21      	ldr	r3, [pc, #132]	; (18e44 <RTC1_IRQHandler+0xa0>)
   18dc0:	4a21      	ldr	r2, [pc, #132]	; (18e48 <RTC1_IRQHandler+0xa4>)
   18dc2:	58d5      	ldr	r5, [r2, r3]
   18dc4:	4b21      	ldr	r3, [pc, #132]	; (18e4c <RTC1_IRQHandler+0xa8>)
   18dc6:	681b      	ldr	r3, [r3, #0]
   18dc8:	1aed      	subs	r5, r5, r3
   18dca:	022d      	lsls	r5, r5, #8
   18dcc:	0a2d      	lsrs	r5, r5, #8
   18dce:	680b      	ldr	r3, [r1, #0]
   18dd0:	42ab      	cmp	r3, r5
   18dd2:	d817      	bhi.n	18e04 <RTC1_IRQHandler+0x60>
   18dd4:	1aed      	subs	r5, r5, r3
   18dd6:	18e4      	adds	r4, r4, r3
   18dd8:	7c0b      	ldrb	r3, [r1, #16]
   18dda:	69cf      	ldr	r7, [r1, #28]
   18ddc:	2b00      	cmp	r3, #0
   18dde:	d00f      	beq.n	18e00 <RTC1_IRQHandler+0x5c>
   18de0:	2600      	movs	r6, #0
   18de2:	4b1b      	ldr	r3, [pc, #108]	; (18e50 <RTC1_IRQHandler+0xac>)
   18de4:	740e      	strb	r6, [r1, #16]
   18de6:	681a      	ldr	r2, [r3, #0]
   18de8:	694b      	ldr	r3, [r1, #20]
   18dea:	6989      	ldr	r1, [r1, #24]
   18dec:	42b2      	cmp	r2, r6
   18dee:	d01f      	beq.n	18e30 <RTC1_IRQHandler+0x8c>
   18df0:	0018      	movs	r0, r3
   18df2:	4790      	blx	r2
   18df4:	42b0      	cmp	r0, r6
   18df6:	d003      	beq.n	18e00 <RTC1_IRQHandler+0x5c>
   18df8:	0032      	movs	r2, r6
   18dfa:	0031      	movs	r1, r6
   18dfc:	f001 fd1e 	bl	1a83c <app_error_handler>
   18e00:	2f00      	cmp	r7, #0
   18e02:	d113      	bne.n	18e2c <RTC1_IRQHandler+0x88>
   18e04:	4b13      	ldr	r3, [pc, #76]	; (18e54 <RTC1_IRQHandler+0xb0>)
   18e06:	4a14      	ldr	r2, [pc, #80]	; (18e58 <RTC1_IRQHandler+0xb4>)
   18e08:	7819      	ldrb	r1, [r3, #0]
   18e0a:	7813      	ldrb	r3, [r2, #0]
   18e0c:	428b      	cmp	r3, r1
   18e0e:	d104      	bne.n	18e1a <RTC1_IRQHandler+0x76>
   18e10:	3301      	adds	r3, #1
   18e12:	b2db      	uxtb	r3, r3
   18e14:	2b02      	cmp	r3, #2
   18e16:	d00e      	beq.n	18e36 <RTC1_IRQHandler+0x92>
   18e18:	7013      	strb	r3, [r2, #0]
   18e1a:	7813      	ldrb	r3, [r2, #0]
   18e1c:	4a0f      	ldr	r2, [pc, #60]	; (18e5c <RTC1_IRQHandler+0xb8>)
   18e1e:	009b      	lsls	r3, r3, #2
   18e20:	509c      	str	r4, [r3, r2]
   18e22:	2280      	movs	r2, #128	; 0x80
   18e24:	4b0e      	ldr	r3, [pc, #56]	; (18e60 <RTC1_IRQHandler+0xbc>)
   18e26:	0352      	lsls	r2, r2, #13
   18e28:	605a      	str	r2, [r3, #4]
   18e2a:	bdf8      	pop	{r3, r4, r5, r6, r7, pc}
   18e2c:	0039      	movs	r1, r7
   18e2e:	e7ce      	b.n	18dce <RTC1_IRQHandler+0x2a>
   18e30:	0008      	movs	r0, r1
   18e32:	4798      	blx	r3
   18e34:	e7e4      	b.n	18e00 <RTC1_IRQHandler+0x5c>
   18e36:	2300      	movs	r3, #0
   18e38:	e7ee      	b.n	18e18 <RTC1_IRQHandler+0x74>
   18e3a:	46c0      	nop			; (mov r8, r8)
   18e3c:	10fc      	asrs	r4, r7, #3
   18e3e:	4001      	ands	r1, r0
   18e40:	255c      	movs	r5, #92	; 0x5c
   18e42:	2000      	movs	r0, #0
   18e44:	0504      	lsls	r4, r0, #20
   18e46:	0000      	movs	r0, r0
   18e48:	1000      	asrs	r0, r0, #32
   18e4a:	4001      	ands	r1, r0
   18e4c:	2554      	movs	r5, #84	; 0x54
   18e4e:	2000      	movs	r0, #0
   18e50:	2540      	movs	r5, #64	; 0x40
   18e52:	2000      	movs	r0, #0
   18e54:	2550      	movs	r5, #80	; 0x50
   18e56:	2000      	movs	r0, #0
   18e58:	2551      	movs	r5, #81	; 0x51
   18e5a:	2000      	movs	r0, #0
   18e5c:	2548      	movs	r5, #72	; 0x48
   18e5e:	2000      	movs	r0, #0
   18e60:	e1fc      	b.n	1925c <app_timer_init+0x4c>
   18e62:	e000      	b.n	18e66 <SWI0_IRQHandler+0x2>

00018e64 <SWI0_IRQHandler>:
   18e64:	b5f0      	push	{r4, r5, r6, r7, lr}
   18e66:	4aad      	ldr	r2, [pc, #692]	; (1911c <SWI0_IRQHandler+0x2b8>)
   18e68:	49ad      	ldr	r1, [pc, #692]	; (19120 <SWI0_IRQHandler+0x2bc>)
   18e6a:	6813      	ldr	r3, [r2, #0]
   18e6c:	48ad      	ldr	r0, [pc, #692]	; (19124 <SWI0_IRQHandler+0x2c0>)
   18e6e:	b08d      	sub	sp, #52	; 0x34
   18e70:	9305      	str	r3, [sp, #20]
   18e72:	7804      	ldrb	r4, [r0, #0]
   18e74:	780b      	ldrb	r3, [r1, #0]
   18e76:	2700      	movs	r7, #0
   18e78:	429c      	cmp	r4, r3
   18e7a:	d100      	bne.n	18e7e <SWI0_IRQHandler+0x1a>
   18e7c:	e0c7      	b.n	1900e <SWI0_IRQHandler+0x1aa>
   18e7e:	3301      	adds	r3, #1
   18e80:	b2db      	uxtb	r3, r3
   18e82:	2b02      	cmp	r3, #2
   18e84:	d100      	bne.n	18e88 <SWI0_IRQHandler+0x24>
   18e86:	e0c0      	b.n	1900a <SWI0_IRQHandler+0x1a6>
   18e88:	700b      	strb	r3, [r1, #0]
   18e8a:	780b      	ldrb	r3, [r1, #0]
   18e8c:	49a6      	ldr	r1, [pc, #664]	; (19128 <SWI0_IRQHandler+0x2c4>)
   18e8e:	009b      	lsls	r3, r3, #2
   18e90:	585f      	ldr	r7, [r3, r1]
   18e92:	9b05      	ldr	r3, [sp, #20]
   18e94:	19db      	adds	r3, r3, r7
   18e96:	021b      	lsls	r3, r3, #8
   18e98:	0a1b      	lsrs	r3, r3, #8
   18e9a:	6013      	str	r3, [r2, #0]
   18e9c:	2301      	movs	r3, #1
   18e9e:	9300      	str	r3, [sp, #0]
   18ea0:	2500      	movs	r5, #0
   18ea2:	2001      	movs	r0, #1
   18ea4:	4ba1      	ldr	r3, [pc, #644]	; (1912c <SWI0_IRQHandler+0x2c8>)
   18ea6:	9509      	str	r5, [sp, #36]	; 0x24
   18ea8:	681b      	ldr	r3, [r3, #0]
   18eaa:	9306      	str	r3, [sp, #24]
   18eac:	4ba0      	ldr	r3, [pc, #640]	; (19130 <SWI0_IRQHandler+0x2cc>)
   18eae:	781b      	ldrb	r3, [r3, #0]
   18eb0:	9301      	str	r3, [sp, #4]
   18eb2:	4ba0      	ldr	r3, [pc, #640]	; (19134 <SWI0_IRQHandler+0x2d0>)
   18eb4:	9a01      	ldr	r2, [sp, #4]
   18eb6:	681b      	ldr	r3, [r3, #0]
   18eb8:	9202      	str	r2, [sp, #8]
   18eba:	9307      	str	r3, [sp, #28]
   18ebc:	4b97      	ldr	r3, [pc, #604]	; (1911c <SWI0_IRQHandler+0x2b8>)
   18ebe:	681b      	ldr	r3, [r3, #0]
   18ec0:	9308      	str	r3, [sp, #32]
   18ec2:	4b9d      	ldr	r3, [pc, #628]	; (19138 <SWI0_IRQHandler+0x2d4>)
   18ec4:	781b      	ldrb	r3, [r3, #0]
   18ec6:	930a      	str	r3, [sp, #40]	; 0x28
   18ec8:	9b06      	ldr	r3, [sp, #24]
   18eca:	9a02      	ldr	r2, [sp, #8]
   18ecc:	3a01      	subs	r2, #1
   18ece:	b2d2      	uxtb	r2, r2
   18ed0:	9202      	str	r2, [sp, #8]
   18ed2:	2aff      	cmp	r2, #255	; 0xff
   18ed4:	d000      	beq.n	18ed8 <SWI0_IRQHandler+0x74>
   18ed6:	e09c      	b.n	19012 <SWI0_IRQHandler+0x1ae>
   18ed8:	9a09      	ldr	r2, [sp, #36]	; 0x24
   18eda:	2a00      	cmp	r2, #0
   18edc:	d005      	beq.n	18eea <SWI0_IRQHandler+0x86>
   18ede:	4a96      	ldr	r2, [pc, #600]	; (19138 <SWI0_IRQHandler+0x2d4>)
   18ee0:	990a      	ldr	r1, [sp, #40]	; 0x28
   18ee2:	7011      	strb	r1, [r2, #0]
   18ee4:	4a8d      	ldr	r2, [pc, #564]	; (1911c <SWI0_IRQHandler+0x2b8>)
   18ee6:	9908      	ldr	r1, [sp, #32]
   18ee8:	6011      	str	r1, [r2, #0]
   18eea:	4a90      	ldr	r2, [pc, #576]	; (1912c <SWI0_IRQHandler+0x2c8>)
   18eec:	2d00      	cmp	r5, #0
   18eee:	d000      	beq.n	18ef2 <SWI0_IRQHandler+0x8e>
   18ef0:	6013      	str	r3, [r2, #0]
   18ef2:	6813      	ldr	r3, [r2, #0]
   18ef4:	9a00      	ldr	r2, [sp, #0]
   18ef6:	2a00      	cmp	r2, #0
   18ef8:	d000      	beq.n	18efc <SWI0_IRQHandler+0x98>
   18efa:	e0df      	b.n	190bc <SWI0_IRQHandler+0x258>
   18efc:	9a06      	ldr	r2, [sp, #24]
   18efe:	2500      	movs	r5, #0
   18f00:	1ad3      	subs	r3, r2, r3
   18f02:	1e5a      	subs	r2, r3, #1
   18f04:	4193      	sbcs	r3, r2
   18f06:	b2db      	uxtb	r3, r3
   18f08:	9300      	str	r3, [sp, #0]
   18f0a:	4b88      	ldr	r3, [pc, #544]	; (1912c <SWI0_IRQHandler+0x2c8>)
   18f0c:	681b      	ldr	r3, [r3, #0]
   18f0e:	9304      	str	r3, [sp, #16]
   18f10:	4b89      	ldr	r3, [pc, #548]	; (19138 <SWI0_IRQHandler+0x2d4>)
   18f12:	9a04      	ldr	r2, [sp, #16]
   18f14:	781b      	ldrb	r3, [r3, #0]
   18f16:	9306      	str	r3, [sp, #24]
   18f18:	4b80      	ldr	r3, [pc, #512]	; (1911c <SWI0_IRQHandler+0x2b8>)
   18f1a:	681b      	ldr	r3, [r3, #0]
   18f1c:	9302      	str	r3, [sp, #8]
   18f1e:	2300      	movs	r3, #0
   18f20:	9303      	str	r3, [sp, #12]
   18f22:	9b01      	ldr	r3, [sp, #4]
   18f24:	3b01      	subs	r3, #1
   18f26:	b2db      	uxtb	r3, r3
   18f28:	9301      	str	r3, [sp, #4]
   18f2a:	2bff      	cmp	r3, #255	; 0xff
   18f2c:	d000      	beq.n	18f30 <SWI0_IRQHandler+0xcc>
   18f2e:	e0ca      	b.n	190c6 <SWI0_IRQHandler+0x262>
   18f30:	9903      	ldr	r1, [sp, #12]
   18f32:	4b7e      	ldr	r3, [pc, #504]	; (1912c <SWI0_IRQHandler+0x2c8>)
   18f34:	2900      	cmp	r1, #0
   18f36:	d000      	beq.n	18f3a <SWI0_IRQHandler+0xd6>
   18f38:	601a      	str	r2, [r3, #0]
   18f3a:	681b      	ldr	r3, [r3, #0]
   18f3c:	9a04      	ldr	r2, [sp, #16]
   18f3e:	429a      	cmp	r2, r3
   18f40:	d103      	bne.n	18f4a <SWI0_IRQHandler+0xe6>
   18f42:	9a00      	ldr	r2, [sp, #0]
   18f44:	2a00      	cmp	r2, #0
   18f46:	d100      	bne.n	18f4a <SWI0_IRQHandler+0xe6>
   18f48:	e05a      	b.n	19000 <SWI0_IRQHandler+0x19c>
   18f4a:	2b00      	cmp	r3, #0
   18f4c:	d100      	bne.n	18f50 <SWI0_IRQHandler+0xec>
   18f4e:	e140      	b.n	191d2 <SWI0_IRQHandler+0x36e>
   18f50:	4a7a      	ldr	r2, [pc, #488]	; (1913c <SWI0_IRQHandler+0x2d8>)
   18f52:	4c7b      	ldr	r4, [pc, #492]	; (19140 <SWI0_IRQHandler+0x2dc>)
   18f54:	9902      	ldr	r1, [sp, #8]
   18f56:	5915      	ldr	r5, [r2, r4]
   18f58:	4e7a      	ldr	r6, [pc, #488]	; (19144 <SWI0_IRQHandler+0x2e0>)
   18f5a:	1a69      	subs	r1, r5, r1
   18f5c:	681b      	ldr	r3, [r3, #0]
   18f5e:	0209      	lsls	r1, r1, #8
   18f60:	7830      	ldrb	r0, [r6, #0]
   18f62:	0a09      	lsrs	r1, r1, #8
   18f64:	9300      	str	r3, [sp, #0]
   18f66:	3103      	adds	r1, #3
   18f68:	2800      	cmp	r0, #0
   18f6a:	d11f      	bne.n	18fac <SWI0_IRQHandler+0x148>
   18f6c:	2080      	movs	r0, #128	; 0x80
   18f6e:	27d1      	movs	r7, #209	; 0xd1
   18f70:	0240      	lsls	r0, r0, #9
   18f72:	00bf      	lsls	r7, r7, #2
   18f74:	51d0      	str	r0, [r2, r7]
   18f76:	3f40      	subs	r7, #64	; 0x40
   18f78:	51d0      	str	r0, [r2, r7]
   18f7a:	23c0      	movs	r3, #192	; 0xc0
   18f7c:	2780      	movs	r7, #128	; 0x80
   18f7e:	4872      	ldr	r0, [pc, #456]	; (19148 <SWI0_IRQHandler+0x2e4>)
   18f80:	02bf      	lsls	r7, r7, #10
   18f82:	005b      	lsls	r3, r3, #1
   18f84:	50c7      	str	r7, [r0, r3]
   18f86:	6007      	str	r7, [r0, #0]
   18f88:	2701      	movs	r7, #1
   18f8a:	202f      	movs	r0, #47	; 0x2f
   18f8c:	6017      	str	r7, [r2, #0]
   18f8e:	3801      	subs	r0, #1
   18f90:	46c0      	nop			; (mov r8, r8)
   18f92:	46c0      	nop			; (mov r8, r8)
   18f94:	46c0      	nop			; (mov r8, r8)
   18f96:	46c0      	nop			; (mov r8, r8)
   18f98:	46c0      	nop			; (mov r8, r8)
   18f9a:	46c0      	nop			; (mov r8, r8)
   18f9c:	46c0      	nop			; (mov r8, r8)
   18f9e:	46c0      	nop			; (mov r8, r8)
   18fa0:	46c0      	nop			; (mov r8, r8)
   18fa2:	46c0      	nop			; (mov r8, r8)
   18fa4:	46c0      	nop			; (mov r8, r8)
   18fa6:	46c0      	nop			; (mov r8, r8)
   18fa8:	d1f1      	bne.n	18f8e <SWI0_IRQHandler+0x12a>
   18faa:	7037      	strb	r7, [r6, #0]
   18fac:	9b00      	ldr	r3, [sp, #0]
   18fae:	428b      	cmp	r3, r1
   18fb0:	d200      	bcs.n	18fb4 <SWI0_IRQHandler+0x150>
   18fb2:	000b      	movs	r3, r1
   18fb4:	20a8      	movs	r0, #168	; 0xa8
   18fb6:	9902      	ldr	r1, [sp, #8]
   18fb8:	00c0      	lsls	r0, r0, #3
   18fba:	185b      	adds	r3, r3, r1
   18fbc:	021b      	lsls	r3, r3, #8
   18fbe:	0a1b      	lsrs	r3, r3, #8
   18fc0:	5013      	str	r3, [r2, r0]
   18fc2:	5911      	ldr	r1, [r2, r4]
   18fc4:	1b49      	subs	r1, r1, r5
   18fc6:	0209      	lsls	r1, r1, #8
   18fc8:	0a09      	lsrs	r1, r1, #8
   18fca:	1b5d      	subs	r5, r3, r5
   18fcc:	022d      	lsls	r5, r5, #8
   18fce:	3103      	adds	r1, #3
   18fd0:	0a2d      	lsrs	r5, r5, #8
   18fd2:	42a9      	cmp	r1, r5
   18fd4:	d914      	bls.n	19000 <SWI0_IRQHandler+0x19c>
   18fd6:	5913      	ldr	r3, [r2, r4]
   18fd8:	5013      	str	r3, [r2, r0]
   18fda:	202f      	movs	r0, #47	; 0x2f
   18fdc:	3801      	subs	r0, #1
   18fde:	46c0      	nop			; (mov r8, r8)
   18fe0:	46c0      	nop			; (mov r8, r8)
   18fe2:	46c0      	nop			; (mov r8, r8)
   18fe4:	46c0      	nop			; (mov r8, r8)
   18fe6:	46c0      	nop			; (mov r8, r8)
   18fe8:	46c0      	nop			; (mov r8, r8)
   18fea:	46c0      	nop			; (mov r8, r8)
   18fec:	46c0      	nop			; (mov r8, r8)
   18fee:	46c0      	nop			; (mov r8, r8)
   18ff0:	46c0      	nop			; (mov r8, r8)
   18ff2:	46c0      	nop			; (mov r8, r8)
   18ff4:	46c0      	nop			; (mov r8, r8)
   18ff6:	d1f1      	bne.n	18fdc <SWI0_IRQHandler+0x178>
   18ff8:	2280      	movs	r2, #128	; 0x80
   18ffa:	4b54      	ldr	r3, [pc, #336]	; (1914c <SWI0_IRQHandler+0x2e8>)
   18ffc:	0292      	lsls	r2, r2, #10
   18ffe:	605a      	str	r2, [r3, #4]
   19000:	2200      	movs	r2, #0
   19002:	4b4d      	ldr	r3, [pc, #308]	; (19138 <SWI0_IRQHandler+0x2d4>)
   19004:	701a      	strb	r2, [r3, #0]
   19006:	b00d      	add	sp, #52	; 0x34
   19008:	bdf0      	pop	{r4, r5, r6, r7, pc}
   1900a:	700f      	strb	r7, [r1, #0]
   1900c:	e73d      	b.n	18e8a <SWI0_IRQHandler+0x26>
   1900e:	9700      	str	r7, [sp, #0]
   19010:	e746      	b.n	18ea0 <SWI0_IRQHandler+0x3c>
   19012:	9a02      	ldr	r2, [sp, #8]
   19014:	00d1      	lsls	r1, r2, #3
   19016:	9a07      	ldr	r2, [sp, #28]
   19018:	1852      	adds	r2, r2, r1
   1901a:	9203      	str	r2, [sp, #12]
   1901c:	9903      	ldr	r1, [sp, #12]
   1901e:	7812      	ldrb	r2, [r2, #0]
   19020:	784c      	ldrb	r4, [r1, #1]
   19022:	940b      	str	r4, [sp, #44]	; 0x2c
   19024:	990b      	ldr	r1, [sp, #44]	; 0x2c
   19026:	428a      	cmp	r2, r1
   19028:	d100      	bne.n	1902c <SWI0_IRQHandler+0x1c8>
   1902a:	e74e      	b.n	18eca <SWI0_IRQHandler+0x66>
   1902c:	2418      	movs	r4, #24
   1902e:	9903      	ldr	r1, [sp, #12]
   19030:	4354      	muls	r4, r2
   19032:	684e      	ldr	r6, [r1, #4]
   19034:	3201      	adds	r2, #1
   19036:	1934      	adds	r4, r6, r4
   19038:	788e      	ldrb	r6, [r1, #2]
   1903a:	b2d2      	uxtb	r2, r2
   1903c:	4296      	cmp	r6, r2
   1903e:	d100      	bne.n	19042 <SWI0_IRQHandler+0x1de>
   19040:	2200      	movs	r2, #0
   19042:	7826      	ldrb	r6, [r4, #0]
   19044:	2e02      	cmp	r6, #2
   19046:	d008      	beq.n	1905a <SWI0_IRQHandler+0x1f6>
   19048:	2e03      	cmp	r6, #3
   1904a:	d1eb      	bne.n	19024 <SWI0_IRQHandler+0x1c0>
   1904c:	2b00      	cmp	r3, #0
   1904e:	d0e9      	beq.n	19024 <SWI0_IRQHandler+0x1c0>
   19050:	2100      	movs	r1, #0
   19052:	0005      	movs	r5, r0
   19054:	7419      	strb	r1, [r3, #16]
   19056:	69db      	ldr	r3, [r3, #28]
   19058:	e7f8      	b.n	1904c <SWI0_IRQHandler+0x1e8>
   1905a:	001e      	movs	r6, r3
   1905c:	469c      	mov	ip, r3
   1905e:	6864      	ldr	r4, [r4, #4]
   19060:	9404      	str	r4, [sp, #16]
   19062:	2e00      	cmp	r6, #0
   19064:	d0de      	beq.n	19024 <SWI0_IRQHandler+0x1c0>
   19066:	9904      	ldr	r1, [sp, #16]
   19068:	69f4      	ldr	r4, [r6, #28]
   1906a:	42b1      	cmp	r1, r6
   1906c:	d100      	bne.n	19070 <SWI0_IRQHandler+0x20c>
   1906e:	e0b3      	b.n	191d8 <SWI0_IRQHandler+0x374>
   19070:	46b4      	mov	ip, r6
   19072:	0026      	movs	r6, r4
   19074:	e7f5      	b.n	19062 <SWI0_IRQHandler+0x1fe>
   19076:	6818      	ldr	r0, [r3, #0]
   19078:	42b8      	cmp	r0, r7
   1907a:	d906      	bls.n	1908a <SWI0_IRQHandler+0x226>
   1907c:	2a00      	cmp	r2, #0
   1907e:	d001      	beq.n	19084 <SWI0_IRQHandler+0x220>
   19080:	4a2a      	ldr	r2, [pc, #168]	; (1912c <SWI0_IRQHandler+0x2c8>)
   19082:	6013      	str	r3, [r2, #0]
   19084:	1bc0      	subs	r0, r0, r7
   19086:	6018      	str	r0, [r3, #0]
   19088:	e73f      	b.n	18f0a <SWI0_IRQHandler+0xa6>
   1908a:	1a3f      	subs	r7, r7, r0
   1908c:	1809      	adds	r1, r1, r0
   1908e:	68d8      	ldr	r0, [r3, #12]
   19090:	601c      	str	r4, [r3, #0]
   19092:	69de      	ldr	r6, [r3, #28]
   19094:	2800      	cmp	r0, #0
   19096:	d007      	beq.n	190a8 <SWI0_IRQHandler+0x244>
   19098:	61dd      	str	r5, [r3, #28]
   1909a:	001d      	movs	r5, r3
   1909c:	9a05      	ldr	r2, [sp, #20]
   1909e:	6098      	str	r0, [r3, #8]
   190a0:	1852      	adds	r2, r2, r1
   190a2:	0212      	lsls	r2, r2, #8
   190a4:	0a12      	lsrs	r2, r2, #8
   190a6:	605a      	str	r2, [r3, #4]
   190a8:	0033      	movs	r3, r6
   190aa:	9a00      	ldr	r2, [sp, #0]
   190ac:	2b00      	cmp	r3, #0
   190ae:	d1e2      	bne.n	19076 <SWI0_IRQHandler+0x212>
   190b0:	2a00      	cmp	r2, #0
   190b2:	d100      	bne.n	190b6 <SWI0_IRQHandler+0x252>
   190b4:	e729      	b.n	18f0a <SWI0_IRQHandler+0xa6>
   190b6:	4a1d      	ldr	r2, [pc, #116]	; (1912c <SWI0_IRQHandler+0x2c8>)
   190b8:	6013      	str	r3, [r2, #0]
   190ba:	e726      	b.n	18f0a <SWI0_IRQHandler+0xa6>
   190bc:	2200      	movs	r2, #0
   190be:	0015      	movs	r5, r2
   190c0:	0011      	movs	r1, r2
   190c2:	0014      	movs	r4, r2
   190c4:	e7f2      	b.n	190ac <SWI0_IRQHandler+0x248>
   190c6:	2600      	movs	r6, #0
   190c8:	9b01      	ldr	r3, [sp, #4]
   190ca:	00d8      	lsls	r0, r3, #3
   190cc:	9b07      	ldr	r3, [sp, #28]
   190ce:	1818      	adds	r0, r3, r0
   190d0:	2d00      	cmp	r5, #0
   190d2:	d13d      	bne.n	19150 <SWI0_IRQHandler+0x2ec>
   190d4:	7844      	ldrb	r4, [r0, #1]
   190d6:	7803      	ldrb	r3, [r0, #0]
   190d8:	42a3      	cmp	r3, r4
   190da:	d100      	bne.n	190de <SWI0_IRQHandler+0x27a>
   190dc:	e721      	b.n	18f22 <SWI0_IRQHandler+0xbe>
   190de:	2118      	movs	r1, #24
   190e0:	4359      	muls	r1, r3
   190e2:	6847      	ldr	r7, [r0, #4]
   190e4:	3301      	adds	r3, #1
   190e6:	1879      	adds	r1, r7, r1
   190e8:	7887      	ldrb	r7, [r0, #2]
   190ea:	b2db      	uxtb	r3, r3
   190ec:	7003      	strb	r3, [r0, #0]
   190ee:	429f      	cmp	r7, r3
   190f0:	d100      	bne.n	190f4 <SWI0_IRQHandler+0x290>
   190f2:	7006      	strb	r6, [r0, #0]
   190f4:	780b      	ldrb	r3, [r1, #0]
   190f6:	2b01      	cmp	r3, #1
   190f8:	d1ed      	bne.n	190d6 <SWI0_IRQHandler+0x272>
   190fa:	684b      	ldr	r3, [r1, #4]
   190fc:	7c1f      	ldrb	r7, [r3, #16]
   190fe:	2f00      	cmp	r7, #0
   19100:	d1e9      	bne.n	190d6 <SWI0_IRQHandler+0x272>
   19102:	688c      	ldr	r4, [r1, #8]
   19104:	605c      	str	r4, [r3, #4]
   19106:	68cc      	ldr	r4, [r1, #12]
   19108:	609c      	str	r4, [r3, #8]
   1910a:	690c      	ldr	r4, [r1, #16]
   1910c:	6949      	ldr	r1, [r1, #20]
   1910e:	60dc      	str	r4, [r3, #12]
   19110:	6199      	str	r1, [r3, #24]
   19112:	9906      	ldr	r1, [sp, #24]
   19114:	2900      	cmp	r1, #0
   19116:	d01d      	beq.n	19154 <SWI0_IRQHandler+0x2f0>
   19118:	605f      	str	r7, [r3, #4]
   1911a:	e01b      	b.n	19154 <SWI0_IRQHandler+0x2f0>
   1911c:	2554      	movs	r5, #84	; 0x54
   1911e:	2000      	movs	r0, #0
   19120:	2550      	movs	r5, #80	; 0x50
   19122:	2000      	movs	r0, #0
   19124:	2551      	movs	r5, #81	; 0x51
   19126:	2000      	movs	r0, #0
   19128:	2548      	movs	r5, #72	; 0x48
   1912a:	2000      	movs	r0, #0
   1912c:	255c      	movs	r5, #92	; 0x5c
   1912e:	2000      	movs	r0, #0
   19130:	2558      	movs	r5, #88	; 0x58
   19132:	2000      	movs	r0, #0
   19134:	2560      	movs	r5, #96	; 0x60
   19136:	2000      	movs	r0, #0
   19138:	2544      	movs	r5, #68	; 0x44
   1913a:	2000      	movs	r0, #0
   1913c:	1000      	asrs	r0, r0, #32
   1913e:	4001      	ands	r1, r0
   19140:	0504      	lsls	r4, r0, #20
   19142:	0000      	movs	r0, r0
   19144:	2545      	movs	r5, #69	; 0x45
   19146:	2000      	movs	r0, #0
   19148:	e100      	b.n	1934c <app_timer_start+0x3c>
   1914a:	e000      	b.n	1914e <SWI0_IRQHandler+0x2ea>
   1914c:	e1fc      	b.n	19548 <adv_data_encode+0x5c>
   1914e:	e000      	b.n	19152 <SWI0_IRQHandler+0x2ee>
   19150:	002b      	movs	r3, r5
   19152:	69ed      	ldr	r5, [r5, #28]
   19154:	6859      	ldr	r1, [r3, #4]
   19156:	9c02      	ldr	r4, [sp, #8]
   19158:	9105      	str	r1, [sp, #20]
   1915a:	1b0c      	subs	r4, r1, r4
   1915c:	492a      	ldr	r1, [pc, #168]	; (19208 <SWI0_IRQHandler+0x3a4>)
   1915e:	0224      	lsls	r4, r4, #8
   19160:	0a24      	lsrs	r4, r4, #8
   19162:	689f      	ldr	r7, [r3, #8]
   19164:	428c      	cmp	r4, r1
   19166:	d812      	bhi.n	1918e <SWI0_IRQHandler+0x32a>
   19168:	19e4      	adds	r4, r4, r7
   1916a:	601c      	str	r4, [r3, #0]
   1916c:	2101      	movs	r1, #1
   1916e:	605e      	str	r6, [r3, #4]
   19170:	609e      	str	r6, [r3, #8]
   19172:	7419      	strb	r1, [r3, #16]
   19174:	61de      	str	r6, [r3, #28]
   19176:	2a00      	cmp	r2, #0
   19178:	d006      	beq.n	19188 <SWI0_IRQHandler+0x324>
   1917a:	681c      	ldr	r4, [r3, #0]
   1917c:	6811      	ldr	r1, [r2, #0]
   1917e:	428c      	cmp	r4, r1
   19180:	d824      	bhi.n	191cc <SWI0_IRQHandler+0x368>
   19182:	1b0c      	subs	r4, r1, r4
   19184:	6014      	str	r4, [r2, #0]
   19186:	61da      	str	r2, [r3, #28]
   19188:	2201      	movs	r2, #1
   1918a:	9203      	str	r2, [sp, #12]
   1918c:	e01c      	b.n	191c8 <SWI0_IRQHandler+0x364>
   1918e:	9902      	ldr	r1, [sp, #8]
   19190:	9c05      	ldr	r4, [sp, #20]
   19192:	1b09      	subs	r1, r1, r4
   19194:	0209      	lsls	r1, r1, #8
   19196:	0a09      	lsrs	r1, r1, #8
   19198:	42b9      	cmp	r1, r7
   1919a:	d202      	bcs.n	191a2 <SWI0_IRQHandler+0x33e>
   1919c:	1a7f      	subs	r7, r7, r1
   1919e:	601f      	str	r7, [r3, #0]
   191a0:	e7e4      	b.n	1916c <SWI0_IRQHandler+0x308>
   191a2:	601e      	str	r6, [r3, #0]
   191a4:	e7e2      	b.n	1916c <SWI0_IRQHandler+0x308>
   191a6:	1be4      	subs	r4, r4, r7
   191a8:	69cf      	ldr	r7, [r1, #28]
   191aa:	468c      	mov	ip, r1
   191ac:	2f00      	cmp	r7, #0
   191ae:	d007      	beq.n	191c0 <SWI0_IRQHandler+0x35c>
   191b0:	0039      	movs	r1, r7
   191b2:	680f      	ldr	r7, [r1, #0]
   191b4:	42a7      	cmp	r7, r4
   191b6:	d3f6      	bcc.n	191a6 <SWI0_IRQHandler+0x342>
   191b8:	1b3f      	subs	r7, r7, r4
   191ba:	600f      	str	r7, [r1, #0]
   191bc:	000f      	movs	r7, r1
   191be:	4661      	mov	r1, ip
   191c0:	601c      	str	r4, [r3, #0]
   191c2:	61df      	str	r7, [r3, #28]
   191c4:	61cb      	str	r3, [r1, #28]
   191c6:	0013      	movs	r3, r2
   191c8:	001a      	movs	r2, r3
   191ca:	e781      	b.n	190d0 <SWI0_IRQHandler+0x26c>
   191cc:	4694      	mov	ip, r2
   191ce:	0011      	movs	r1, r2
   191d0:	e7ef      	b.n	191b2 <SWI0_IRQHandler+0x34e>
   191d2:	f7ff fd67 	bl	18ca4 <rtc1_stop>
   191d6:	e713      	b.n	19000 <SWI0_IRQHandler+0x19c>
   191d8:	9904      	ldr	r1, [sp, #16]
   191da:	4561      	cmp	r1, ip
   191dc:	d109      	bne.n	191f2 <SWI0_IRQHandler+0x38e>
   191de:	69db      	ldr	r3, [r3, #28]
   191e0:	0005      	movs	r5, r0
   191e2:	2b00      	cmp	r3, #0
   191e4:	d105      	bne.n	191f2 <SWI0_IRQHandler+0x38e>
   191e6:	4d09      	ldr	r5, [pc, #36]	; (1920c <SWI0_IRQHandler+0x3a8>)
   191e8:	60a8      	str	r0, [r5, #8]
   191ea:	0005      	movs	r5, r0
   191ec:	9308      	str	r3, [sp, #32]
   191ee:	9009      	str	r0, [sp, #36]	; 0x24
   191f0:	900a      	str	r0, [sp, #40]	; 0x28
   191f2:	9904      	ldr	r1, [sp, #16]
   191f4:	680e      	ldr	r6, [r1, #0]
   191f6:	4661      	mov	r1, ip
   191f8:	61cc      	str	r4, [r1, #28]
   191fa:	2c00      	cmp	r4, #0
   191fc:	d100      	bne.n	19200 <SWI0_IRQHandler+0x39c>
   191fe:	e711      	b.n	19024 <SWI0_IRQHandler+0x1c0>
   19200:	6821      	ldr	r1, [r4, #0]
   19202:	198e      	adds	r6, r1, r6
   19204:	6026      	str	r6, [r4, #0]
   19206:	e70d      	b.n	19024 <SWI0_IRQHandler+0x1c0>
   19208:	fffe 007f 	vshr.u32	q8, <illegal reg q15.5>, #2
   1920c:	1000      	asrs	r0, r0, #32
   1920e:	4001      	ands	r1, r0

00019210 <app_timer_init>:
   19210:	b5f0      	push	{r4, r5, r6, r7, lr}
   19212:	2703      	movs	r7, #3
   19214:	0015      	movs	r5, r2
   19216:	b085      	sub	sp, #20
   19218:	9002      	str	r0, [sp, #8]
   1921a:	9101      	str	r1, [sp, #4]
   1921c:	9303      	str	r3, [sp, #12]
   1921e:	0014      	movs	r4, r2
   19220:	403d      	ands	r5, r7
   19222:	2007      	movs	r0, #7
   19224:	2d00      	cmp	r5, #0
   19226:	d103      	bne.n	19230 <app_timer_init+0x20>
   19228:	4e22      	ldr	r6, [pc, #136]	; (192b4 <app_timer_init+0xa4>)
   1922a:	2a00      	cmp	r2, #0
   1922c:	d102      	bne.n	19234 <app_timer_init+0x24>
   1922e:	6032      	str	r2, [r6, #0]
   19230:	b005      	add	sp, #20
   19232:	bdf0      	pop	{r4, r5, r6, r7, pc}
   19234:	f7ff fd36 	bl	18ca4 <rtc1_stop>
   19238:	4b1f      	ldr	r3, [pc, #124]	; (192b8 <app_timer_init+0xa8>)
   1923a:	9a03      	ldr	r2, [sp, #12]
   1923c:	9901      	ldr	r1, [sp, #4]
   1923e:	601a      	str	r2, [r3, #0]
   19240:	4b1e      	ldr	r3, [pc, #120]	; (192bc <app_timer_init+0xac>)
   19242:	2218      	movs	r2, #24
   19244:	701f      	strb	r7, [r3, #0]
   19246:	0023      	movs	r3, r4
   19248:	3318      	adds	r3, #24
   1924a:	434a      	muls	r2, r1
   1924c:	0019      	movs	r1, r3
   1924e:	6034      	str	r4, [r6, #0]
   19250:	9801      	ldr	r0, [sp, #4]
   19252:	6063      	str	r3, [r4, #4]
   19254:	7025      	strb	r5, [r4, #0]
   19256:	7065      	strb	r5, [r4, #1]
   19258:	70a0      	strb	r0, [r4, #2]
   1925a:	3408      	adds	r4, #8
   1925c:	189b      	adds	r3, r3, r2
   1925e:	428c      	cmp	r4, r1
   19260:	d1f6      	bne.n	19250 <app_timer_init+0x40>
   19262:	2080      	movs	r0, #128	; 0x80
   19264:	22c0      	movs	r2, #192	; 0xc0
   19266:	24c5      	movs	r4, #197	; 0xc5
   19268:	21ff      	movs	r1, #255	; 0xff
   1926a:	4b15      	ldr	r3, [pc, #84]	; (192c0 <app_timer_init+0xb0>)
   1926c:	0340      	lsls	r0, r0, #13
   1926e:	601d      	str	r5, [r3, #0]
   19270:	4b14      	ldr	r3, [pc, #80]	; (192c4 <app_timer_init+0xb4>)
   19272:	0052      	lsls	r2, r2, #1
   19274:	701d      	strb	r5, [r3, #0]
   19276:	4b14      	ldr	r3, [pc, #80]	; (192c8 <app_timer_init+0xb8>)
   19278:	00a4      	lsls	r4, r4, #2
   1927a:	701d      	strb	r5, [r3, #0]
   1927c:	4b13      	ldr	r3, [pc, #76]	; (192cc <app_timer_init+0xbc>)
   1927e:	5098      	str	r0, [r3, r2]
   19280:	591a      	ldr	r2, [r3, r4]
   19282:	438a      	bics	r2, r1
   19284:	0011      	movs	r1, r2
   19286:	22c0      	movs	r2, #192	; 0xc0
   19288:	430a      	orrs	r2, r1
   1928a:	511a      	str	r2, [r3, r4]
   1928c:	22a1      	movs	r2, #161	; 0xa1
   1928e:	6018      	str	r0, [r3, #0]
   19290:	9902      	ldr	r1, [sp, #8]
   19292:	480f      	ldr	r0, [pc, #60]	; (192d0 <app_timer_init+0xc0>)
   19294:	00d2      	lsls	r2, r2, #3
   19296:	5081      	str	r1, [r0, r2]
   19298:	3c04      	subs	r4, #4
   1929a:	591a      	ldr	r2, [r3, r4]
   1929c:	490d      	ldr	r1, [pc, #52]	; (192d4 <app_timer_init+0xc4>)
   1929e:	4011      	ands	r1, r2
   192a0:	22c0      	movs	r2, #192	; 0xc0
   192a2:	0212      	lsls	r2, r2, #8
   192a4:	430a      	orrs	r2, r1
   192a6:	511a      	str	r2, [r3, r4]
   192a8:	4b0b      	ldr	r3, [pc, #44]	; (192d8 <app_timer_init+0xc8>)
   192aa:	58c2      	ldr	r2, [r0, r3]
   192ac:	4b0b      	ldr	r3, [pc, #44]	; (192dc <app_timer_init+0xcc>)
   192ae:	2000      	movs	r0, #0
   192b0:	601a      	str	r2, [r3, #0]
   192b2:	e7bd      	b.n	19230 <app_timer_init+0x20>
   192b4:	2560      	movs	r5, #96	; 0x60
   192b6:	2000      	movs	r0, #0
   192b8:	2540      	movs	r5, #64	; 0x40
   192ba:	2000      	movs	r0, #0
   192bc:	2558      	movs	r5, #88	; 0x58
   192be:	2000      	movs	r0, #0
   192c0:	255c      	movs	r5, #92	; 0x5c
   192c2:	2000      	movs	r0, #0
   192c4:	2550      	movs	r5, #80	; 0x50
   192c6:	2000      	movs	r0, #0
   192c8:	2551      	movs	r5, #81	; 0x51
   192ca:	2000      	movs	r0, #0
   192cc:	e100      	b.n	194d0 <uuid_list_encode+0x18>
   192ce:	e000      	b.n	192d2 <app_timer_init+0xc2>
   192d0:	1000      	asrs	r0, r0, #32
   192d2:	4001      	ands	r1, r0
   192d4:	00ff      	lsls	r7, r7, #3
   192d6:	ffff 0504 	vabal.u<illegal width 64>	q8, d15, d4
   192da:	0000      	movs	r0, r0
   192dc:	2554      	movs	r5, #84	; 0x54
   192de:	2000      	movs	r0, #0

000192e0 <app_timer_create>:
   192e0:	4b0a      	ldr	r3, [pc, #40]	; (1930c <app_timer_create+0x2c>)
   192e2:	b510      	push	{r4, lr}
   192e4:	681c      	ldr	r4, [r3, #0]
   192e6:	2308      	movs	r3, #8
   192e8:	2c00      	cmp	r4, #0
   192ea:	d00c      	beq.n	19306 <app_timer_create+0x26>
   192ec:	3b01      	subs	r3, #1
   192ee:	2a00      	cmp	r2, #0
   192f0:	d009      	beq.n	19306 <app_timer_create+0x26>
   192f2:	2800      	cmp	r0, #0
   192f4:	d007      	beq.n	19306 <app_timer_create+0x26>
   192f6:	6800      	ldr	r0, [r0, #0]
   192f8:	3301      	adds	r3, #1
   192fa:	7c04      	ldrb	r4, [r0, #16]
   192fc:	2c00      	cmp	r4, #0
   192fe:	d102      	bne.n	19306 <app_timer_create+0x26>
   19300:	0023      	movs	r3, r4
   19302:	7441      	strb	r1, [r0, #17]
   19304:	6142      	str	r2, [r0, #20]
   19306:	0018      	movs	r0, r3
   19308:	bd10      	pop	{r4, pc}
   1930a:	46c0      	nop			; (mov r8, r8)
   1930c:	2560      	movs	r5, #96	; 0x60
   1930e:	2000      	movs	r0, #0

00019310 <app_timer_start>:
   19310:	b5f0      	push	{r4, r5, r6, r7, lr}
   19312:	4b1c      	ldr	r3, [pc, #112]	; (19384 <app_timer_start+0x74>)
   19314:	b085      	sub	sp, #20
   19316:	681e      	ldr	r6, [r3, #0]
   19318:	0004      	movs	r4, r0
   1931a:	000d      	movs	r5, r1
   1931c:	9201      	str	r2, [sp, #4]
   1931e:	2008      	movs	r0, #8
   19320:	2e00      	cmp	r6, #0
   19322:	d02d      	beq.n	19380 <app_timer_start+0x70>
   19324:	2c00      	cmp	r4, #0
   19326:	d02b      	beq.n	19380 <app_timer_start+0x70>
   19328:	3801      	subs	r0, #1
   1932a:	2904      	cmp	r1, #4
   1932c:	d928      	bls.n	19380 <app_timer_start+0x70>
   1932e:	6963      	ldr	r3, [r4, #20]
   19330:	3001      	adds	r0, #1
   19332:	2b00      	cmp	r3, #0
   19334:	d024      	beq.n	19380 <app_timer_start+0x70>
   19336:	7c63      	ldrb	r3, [r4, #17]
   19338:	000f      	movs	r7, r1
   1933a:	2b01      	cmp	r3, #1
   1933c:	d000      	beq.n	19340 <app_timer_start+0x30>
   1933e:	2700      	movs	r7, #0
   19340:	f7ff fd00 	bl	18d44 <user_id_get>
   19344:	00c0      	lsls	r0, r0, #3
   19346:	ab02      	add	r3, sp, #8
   19348:	1836      	adds	r6, r6, r0
   1934a:	1dd9      	adds	r1, r3, #7
   1934c:	0030      	movs	r0, r6
   1934e:	f7ff fce5 	bl	18d1c <user_op_alloc>
   19352:	0003      	movs	r3, r0
   19354:	2004      	movs	r0, #4
   19356:	2b00      	cmp	r3, #0
   19358:	d012      	beq.n	19380 <app_timer_start+0x70>
   1935a:	2201      	movs	r2, #1
   1935c:	490a      	ldr	r1, [pc, #40]	; (19388 <app_timer_start+0x78>)
   1935e:	701a      	strb	r2, [r3, #0]
   19360:	4a0a      	ldr	r2, [pc, #40]	; (1938c <app_timer_start+0x7c>)
   19362:	2000      	movs	r0, #0
   19364:	588a      	ldr	r2, [r1, r2]
   19366:	605c      	str	r4, [r3, #4]
   19368:	609a      	str	r2, [r3, #8]
   1936a:	9a01      	ldr	r2, [sp, #4]
   1936c:	60dd      	str	r5, [r3, #12]
   1936e:	615a      	str	r2, [r3, #20]
   19370:	2280      	movs	r2, #128	; 0x80
   19372:	611f      	str	r7, [r3, #16]
   19374:	ab02      	add	r3, sp, #8
   19376:	79db      	ldrb	r3, [r3, #7]
   19378:	0352      	lsls	r2, r2, #13
   1937a:	7073      	strb	r3, [r6, #1]
   1937c:	4b04      	ldr	r3, [pc, #16]	; (19390 <app_timer_start+0x80>)
   1937e:	605a      	str	r2, [r3, #4]
   19380:	b005      	add	sp, #20
   19382:	bdf0      	pop	{r4, r5, r6, r7, pc}
   19384:	2560      	movs	r5, #96	; 0x60
   19386:	2000      	movs	r0, #0
   19388:	1000      	asrs	r0, r0, #32
   1938a:	4001      	ands	r1, r0
   1938c:	0504      	lsls	r4, r0, #20
   1938e:	0000      	movs	r0, r0
   19390:	e1fc      	b.n	1978c <adv_data_encode+0x2a0>
   19392:	e000      	b.n	19396 <app_timer_stop+0x2>

00019394 <app_timer_stop>:
   19394:	4b13      	ldr	r3, [pc, #76]	; (193e4 <app_timer_stop+0x50>)
   19396:	b5f7      	push	{r0, r1, r2, r4, r5, r6, r7, lr}
   19398:	681c      	ldr	r4, [r3, #0]
   1939a:	0005      	movs	r5, r0
   1939c:	2308      	movs	r3, #8
   1939e:	2c00      	cmp	r4, #0
   193a0:	d01d      	beq.n	193de <app_timer_stop+0x4a>
   193a2:	2800      	cmp	r0, #0
   193a4:	d01b      	beq.n	193de <app_timer_stop+0x4a>
   193a6:	6942      	ldr	r2, [r0, #20]
   193a8:	2a00      	cmp	r2, #0
   193aa:	d018      	beq.n	193de <app_timer_stop+0x4a>
   193ac:	2600      	movs	r6, #0
   193ae:	7406      	strb	r6, [r0, #16]
   193b0:	f7ff fcc8 	bl	18d44 <user_id_get>
   193b4:	466b      	mov	r3, sp
   193b6:	00c0      	lsls	r0, r0, #3
   193b8:	1ddf      	adds	r7, r3, #7
   193ba:	1824      	adds	r4, r4, r0
   193bc:	0039      	movs	r1, r7
   193be:	0020      	movs	r0, r4
   193c0:	f7ff fcac 	bl	18d1c <user_op_alloc>
   193c4:	2304      	movs	r3, #4
   193c6:	42b0      	cmp	r0, r6
   193c8:	d009      	beq.n	193de <app_timer_stop+0x4a>
   193ca:	2280      	movs	r2, #128	; 0x80
   193cc:	3b02      	subs	r3, #2
   193ce:	7003      	strb	r3, [r0, #0]
   193d0:	783b      	ldrb	r3, [r7, #0]
   193d2:	6045      	str	r5, [r0, #4]
   193d4:	7063      	strb	r3, [r4, #1]
   193d6:	4b04      	ldr	r3, [pc, #16]	; (193e8 <app_timer_stop+0x54>)
   193d8:	0352      	lsls	r2, r2, #13
   193da:	605a      	str	r2, [r3, #4]
   193dc:	0033      	movs	r3, r6
   193de:	0018      	movs	r0, r3
   193e0:	bdfe      	pop	{r1, r2, r3, r4, r5, r6, r7, pc}
   193e2:	46c0      	nop			; (mov r8, r8)
   193e4:	2560      	movs	r5, #96	; 0x60
   193e6:	2000      	movs	r0, #0
   193e8:	e1fc      	b.n	197e4 <adv_data_encode+0x2f8>
   193ea:	e000      	b.n	193ee <sd_ble_gap_address_get+0x2>

000193ec <sd_ble_gap_address_get>:
   193ec:	df71      	svc	113	; 0x71
   193ee:	4770      	bx	lr

000193f0 <sd_ble_gap_adv_data_set>:
   193f0:	df72      	svc	114	; 0x72
   193f2:	4770      	bx	lr

000193f4 <sd_ble_gap_appearance_get>:
   193f4:	df79      	svc	121	; 0x79
   193f6:	4770      	bx	lr

000193f8 <sd_ble_gap_device_name_get>:
   193f8:	df7d      	svc	125	; 0x7d
   193fa:	4770      	bx	lr

000193fc <sd_ble_uuid_encode>:
   193fc:	df65      	svc	101	; 0x65
   193fe:	4770      	bx	lr

00019400 <uuid_list_sized_encode>:
   19400:	b5f0      	push	{r4, r5, r6, r7, lr}
   19402:	2500      	movs	r5, #0
   19404:	0006      	movs	r6, r0
   19406:	002f      	movs	r7, r5
   19408:	b089      	sub	sp, #36	; 0x24
   1940a:	9301      	str	r3, [sp, #4]
   1940c:	ab0e      	add	r3, sp, #56	; 0x38
   1940e:	cb10      	ldmia	r3!, {r4}
   19410:	9104      	str	r1, [sp, #16]
   19412:	881b      	ldrh	r3, [r3, #0]
   19414:	9203      	str	r2, [sp, #12]
   19416:	9305      	str	r3, [sp, #20]
   19418:	8823      	ldrh	r3, [r4, #0]
   1941a:	9302      	str	r3, [sp, #8]
   1941c:	8833      	ldrh	r3, [r6, #0]
   1941e:	42bb      	cmp	r3, r7
   19420:	dc0e      	bgt.n	19440 <uuid_list_sized_encode+0x40>
   19422:	2000      	movs	r0, #0
   19424:	4285      	cmp	r5, r0
   19426:	d009      	beq.n	1943c <uuid_list_sized_encode+0x3c>
   19428:	8823      	ldrh	r3, [r4, #0]
   1942a:	9a02      	ldr	r2, [sp, #8]
   1942c:	3b01      	subs	r3, #1
   1942e:	1a9b      	subs	r3, r3, r2
   19430:	b29b      	uxth	r3, r3
   19432:	2bff      	cmp	r3, #255	; 0xff
   19434:	d83e      	bhi.n	194b4 <uuid_list_sized_encode+0xb4>
   19436:	9a01      	ldr	r2, [sp, #4]
   19438:	9902      	ldr	r1, [sp, #8]
   1943a:	5453      	strb	r3, [r2, r1]
   1943c:	b009      	add	sp, #36	; 0x24
   1943e:	bdf0      	pop	{r4, r5, r6, r7, pc}
   19440:	6873      	ldr	r3, [r6, #4]
   19442:	00b9      	lsls	r1, r7, #2
   19444:	1859      	adds	r1, r3, r1
   19446:	2204      	movs	r2, #4
   19448:	a807      	add	r0, sp, #28
   1944a:	f003 f8d3 	bl	1c5f4 <memcpy>
   1944e:	ab06      	add	r3, sp, #24
   19450:	2200      	movs	r2, #0
   19452:	1cd9      	adds	r1, r3, #3
   19454:	a807      	add	r0, sp, #28
   19456:	f7ff ffd1 	bl	193fc <sd_ble_uuid_encode>
   1945a:	2800      	cmp	r0, #0
   1945c:	d1ee      	bne.n	1943c <uuid_list_sized_encode+0x3c>
   1945e:	ab06      	add	r3, sp, #24
   19460:	78db      	ldrb	r3, [r3, #3]
   19462:	9a03      	ldr	r2, [sp, #12]
   19464:	4293      	cmp	r3, r2
   19466:	d123      	bne.n	194b0 <uuid_list_sized_encode+0xb0>
   19468:	4269      	negs	r1, r5
   1946a:	4169      	adcs	r1, r5
   1946c:	8823      	ldrh	r3, [r4, #0]
   1946e:	0049      	lsls	r1, r1, #1
   19470:	189a      	adds	r2, r3, r2
   19472:	1852      	adds	r2, r2, r1
   19474:	9905      	ldr	r1, [sp, #20]
   19476:	428a      	cmp	r2, r1
   19478:	dc1c      	bgt.n	194b4 <uuid_list_sized_encode+0xb4>
   1947a:	2d00      	cmp	r5, #0
   1947c:	d108      	bne.n	19490 <uuid_list_sized_encode+0x90>
   1947e:	3301      	adds	r3, #1
   19480:	9a01      	ldr	r2, [sp, #4]
   19482:	9904      	ldr	r1, [sp, #16]
   19484:	b29b      	uxth	r3, r3
   19486:	8023      	strh	r3, [r4, #0]
   19488:	54d1      	strb	r1, [r2, r3]
   1948a:	8823      	ldrh	r3, [r4, #0]
   1948c:	3301      	adds	r3, #1
   1948e:	8023      	strh	r3, [r4, #0]
   19490:	9b01      	ldr	r3, [sp, #4]
   19492:	8822      	ldrh	r2, [r4, #0]
   19494:	a807      	add	r0, sp, #28
   19496:	189a      	adds	r2, r3, r2
   19498:	ab06      	add	r3, sp, #24
   1949a:	1cdd      	adds	r5, r3, #3
   1949c:	0029      	movs	r1, r5
   1949e:	f7ff ffad 	bl	193fc <sd_ble_uuid_encode>
   194a2:	2800      	cmp	r0, #0
   194a4:	d1ca      	bne.n	1943c <uuid_list_sized_encode+0x3c>
   194a6:	782b      	ldrb	r3, [r5, #0]
   194a8:	2501      	movs	r5, #1
   194aa:	8822      	ldrh	r2, [r4, #0]
   194ac:	189b      	adds	r3, r3, r2
   194ae:	8023      	strh	r3, [r4, #0]
   194b0:	3701      	adds	r7, #1
   194b2:	e7b3      	b.n	1941c <uuid_list_sized_encode+0x1c>
   194b4:	200c      	movs	r0, #12
   194b6:	e7c1      	b.n	1943c <uuid_list_sized_encode+0x3c>

000194b8 <uuid_list_encode>:
   194b8:	b5f0      	push	{r4, r5, r6, r7, lr}
   194ba:	001d      	movs	r5, r3
   194bc:	b085      	sub	sp, #20
   194be:	ab0a      	add	r3, sp, #40	; 0x28
   194c0:	cb40      	ldmia	r3!, {r6}
   194c2:	9203      	str	r2, [sp, #12]
   194c4:	881f      	ldrh	r7, [r3, #0]
   194c6:	2202      	movs	r2, #2
   194c8:	9701      	str	r7, [sp, #4]
   194ca:	9600      	str	r6, [sp, #0]
   194cc:	002b      	movs	r3, r5
   194ce:	0004      	movs	r4, r0
   194d0:	f7ff ff96 	bl	19400 <uuid_list_sized_encode>
   194d4:	2800      	cmp	r0, #0
   194d6:	d107      	bne.n	194e8 <uuid_list_encode+0x30>
   194d8:	9701      	str	r7, [sp, #4]
   194da:	9600      	str	r6, [sp, #0]
   194dc:	002b      	movs	r3, r5
   194de:	2210      	movs	r2, #16
   194e0:	9903      	ldr	r1, [sp, #12]
   194e2:	0020      	movs	r0, r4
   194e4:	f7ff ff8c 	bl	19400 <uuid_list_sized_encode>
   194e8:	b005      	add	sp, #20
   194ea:	bdf0      	pop	{r4, r5, r6, r7, pc}

000194ec <adv_data_encode>:
   194ec:	b5f0      	push	{r4, r5, r6, r7, lr}
   194ee:	8813      	ldrh	r3, [r2, #0]
   194f0:	b087      	sub	sp, #28
   194f2:	9302      	str	r3, [sp, #8]
   194f4:	2300      	movs	r3, #0
   194f6:	8013      	strh	r3, [r2, #0]
   194f8:	6b43      	ldr	r3, [r0, #52]	; 0x34
   194fa:	0007      	movs	r7, r0
   194fc:	000d      	movs	r5, r1
   194fe:	0014      	movs	r4, r2
   19500:	2b00      	cmp	r3, #0
   19502:	d015      	beq.n	19530 <adv_data_encode+0x44>
   19504:	9a02      	ldr	r2, [sp, #8]
   19506:	2a02      	cmp	r2, #2
   19508:	d801      	bhi.n	1950e <adv_data_encode+0x22>
   1950a:	200c      	movs	r0, #12
   1950c:	e186      	b.n	1981c <adv_data_encode+0x330>
   1950e:	781a      	ldrb	r2, [r3, #0]
   19510:	2302      	movs	r3, #2
   19512:	700b      	strb	r3, [r1, #0]
   19514:	2111      	movs	r1, #17
   19516:	8823      	ldrh	r3, [r4, #0]
   19518:	3301      	adds	r3, #1
   1951a:	b29b      	uxth	r3, r3
   1951c:	8023      	strh	r3, [r4, #0]
   1951e:	54e9      	strb	r1, [r5, r3]
   19520:	8823      	ldrh	r3, [r4, #0]
   19522:	3301      	adds	r3, #1
   19524:	b29b      	uxth	r3, r3
   19526:	8023      	strh	r3, [r4, #0]
   19528:	54ea      	strb	r2, [r5, r3]
   1952a:	8823      	ldrh	r3, [r4, #0]
   1952c:	3301      	adds	r3, #1
   1952e:	8023      	strh	r3, [r4, #0]
   19530:	6b3a      	ldr	r2, [r7, #48]	; 0x30
   19532:	2a00      	cmp	r2, #0
   19534:	d01c      	beq.n	19570 <adv_data_encode+0x84>
   19536:	8823      	ldrh	r3, [r4, #0]
   19538:	9802      	ldr	r0, [sp, #8]
   1953a:	0019      	movs	r1, r3
   1953c:	3112      	adds	r1, #18
   1953e:	4281      	cmp	r1, r0
   19540:	d8e3      	bhi.n	1950a <adv_data_encode+0x1e>
   19542:	2111      	movs	r1, #17
   19544:	54e9      	strb	r1, [r5, r3]
   19546:	8823      	ldrh	r3, [r4, #0]
   19548:	3901      	subs	r1, #1
   1954a:	3301      	adds	r3, #1
   1954c:	b29b      	uxth	r3, r3
   1954e:	8023      	strh	r3, [r4, #0]
   19550:	54e9      	strb	r1, [r5, r3]
   19552:	8823      	ldrh	r3, [r4, #0]
   19554:	3301      	adds	r3, #1
   19556:	8023      	strh	r3, [r4, #0]
   19558:	0013      	movs	r3, r2
   1955a:	3a01      	subs	r2, #1
   1955c:	330f      	adds	r3, #15
   1955e:	7818      	ldrb	r0, [r3, #0]
   19560:	8821      	ldrh	r1, [r4, #0]
   19562:	3b01      	subs	r3, #1
   19564:	5468      	strb	r0, [r5, r1]
   19566:	8821      	ldrh	r1, [r4, #0]
   19568:	3101      	adds	r1, #1
   1956a:	8021      	strh	r1, [r4, #0]
   1956c:	4293      	cmp	r3, r2
   1956e:	d1f6      	bne.n	1955e <adv_data_encode+0x72>
   19570:	003b      	movs	r3, r7
   19572:	332e      	adds	r3, #46	; 0x2e
   19574:	7818      	ldrb	r0, [r3, #0]
   19576:	2800      	cmp	r0, #0
   19578:	d021      	beq.n	195be <adv_data_encode+0xd2>
   1957a:	8823      	ldrh	r3, [r4, #0]
   1957c:	9902      	ldr	r1, [sp, #8]
   1957e:	1cda      	adds	r2, r3, #3
   19580:	428a      	cmp	r2, r1
   19582:	d8c2      	bhi.n	1950a <adv_data_encode+0x1e>
   19584:	2202      	movs	r2, #2
   19586:	211c      	movs	r1, #28
   19588:	54ea      	strb	r2, [r5, r3]
   1958a:	8823      	ldrh	r3, [r4, #0]
   1958c:	3301      	adds	r3, #1
   1958e:	b29b      	uxth	r3, r3
   19590:	8023      	strh	r3, [r4, #0]
   19592:	54e9      	strb	r1, [r5, r3]
   19594:	8823      	ldrh	r3, [r4, #0]
   19596:	1e41      	subs	r1, r0, #1
   19598:	3301      	adds	r3, #1
   1959a:	b29b      	uxth	r3, r3
   1959c:	8023      	strh	r3, [r4, #0]
   1959e:	2007      	movs	r0, #7
   195a0:	2903      	cmp	r1, #3
   195a2:	d900      	bls.n	195a6 <adv_data_encode+0xba>
   195a4:	e13a      	b.n	1981c <adv_data_encode+0x330>
   195a6:	0008      	movs	r0, r1
   195a8:	f001 fbd6 	bl	1ad58 <__gnu_thumb1_case_uhi>
   195ac:	0004      	movs	r4, r0
   195ae:	0125      	lsls	r5, r4, #4
   195b0:	0005      	movs	r5, r0
   195b2:	0127      	lsls	r7, r4, #4
   195b4:	2200      	movs	r2, #0
   195b6:	54ea      	strb	r2, [r5, r3]
   195b8:	8823      	ldrh	r3, [r4, #0]
   195ba:	3301      	adds	r3, #1
   195bc:	8023      	strh	r3, [r4, #0]
   195be:	003b      	movs	r3, r7
   195c0:	332d      	adds	r3, #45	; 0x2d
   195c2:	781b      	ldrb	r3, [r3, #0]
   195c4:	2b00      	cmp	r3, #0
   195c6:	d02d      	beq.n	19624 <adv_data_encode+0x138>
   195c8:	8823      	ldrh	r3, [r4, #0]
   195ca:	9a02      	ldr	r2, [sp, #8]
   195cc:	3309      	adds	r3, #9
   195ce:	200c      	movs	r0, #12
   195d0:	4293      	cmp	r3, r2
   195d2:	d900      	bls.n	195d6 <adv_data_encode+0xea>
   195d4:	e122      	b.n	1981c <adv_data_encode+0x330>
   195d6:	ae04      	add	r6, sp, #16
   195d8:	0030      	movs	r0, r6
   195da:	f7ff ff07 	bl	193ec <sd_ble_gap_address_get>
   195de:	2800      	cmp	r0, #0
   195e0:	d000      	beq.n	195e4 <adv_data_encode+0xf8>
   195e2:	e11b      	b.n	1981c <adv_data_encode+0x330>
   195e4:	2208      	movs	r2, #8
   195e6:	2109      	movs	r1, #9
   195e8:	8823      	ldrh	r3, [r4, #0]
   195ea:	54ea      	strb	r2, [r5, r3]
   195ec:	8823      	ldrh	r3, [r4, #0]
   195ee:	3213      	adds	r2, #19
   195f0:	3301      	adds	r3, #1
   195f2:	b29b      	uxth	r3, r3
   195f4:	8023      	strh	r3, [r4, #0]
   195f6:	54ea      	strb	r2, [r5, r3]
   195f8:	8820      	ldrh	r0, [r4, #0]
   195fa:	ab02      	add	r3, sp, #8
   195fc:	3001      	adds	r0, #1
   195fe:	b280      	uxth	r0, r0
   19600:	8020      	strh	r0, [r4, #0]
   19602:	3a15      	subs	r2, #21
   19604:	18c9      	adds	r1, r1, r3
   19606:	1828      	adds	r0, r5, r0
   19608:	f002 fff4 	bl	1c5f4 <memcpy>
   1960c:	8823      	ldrh	r3, [r4, #0]
   1960e:	7832      	ldrb	r2, [r6, #0]
   19610:	3306      	adds	r3, #6
   19612:	b29b      	uxth	r3, r3
   19614:	8023      	strh	r3, [r4, #0]
   19616:	2a00      	cmp	r2, #0
   19618:	d000      	beq.n	1961c <adv_data_encode+0x130>
   1961a:	e0f0      	b.n	197fe <adv_data_encode+0x312>
   1961c:	54ea      	strb	r2, [r5, r3]
   1961e:	8823      	ldrh	r3, [r4, #0]
   19620:	3301      	adds	r3, #1
   19622:	8023      	strh	r3, [r4, #0]
   19624:	78bb      	ldrb	r3, [r7, #2]
   19626:	2b00      	cmp	r3, #0
   19628:	d022      	beq.n	19670 <adv_data_encode+0x184>
   1962a:	8823      	ldrh	r3, [r4, #0]
   1962c:	9a02      	ldr	r2, [sp, #8]
   1962e:	3304      	adds	r3, #4
   19630:	200c      	movs	r0, #12
   19632:	4293      	cmp	r3, r2
   19634:	d900      	bls.n	19638 <adv_data_encode+0x14c>
   19636:	e0f1      	b.n	1981c <adv_data_encode+0x330>
   19638:	ae04      	add	r6, sp, #16
   1963a:	0030      	movs	r0, r6
   1963c:	f7ff feda 	bl	193f4 <sd_ble_gap_appearance_get>
   19640:	2800      	cmp	r0, #0
   19642:	d000      	beq.n	19646 <adv_data_encode+0x15a>
   19644:	e0ea      	b.n	1981c <adv_data_encode+0x330>
   19646:	2203      	movs	r2, #3
   19648:	8823      	ldrh	r3, [r4, #0]
   1964a:	54ea      	strb	r2, [r5, r3]
   1964c:	8823      	ldrh	r3, [r4, #0]
   1964e:	3216      	adds	r2, #22
   19650:	3301      	adds	r3, #1
   19652:	b29b      	uxth	r3, r3
   19654:	8023      	strh	r3, [r4, #0]
   19656:	54ea      	strb	r2, [r5, r3]
   19658:	8823      	ldrh	r3, [r4, #0]
   1965a:	8832      	ldrh	r2, [r6, #0]
   1965c:	3301      	adds	r3, #1
   1965e:	b29b      	uxth	r3, r3
   19660:	8023      	strh	r3, [r4, #0]
   19662:	18eb      	adds	r3, r5, r3
   19664:	701a      	strb	r2, [r3, #0]
   19666:	0a12      	lsrs	r2, r2, #8
   19668:	705a      	strb	r2, [r3, #1]
   1966a:	8823      	ldrh	r3, [r4, #0]
   1966c:	3302      	adds	r3, #2
   1966e:	8023      	strh	r3, [r4, #0]
   19670:	78fa      	ldrb	r2, [r7, #3]
   19672:	2a00      	cmp	r2, #0
   19674:	d015      	beq.n	196a2 <adv_data_encode+0x1b6>
   19676:	8823      	ldrh	r3, [r4, #0]
   19678:	9802      	ldr	r0, [sp, #8]
   1967a:	1cd9      	adds	r1, r3, #3
   1967c:	4281      	cmp	r1, r0
   1967e:	d900      	bls.n	19682 <adv_data_encode+0x196>
   19680:	e743      	b.n	1950a <adv_data_encode+0x1e>
   19682:	2102      	movs	r1, #2
   19684:	54e9      	strb	r1, [r5, r3]
   19686:	8823      	ldrh	r3, [r4, #0]
   19688:	3901      	subs	r1, #1
   1968a:	3301      	adds	r3, #1
   1968c:	b29b      	uxth	r3, r3
   1968e:	8023      	strh	r3, [r4, #0]
   19690:	54e9      	strb	r1, [r5, r3]
   19692:	8823      	ldrh	r3, [r4, #0]
   19694:	185b      	adds	r3, r3, r1
   19696:	b29b      	uxth	r3, r3
   19698:	8023      	strh	r3, [r4, #0]
   1969a:	54ea      	strb	r2, [r5, r3]
   1969c:	8823      	ldrh	r3, [r4, #0]
   1969e:	185b      	adds	r3, r3, r1
   196a0:	8023      	strh	r3, [r4, #0]
   196a2:	687a      	ldr	r2, [r7, #4]
   196a4:	2a00      	cmp	r2, #0
   196a6:	d017      	beq.n	196d8 <adv_data_encode+0x1ec>
   196a8:	8823      	ldrh	r3, [r4, #0]
   196aa:	9802      	ldr	r0, [sp, #8]
   196ac:	1cd9      	adds	r1, r3, #3
   196ae:	4281      	cmp	r1, r0
   196b0:	d900      	bls.n	196b4 <adv_data_encode+0x1c8>
   196b2:	e72a      	b.n	1950a <adv_data_encode+0x1e>
   196b4:	2102      	movs	r1, #2
   196b6:	7812      	ldrb	r2, [r2, #0]
   196b8:	54e9      	strb	r1, [r5, r3]
   196ba:	8823      	ldrh	r3, [r4, #0]
   196bc:	3108      	adds	r1, #8
   196be:	3301      	adds	r3, #1
   196c0:	b29b      	uxth	r3, r3
   196c2:	8023      	strh	r3, [r4, #0]
   196c4:	54e9      	strb	r1, [r5, r3]
   196c6:	8823      	ldrh	r3, [r4, #0]
   196c8:	b252      	sxtb	r2, r2
   196ca:	3301      	adds	r3, #1
   196cc:	b29b      	uxth	r3, r3
   196ce:	8023      	strh	r3, [r4, #0]
   196d0:	54ea      	strb	r2, [r5, r3]
   196d2:	8823      	ldrh	r3, [r4, #0]
   196d4:	3301      	adds	r3, #1
   196d6:	8023      	strh	r3, [r4, #0]
   196d8:	893b      	ldrh	r3, [r7, #8]
   196da:	2b00      	cmp	r3, #0
   196dc:	d000      	beq.n	196e0 <adv_data_encode+0x1f4>
   196de:	e090      	b.n	19802 <adv_data_encode+0x316>
   196e0:	8a3b      	ldrh	r3, [r7, #16]
   196e2:	2b00      	cmp	r3, #0
   196e4:	d00c      	beq.n	19700 <adv_data_encode+0x214>
   196e6:	0038      	movs	r0, r7
   196e8:	9b02      	ldr	r3, [sp, #8]
   196ea:	9400      	str	r4, [sp, #0]
   196ec:	9301      	str	r3, [sp, #4]
   196ee:	2207      	movs	r2, #7
   196f0:	002b      	movs	r3, r5
   196f2:	2103      	movs	r1, #3
   196f4:	3010      	adds	r0, #16
   196f6:	f7ff fedf 	bl	194b8 <uuid_list_encode>
   196fa:	2800      	cmp	r0, #0
   196fc:	d000      	beq.n	19700 <adv_data_encode+0x214>
   196fe:	e08d      	b.n	1981c <adv_data_encode+0x330>
   19700:	8b3b      	ldrh	r3, [r7, #24]
   19702:	2b00      	cmp	r3, #0
   19704:	d00c      	beq.n	19720 <adv_data_encode+0x234>
   19706:	0038      	movs	r0, r7
   19708:	9b02      	ldr	r3, [sp, #8]
   1970a:	9400      	str	r4, [sp, #0]
   1970c:	9301      	str	r3, [sp, #4]
   1970e:	2215      	movs	r2, #21
   19710:	002b      	movs	r3, r5
   19712:	2114      	movs	r1, #20
   19714:	3018      	adds	r0, #24
   19716:	f7ff fecf 	bl	194b8 <uuid_list_encode>
   1971a:	2800      	cmp	r0, #0
   1971c:	d000      	beq.n	19720 <adv_data_encode+0x234>
   1971e:	e07d      	b.n	1981c <adv_data_encode+0x330>
   19720:	6a3b      	ldr	r3, [r7, #32]
   19722:	2b00      	cmp	r3, #0
   19724:	d000      	beq.n	19728 <adv_data_encode+0x23c>
   19726:	e07b      	b.n	19820 <adv_data_encode+0x334>
   19728:	6a7e      	ldr	r6, [r7, #36]	; 0x24
   1972a:	2e00      	cmp	r6, #0
   1972c:	d02e      	beq.n	1978c <adv_data_encode+0x2a0>
   1972e:	88b3      	ldrh	r3, [r6, #4]
   19730:	8821      	ldrh	r1, [r4, #0]
   19732:	1c98      	adds	r0, r3, #2
   19734:	1c8a      	adds	r2, r1, #2
   19736:	1812      	adds	r2, r2, r0
   19738:	4694      	mov	ip, r2
   1973a:	9a02      	ldr	r2, [sp, #8]
   1973c:	4594      	cmp	ip, r2
   1973e:	d900      	bls.n	19742 <adv_data_encode+0x256>
   19740:	e6e3      	b.n	1950a <adv_data_encode+0x1e>
   19742:	28fe      	cmp	r0, #254	; 0xfe
   19744:	d900      	bls.n	19748 <adv_data_encode+0x25c>
   19746:	e6e0      	b.n	1950a <adv_data_encode+0x1e>
   19748:	22ff      	movs	r2, #255	; 0xff
   1974a:	3303      	adds	r3, #3
   1974c:	546b      	strb	r3, [r5, r1]
   1974e:	8823      	ldrh	r3, [r4, #0]
   19750:	3301      	adds	r3, #1
   19752:	b29b      	uxth	r3, r3
   19754:	8023      	strh	r3, [r4, #0]
   19756:	54ea      	strb	r2, [r5, r3]
   19758:	8823      	ldrh	r3, [r4, #0]
   1975a:	3301      	adds	r3, #1
   1975c:	b29b      	uxth	r3, r3
   1975e:	8023      	strh	r3, [r4, #0]
   19760:	8832      	ldrh	r2, [r6, #0]
   19762:	18eb      	adds	r3, r5, r3
   19764:	701a      	strb	r2, [r3, #0]
   19766:	0a12      	lsrs	r2, r2, #8
   19768:	705a      	strb	r2, [r3, #1]
   1976a:	8820      	ldrh	r0, [r4, #0]
   1976c:	3002      	adds	r0, #2
   1976e:	b280      	uxth	r0, r0
   19770:	8020      	strh	r0, [r4, #0]
   19772:	88b2      	ldrh	r2, [r6, #4]
   19774:	2a00      	cmp	r2, #0
   19776:	d009      	beq.n	1978c <adv_data_encode+0x2a0>
   19778:	68b1      	ldr	r1, [r6, #8]
   1977a:	2900      	cmp	r1, #0
   1977c:	d059      	beq.n	19832 <adv_data_encode+0x346>
   1977e:	1828      	adds	r0, r5, r0
   19780:	f002 ff38 	bl	1c5f4 <memcpy>
   19784:	8823      	ldrh	r3, [r4, #0]
   19786:	88b2      	ldrh	r2, [r6, #4]
   19788:	189b      	adds	r3, r3, r2
   1978a:	8023      	strh	r3, [r4, #0]
   1978c:	003b      	movs	r3, r7
   1978e:	332c      	adds	r3, #44	; 0x2c
   19790:	781b      	ldrb	r3, [r3, #0]
   19792:	2b00      	cmp	r3, #0
   19794:	d000      	beq.n	19798 <adv_data_encode+0x2ac>
   19796:	e083      	b.n	198a0 <adv_data_encode+0x3b4>
   19798:	783b      	ldrb	r3, [r7, #0]
   1979a:	1e18      	subs	r0, r3, #0
   1979c:	d03e      	beq.n	1981c <adv_data_encode+0x330>
   1979e:	883a      	ldrh	r2, [r7, #0]
   197a0:	2007      	movs	r0, #7
   197a2:	2a01      	cmp	r2, #1
   197a4:	d03a      	beq.n	1981c <adv_data_encode+0x330>
   197a6:	8822      	ldrh	r2, [r4, #0]
   197a8:	9902      	ldr	r1, [sp, #8]
   197aa:	1c90      	adds	r0, r2, #2
   197ac:	4288      	cmp	r0, r1
   197ae:	d900      	bls.n	197b2 <adv_data_encode+0x2c6>
   197b0:	e6ab      	b.n	1950a <adv_data_encode+0x1e>
   197b2:	2b01      	cmp	r3, #1
   197b4:	d106      	bne.n	197c4 <adv_data_encode+0x2d8>
   197b6:	787b      	ldrb	r3, [r7, #1]
   197b8:	9902      	ldr	r1, [sp, #8]
   197ba:	3302      	adds	r3, #2
   197bc:	189b      	adds	r3, r3, r2
   197be:	4299      	cmp	r1, r3
   197c0:	d200      	bcs.n	197c4 <adv_data_encode+0x2d8>
   197c2:	e6a2      	b.n	1950a <adv_data_encode+0x1e>
   197c4:	9e02      	ldr	r6, [sp, #8]
   197c6:	ab02      	add	r3, sp, #8
   197c8:	3e02      	subs	r6, #2
   197ca:	1ab6      	subs	r6, r6, r2
   197cc:	b2b6      	uxth	r6, r6
   197ce:	1828      	adds	r0, r5, r0
   197d0:	a904      	add	r1, sp, #16
   197d2:	811e      	strh	r6, [r3, #8]
   197d4:	f7ff fe10 	bl	193f8 <sd_ble_gap_device_name_get>
   197d8:	2800      	cmp	r0, #0
   197da:	d11f      	bne.n	1981c <adv_data_encode+0x330>
   197dc:	783b      	ldrb	r3, [r7, #0]
   197de:	2b02      	cmp	r3, #2
   197e0:	d000      	beq.n	197e4 <adv_data_encode+0x2f8>
   197e2:	e09a      	b.n	1991a <adv_data_encode+0x42e>
   197e4:	ab02      	add	r3, sp, #8
   197e6:	891b      	ldrh	r3, [r3, #8]
   197e8:	2209      	movs	r2, #9
   197ea:	42b3      	cmp	r3, r6
   197ec:	d800      	bhi.n	197f0 <adv_data_encode+0x304>
   197ee:	e09e      	b.n	1992e <adv_data_encode+0x442>
   197f0:	ab02      	add	r3, sp, #8
   197f2:	811e      	strh	r6, [r3, #8]
   197f4:	e09a      	b.n	1992c <adv_data_encode+0x440>
   197f6:	2201      	movs	r2, #1
   197f8:	e6dd      	b.n	195b6 <adv_data_encode+0xca>
   197fa:	2203      	movs	r2, #3
   197fc:	e6db      	b.n	195b6 <adv_data_encode+0xca>
   197fe:	2201      	movs	r2, #1
   19800:	e70c      	b.n	1961c <adv_data_encode+0x130>
   19802:	0038      	movs	r0, r7
   19804:	9b02      	ldr	r3, [sp, #8]
   19806:	9400      	str	r4, [sp, #0]
   19808:	9301      	str	r3, [sp, #4]
   1980a:	2206      	movs	r2, #6
   1980c:	002b      	movs	r3, r5
   1980e:	2102      	movs	r1, #2
   19810:	3008      	adds	r0, #8
   19812:	f7ff fe51 	bl	194b8 <uuid_list_encode>
   19816:	2800      	cmp	r0, #0
   19818:	d100      	bne.n	1981c <adv_data_encode+0x330>
   1981a:	e761      	b.n	196e0 <adv_data_encode+0x1f4>
   1981c:	b007      	add	sp, #28
   1981e:	bdf0      	pop	{r4, r5, r6, r7, pc}
   19820:	8826      	ldrh	r6, [r4, #0]
   19822:	9902      	ldr	r1, [sp, #8]
   19824:	1db2      	adds	r2, r6, #6
   19826:	428a      	cmp	r2, r1
   19828:	d900      	bls.n	1982c <adv_data_encode+0x340>
   1982a:	e66e      	b.n	1950a <adv_data_encode+0x1e>
   1982c:	8819      	ldrh	r1, [r3, #0]
   1982e:	2905      	cmp	r1, #5
   19830:	d801      	bhi.n	19836 <adv_data_encode+0x34a>
   19832:	2007      	movs	r0, #7
   19834:	e7f2      	b.n	1981c <adv_data_encode+0x330>
   19836:	4846      	ldr	r0, [pc, #280]	; (19950 <adv_data_encode+0x464>)
   19838:	180a      	adds	r2, r1, r0
   1983a:	b292      	uxth	r2, r2
   1983c:	9203      	str	r2, [sp, #12]
   1983e:	4a45      	ldr	r2, [pc, #276]	; (19954 <adv_data_encode+0x468>)
   19840:	4694      	mov	ip, r2
   19842:	9a03      	ldr	r2, [sp, #12]
   19844:	4562      	cmp	r2, ip
   19846:	d9f4      	bls.n	19832 <adv_data_encode+0x346>
   19848:	885a      	ldrh	r2, [r3, #2]
   1984a:	2a05      	cmp	r2, #5
   1984c:	d9f1      	bls.n	19832 <adv_data_encode+0x346>
   1984e:	1810      	adds	r0, r2, r0
   19850:	b280      	uxth	r0, r0
   19852:	4560      	cmp	r0, ip
   19854:	d9ed      	bls.n	19832 <adv_data_encode+0x346>
   19856:	4840      	ldr	r0, [pc, #256]	; (19958 <adv_data_encode+0x46c>)
   19858:	4281      	cmp	r1, r0
   1985a:	d003      	beq.n	19864 <adv_data_encode+0x378>
   1985c:	4282      	cmp	r2, r0
   1985e:	d001      	beq.n	19864 <adv_data_encode+0x378>
   19860:	4291      	cmp	r1, r2
   19862:	d8e6      	bhi.n	19832 <adv_data_encode+0x346>
   19864:	2205      	movs	r2, #5
   19866:	2112      	movs	r1, #18
   19868:	55aa      	strb	r2, [r5, r6]
   1986a:	8822      	ldrh	r2, [r4, #0]
   1986c:	3201      	adds	r2, #1
   1986e:	b292      	uxth	r2, r2
   19870:	8022      	strh	r2, [r4, #0]
   19872:	54a9      	strb	r1, [r5, r2]
   19874:	8822      	ldrh	r2, [r4, #0]
   19876:	3201      	adds	r2, #1
   19878:	b292      	uxth	r2, r2
   1987a:	8022      	strh	r2, [r4, #0]
   1987c:	8819      	ldrh	r1, [r3, #0]
   1987e:	18aa      	adds	r2, r5, r2
   19880:	7011      	strb	r1, [r2, #0]
   19882:	0a09      	lsrs	r1, r1, #8
   19884:	7051      	strb	r1, [r2, #1]
   19886:	8822      	ldrh	r2, [r4, #0]
   19888:	3202      	adds	r2, #2
   1988a:	b292      	uxth	r2, r2
   1988c:	8022      	strh	r2, [r4, #0]
   1988e:	8859      	ldrh	r1, [r3, #2]
   19890:	18aa      	adds	r2, r5, r2
   19892:	7011      	strb	r1, [r2, #0]
   19894:	0a09      	lsrs	r1, r1, #8
   19896:	7051      	strb	r1, [r2, #1]
   19898:	8823      	ldrh	r3, [r4, #0]
   1989a:	3302      	adds	r3, #2
   1989c:	8023      	strh	r3, [r4, #0]
   1989e:	e743      	b.n	19728 <adv_data_encode+0x23c>
   198a0:	6abb      	ldr	r3, [r7, #40]	; 0x28
   198a2:	2b00      	cmp	r3, #0
   198a4:	d0c5      	beq.n	19832 <adv_data_encode+0x346>
   198a6:	2300      	movs	r3, #0
   198a8:	9303      	str	r3, [sp, #12]
   198aa:	003b      	movs	r3, r7
   198ac:	332c      	adds	r3, #44	; 0x2c
   198ae:	781b      	ldrb	r3, [r3, #0]
   198b0:	9a03      	ldr	r2, [sp, #12]
   198b2:	4293      	cmp	r3, r2
   198b4:	d800      	bhi.n	198b8 <adv_data_encode+0x3cc>
   198b6:	e76f      	b.n	19798 <adv_data_encode+0x2ac>
   198b8:	260c      	movs	r6, #12
   198ba:	9b03      	ldr	r3, [sp, #12]
   198bc:	435e      	muls	r6, r3
   198be:	6abb      	ldr	r3, [r7, #40]	; 0x28
   198c0:	199e      	adds	r6, r3, r6
   198c2:	88b3      	ldrh	r3, [r6, #4]
   198c4:	1c9a      	adds	r2, r3, #2
   198c6:	2afe      	cmp	r2, #254	; 0xfe
   198c8:	d900      	bls.n	198cc <adv_data_encode+0x3e0>
   198ca:	e61e      	b.n	1950a <adv_data_encode+0x1e>
   198cc:	8822      	ldrh	r2, [r4, #0]
   198ce:	3303      	adds	r3, #3
   198d0:	54ab      	strb	r3, [r5, r2]
   198d2:	2216      	movs	r2, #22
   198d4:	8823      	ldrh	r3, [r4, #0]
   198d6:	3301      	adds	r3, #1
   198d8:	b29b      	uxth	r3, r3
   198da:	8023      	strh	r3, [r4, #0]
   198dc:	54ea      	strb	r2, [r5, r3]
   198de:	8823      	ldrh	r3, [r4, #0]
   198e0:	3301      	adds	r3, #1
   198e2:	b29b      	uxth	r3, r3
   198e4:	8023      	strh	r3, [r4, #0]
   198e6:	8832      	ldrh	r2, [r6, #0]
   198e8:	18eb      	adds	r3, r5, r3
   198ea:	701a      	strb	r2, [r3, #0]
   198ec:	0a12      	lsrs	r2, r2, #8
   198ee:	705a      	strb	r2, [r3, #1]
   198f0:	8820      	ldrh	r0, [r4, #0]
   198f2:	3002      	adds	r0, #2
   198f4:	b280      	uxth	r0, r0
   198f6:	8020      	strh	r0, [r4, #0]
   198f8:	88b2      	ldrh	r2, [r6, #4]
   198fa:	2a00      	cmp	r2, #0
   198fc:	d009      	beq.n	19912 <adv_data_encode+0x426>
   198fe:	68b1      	ldr	r1, [r6, #8]
   19900:	2900      	cmp	r1, #0
   19902:	d096      	beq.n	19832 <adv_data_encode+0x346>
   19904:	1828      	adds	r0, r5, r0
   19906:	f002 fe75 	bl	1c5f4 <memcpy>
   1990a:	8823      	ldrh	r3, [r4, #0]
   1990c:	88b2      	ldrh	r2, [r6, #4]
   1990e:	189b      	adds	r3, r3, r2
   19910:	8023      	strh	r3, [r4, #0]
   19912:	9b03      	ldr	r3, [sp, #12]
   19914:	3301      	adds	r3, #1
   19916:	b2db      	uxtb	r3, r3
   19918:	e7c6      	b.n	198a8 <adv_data_encode+0x3bc>
   1991a:	2b01      	cmp	r3, #1
   1991c:	d000      	beq.n	19920 <adv_data_encode+0x434>
   1991e:	e767      	b.n	197f0 <adv_data_encode+0x304>
   19920:	787b      	ldrb	r3, [r7, #1]
   19922:	429e      	cmp	r6, r3
   19924:	d200      	bcs.n	19928 <adv_data_encode+0x43c>
   19926:	e763      	b.n	197f0 <adv_data_encode+0x304>
   19928:	aa02      	add	r2, sp, #8
   1992a:	8113      	strh	r3, [r2, #8]
   1992c:	2208      	movs	r2, #8
   1992e:	ab02      	add	r3, sp, #8
   19930:	8919      	ldrh	r1, [r3, #8]
   19932:	29fe      	cmp	r1, #254	; 0xfe
   19934:	d900      	bls.n	19938 <adv_data_encode+0x44c>
   19936:	e5e8      	b.n	1950a <adv_data_encode+0x1e>
   19938:	8823      	ldrh	r3, [r4, #0]
   1993a:	3101      	adds	r1, #1
   1993c:	54e9      	strb	r1, [r5, r3]
   1993e:	8823      	ldrh	r3, [r4, #0]
   19940:	3301      	adds	r3, #1
   19942:	b29b      	uxth	r3, r3
   19944:	8023      	strh	r3, [r4, #0]
   19946:	54ea      	strb	r2, [r5, r3]
   19948:	8823      	ldrh	r3, [r4, #0]
   1994a:	1859      	adds	r1, r3, r1
   1994c:	8021      	strh	r1, [r4, #0]
   1994e:	e765      	b.n	1981c <adv_data_encode+0x330>
   19950:	f37f ffff 	bl	399952 <__etext+0x37a526>
   19954:	f37d 0000 			; <UNDEFINED> instruction: 0xf37d0000
   19958:	ffff 0000 	vaddl.u<illegal width 64>	q8, d15, d0

0001995c <ble_advdata_set>:
   1995c:	b5f0      	push	{r4, r5, r6, r7, lr}
   1995e:	b093      	sub	sp, #76	; 0x4c
   19960:	466a      	mov	r2, sp
   19962:	231f      	movs	r3, #31
   19964:	ae01      	add	r6, sp, #4
   19966:	1d97      	adds	r7, r2, #6
   19968:	000d      	movs	r5, r1
   1996a:	8033      	strh	r3, [r6, #0]
   1996c:	803b      	strh	r3, [r7, #0]
   1996e:	2800      	cmp	r0, #0
   19970:	d01f      	beq.n	199b2 <ble_advdata_set+0x56>
   19972:	78c3      	ldrb	r3, [r0, #3]
   19974:	075b      	lsls	r3, r3, #29
   19976:	d402      	bmi.n	1997e <ble_advdata_set+0x22>
   19978:	2007      	movs	r0, #7
   1997a:	b013      	add	sp, #76	; 0x4c
   1997c:	bdf0      	pop	{r4, r5, r6, r7, pc}
   1997e:	0032      	movs	r2, r6
   19980:	a902      	add	r1, sp, #8
   19982:	f7ff fdb3 	bl	194ec <adv_data_encode>
   19986:	ac02      	add	r4, sp, #8
   19988:	2800      	cmp	r0, #0
   1998a:	d1f6      	bne.n	1997a <ble_advdata_set+0x1e>
   1998c:	2d00      	cmp	r5, #0
   1998e:	d013      	beq.n	199b8 <ble_advdata_set+0x5c>
   19990:	78eb      	ldrb	r3, [r5, #3]
   19992:	2b00      	cmp	r3, #0
   19994:	d1f0      	bne.n	19978 <ble_advdata_set+0x1c>
   19996:	003a      	movs	r2, r7
   19998:	a90a      	add	r1, sp, #40	; 0x28
   1999a:	0028      	movs	r0, r5
   1999c:	f7ff fda6 	bl	194ec <adv_data_encode>
   199a0:	aa0a      	add	r2, sp, #40	; 0x28
   199a2:	2800      	cmp	r0, #0
   199a4:	d1e9      	bne.n	1997a <ble_advdata_set+0x1e>
   199a6:	783b      	ldrb	r3, [r7, #0]
   199a8:	7831      	ldrb	r1, [r6, #0]
   199aa:	0020      	movs	r0, r4
   199ac:	f7ff fd20 	bl	193f0 <sd_ble_gap_adv_data_set>
   199b0:	e7e3      	b.n	1997a <ble_advdata_set+0x1e>
   199b2:	8030      	strh	r0, [r6, #0]
   199b4:	0004      	movs	r4, r0
   199b6:	e7e9      	b.n	1998c <ble_advdata_set+0x30>
   199b8:	803d      	strh	r5, [r7, #0]
   199ba:	002a      	movs	r2, r5
   199bc:	e7f3      	b.n	199a6 <ble_advdata_set+0x4a>

000199be <sd_ble_gap_conn_param_update>:
   199be:	df75      	svc	117	; 0x75
   199c0:	4770      	bx	lr

000199c2 <sd_ble_gap_disconnect>:
   199c2:	df76      	svc	118	; 0x76
   199c4:	4770      	bx	lr

000199c6 <sd_ble_gap_ppcp_set>:
   199c6:	df7a      	svc	122	; 0x7a
   199c8:	4770      	bx	lr

000199ca <sd_ble_gap_ppcp_get>:
   199ca:	df7b      	svc	123	; 0x7b
   199cc:	4770      	bx	lr
	...

000199d0 <update_timeout_handler>:
   199d0:	4b16      	ldr	r3, [pc, #88]	; (19a2c <update_timeout_handler+0x5c>)
   199d2:	b513      	push	{r0, r1, r4, lr}
   199d4:	8818      	ldrh	r0, [r3, #0]
   199d6:	4b16      	ldr	r3, [pc, #88]	; (19a30 <update_timeout_handler+0x60>)
   199d8:	4298      	cmp	r0, r3
   199da:	d011      	beq.n	19a00 <update_timeout_handler+0x30>
   199dc:	4a15      	ldr	r2, [pc, #84]	; (19a34 <update_timeout_handler+0x64>)
   199de:	4c16      	ldr	r4, [pc, #88]	; (19a38 <update_timeout_handler+0x68>)
   199e0:	7813      	ldrb	r3, [r2, #0]
   199e2:	3301      	adds	r3, #1
   199e4:	b2db      	uxtb	r3, r3
   199e6:	7013      	strb	r3, [r2, #0]
   199e8:	7b21      	ldrb	r1, [r4, #12]
   199ea:	4299      	cmp	r1, r3
   199ec:	d309      	bcc.n	19a02 <update_timeout_handler+0x32>
   199ee:	4913      	ldr	r1, [pc, #76]	; (19a3c <update_timeout_handler+0x6c>)
   199f0:	f7ff ffe5 	bl	199be <sd_ble_gap_conn_param_update>
   199f4:	2800      	cmp	r0, #0
   199f6:	d003      	beq.n	19a00 <update_timeout_handler+0x30>
   199f8:	69a3      	ldr	r3, [r4, #24]
   199fa:	2b00      	cmp	r3, #0
   199fc:	d000      	beq.n	19a00 <update_timeout_handler+0x30>
   199fe:	4798      	blx	r3
   19a00:	bd13      	pop	{r0, r1, r4, pc}
   19a02:	2300      	movs	r3, #0
   19a04:	7013      	strb	r3, [r2, #0]
   19a06:	7c23      	ldrb	r3, [r4, #16]
   19a08:	2b00      	cmp	r3, #0
   19a0a:	d008      	beq.n	19a1e <update_timeout_handler+0x4e>
   19a0c:	213b      	movs	r1, #59	; 0x3b
   19a0e:	f7ff ffd8 	bl	199c2 <sd_ble_gap_disconnect>
   19a12:	2800      	cmp	r0, #0
   19a14:	d003      	beq.n	19a1e <update_timeout_handler+0x4e>
   19a16:	69a3      	ldr	r3, [r4, #24]
   19a18:	2b00      	cmp	r3, #0
   19a1a:	d000      	beq.n	19a1e <update_timeout_handler+0x4e>
   19a1c:	4798      	blx	r3
   19a1e:	6963      	ldr	r3, [r4, #20]
   19a20:	2b00      	cmp	r3, #0
   19a22:	d0ed      	beq.n	19a00 <update_timeout_handler+0x30>
   19a24:	2200      	movs	r2, #0
   19a26:	a801      	add	r0, sp, #4
   19a28:	7002      	strb	r2, [r0, #0]
   19a2a:	e7e8      	b.n	199fe <update_timeout_handler+0x2e>
   19a2c:	2566      	movs	r5, #102	; 0x66
   19a2e:	2000      	movs	r0, #0
   19a30:	ffff 0000 	vaddl.u<illegal width 64>	q8, d15, d0
   19a34:	25b4      	movs	r5, #180	; 0xb4
   19a36:	2000      	movs	r0, #0
   19a38:	2568      	movs	r5, #104	; 0x68
   19a3a:	2000      	movs	r0, #0
   19a3c:	25ac      	movs	r5, #172	; 0xac
   19a3e:	2000      	movs	r0, #0

00019a40 <conn_params_negotiation>:
   19a40:	b537      	push	{r0, r1, r2, r4, r5, lr}
   19a42:	4b18      	ldr	r3, [pc, #96]	; (19aa4 <conn_params_negotiation+0x64>)
   19a44:	4a18      	ldr	r2, [pc, #96]	; (19aa8 <conn_params_negotiation+0x68>)
   19a46:	885b      	ldrh	r3, [r3, #2]
   19a48:	8811      	ldrh	r1, [r2, #0]
   19a4a:	4c18      	ldr	r4, [pc, #96]	; (19aac <conn_params_negotiation+0x6c>)
   19a4c:	4d18      	ldr	r5, [pc, #96]	; (19ab0 <conn_params_negotiation+0x70>)
   19a4e:	4299      	cmp	r1, r3
   19a50:	d808      	bhi.n	19a64 <conn_params_negotiation+0x24>
   19a52:	8852      	ldrh	r2, [r2, #2]
   19a54:	429a      	cmp	r2, r3
   19a56:	d305      	bcc.n	19a64 <conn_params_negotiation+0x24>
   19a58:	6963      	ldr	r3, [r4, #20]
   19a5a:	2b00      	cmp	r3, #0
   19a5c:	d11e      	bne.n	19a9c <conn_params_negotiation+0x5c>
   19a5e:	2300      	movs	r3, #0
   19a60:	702b      	strb	r3, [r5, #0]
   19a62:	bd37      	pop	{r0, r1, r2, r4, r5, pc}
   19a64:	782b      	ldrb	r3, [r5, #0]
   19a66:	2b00      	cmp	r3, #0
   19a68:	d006      	beq.n	19a78 <conn_params_negotiation+0x38>
   19a6a:	6963      	ldr	r3, [r4, #20]
   19a6c:	2b00      	cmp	r3, #0
   19a6e:	d0f6      	beq.n	19a5e <conn_params_negotiation+0x1e>
   19a70:	2200      	movs	r2, #0
   19a72:	a801      	add	r0, sp, #4
   19a74:	7002      	strb	r2, [r0, #0]
   19a76:	e00d      	b.n	19a94 <conn_params_negotiation+0x54>
   19a78:	4b0e      	ldr	r3, [pc, #56]	; (19ab4 <conn_params_negotiation+0x74>)
   19a7a:	781b      	ldrb	r3, [r3, #0]
   19a7c:	2b00      	cmp	r3, #0
   19a7e:	d10b      	bne.n	19a98 <conn_params_negotiation+0x58>
   19a80:	6861      	ldr	r1, [r4, #4]
   19a82:	2200      	movs	r2, #0
   19a84:	480c      	ldr	r0, [pc, #48]	; (19ab8 <conn_params_negotiation+0x78>)
   19a86:	f7ff fc43 	bl	19310 <app_timer_start>
   19a8a:	2800      	cmp	r0, #0
   19a8c:	d0e7      	beq.n	19a5e <conn_params_negotiation+0x1e>
   19a8e:	69a3      	ldr	r3, [r4, #24]
   19a90:	2b00      	cmp	r3, #0
   19a92:	d0e4      	beq.n	19a5e <conn_params_negotiation+0x1e>
   19a94:	4798      	blx	r3
   19a96:	e7e2      	b.n	19a5e <conn_params_negotiation+0x1e>
   19a98:	68a1      	ldr	r1, [r4, #8]
   19a9a:	e7f2      	b.n	19a82 <conn_params_negotiation+0x42>
   19a9c:	a801      	add	r0, sp, #4
   19a9e:	2201      	movs	r2, #1
   19aa0:	e7e8      	b.n	19a74 <conn_params_negotiation+0x34>
   19aa2:	46c0      	nop			; (mov r8, r8)
   19aa4:	25a4      	movs	r5, #164	; 0xa4
   19aa6:	2000      	movs	r0, #0
   19aa8:	25ac      	movs	r5, #172	; 0xac
   19aaa:	2000      	movs	r0, #0
   19aac:	2568      	movs	r5, #104	; 0x68
   19aae:	2000      	movs	r0, #0
   19ab0:	2564      	movs	r5, #100	; 0x64
   19ab2:	2000      	movs	r0, #0
   19ab4:	25b4      	movs	r5, #180	; 0xb4
   19ab6:	2000      	movs	r0, #0
   19ab8:	2584      	movs	r5, #132	; 0x84
   19aba:	2000      	movs	r0, #0

00019abc <ble_conn_params_init>:
   19abc:	4914      	ldr	r1, [pc, #80]	; (19b10 <ble_conn_params_init+0x54>)
   19abe:	0002      	movs	r2, r0
   19ac0:	000b      	movs	r3, r1
   19ac2:	b570      	push	{r4, r5, r6, lr}
   19ac4:	ca32      	ldmia	r2!, {r1, r4, r5}
   19ac6:	c332      	stmia	r3!, {r1, r4, r5}
   19ac8:	ca32      	ldmia	r2!, {r1, r4, r5}
   19aca:	c332      	stmia	r3!, {r1, r4, r5}
   19acc:	6812      	ldr	r2, [r2, #0]
   19ace:	4c11      	ldr	r4, [pc, #68]	; (19b14 <ble_conn_params_init+0x58>)
   19ad0:	601a      	str	r2, [r3, #0]
   19ad2:	2200      	movs	r2, #0
   19ad4:	4b10      	ldr	r3, [pc, #64]	; (19b18 <ble_conn_params_init+0x5c>)
   19ad6:	6801      	ldr	r1, [r0, #0]
   19ad8:	701a      	strb	r2, [r3, #0]
   19ada:	4291      	cmp	r1, r2
   19adc:	d014      	beq.n	19b08 <ble_conn_params_init+0x4c>
   19ade:	3208      	adds	r2, #8
   19ae0:	0020      	movs	r0, r4
   19ae2:	f002 fd87 	bl	1c5f4 <memcpy>
   19ae6:	0020      	movs	r0, r4
   19ae8:	f7ff ff6d 	bl	199c6 <sd_ble_gap_ppcp_set>
   19aec:	2800      	cmp	r0, #0
   19aee:	d10a      	bne.n	19b06 <ble_conn_params_init+0x4a>
   19af0:	2201      	movs	r2, #1
   19af2:	2100      	movs	r1, #0
   19af4:	4b09      	ldr	r3, [pc, #36]	; (19b1c <ble_conn_params_init+0x60>)
   19af6:	4252      	negs	r2, r2
   19af8:	801a      	strh	r2, [r3, #0]
   19afa:	4b09      	ldr	r3, [pc, #36]	; (19b20 <ble_conn_params_init+0x64>)
   19afc:	4a09      	ldr	r2, [pc, #36]	; (19b24 <ble_conn_params_init+0x68>)
   19afe:	480a      	ldr	r0, [pc, #40]	; (19b28 <ble_conn_params_init+0x6c>)
   19b00:	7019      	strb	r1, [r3, #0]
   19b02:	f7ff fbed 	bl	192e0 <app_timer_create>
   19b06:	bd70      	pop	{r4, r5, r6, pc}
   19b08:	0020      	movs	r0, r4
   19b0a:	f7ff ff5e 	bl	199ca <sd_ble_gap_ppcp_get>
   19b0e:	e7ed      	b.n	19aec <ble_conn_params_init+0x30>
   19b10:	2568      	movs	r5, #104	; 0x68
   19b12:	2000      	movs	r0, #0
   19b14:	25ac      	movs	r5, #172	; 0xac
   19b16:	2000      	movs	r0, #0
   19b18:	2564      	movs	r5, #100	; 0x64
   19b1a:	2000      	movs	r0, #0
   19b1c:	2566      	movs	r5, #102	; 0x66
   19b1e:	2000      	movs	r0, #0
   19b20:	25b4      	movs	r5, #180	; 0xb4
   19b22:	2000      	movs	r0, #0
   19b24:	99d1      	ldr	r1, [sp, #836]	; 0x344
   19b26:	0001      	movs	r1, r0
   19b28:	f1e4 0001 			; <UNDEFINED> instruction: 0xf1e40001

00019b2c <ble_conn_params_on_ble_evt>:
   19b2c:	8803      	ldrh	r3, [r0, #0]
   19b2e:	b510      	push	{r4, lr}
   19b30:	2b11      	cmp	r3, #17
   19b32:	d02d      	beq.n	19b90 <ble_conn_params_on_ble_evt+0x64>
   19b34:	d802      	bhi.n	19b3c <ble_conn_params_on_ble_evt+0x10>
   19b36:	2b10      	cmp	r3, #16
   19b38:	d017      	beq.n	19b6a <ble_conn_params_on_ble_evt+0x3e>
   19b3a:	bd10      	pop	{r4, pc}
   19b3c:	2b12      	cmp	r3, #18
   19b3e:	d039      	beq.n	19bb4 <ble_conn_params_on_ble_evt+0x88>
   19b40:	2b50      	cmp	r3, #80	; 0x50
   19b42:	d1fa      	bne.n	19b3a <ble_conn_params_on_ble_evt+0xe>
   19b44:	4c1e      	ldr	r4, [pc, #120]	; (19bc0 <ble_conn_params_on_ble_evt+0x94>)
   19b46:	88c1      	ldrh	r1, [r0, #6]
   19b48:	89e2      	ldrh	r2, [r4, #14]
   19b4a:	4291      	cmp	r1, r2
   19b4c:	d1f5      	bne.n	19b3a <ble_conn_params_on_ble_evt+0xe>
   19b4e:	8bc3      	ldrh	r3, [r0, #30]
   19b50:	2b02      	cmp	r3, #2
   19b52:	d1f2      	bne.n	19b3a <ble_conn_params_on_ble_evt+0xe>
   19b54:	3001      	adds	r0, #1
   19b56:	7fc3      	ldrb	r3, [r0, #31]
   19b58:	07db      	lsls	r3, r3, #31
   19b5a:	d416      	bmi.n	19b8a <ble_conn_params_on_ble_evt+0x5e>
   19b5c:	4819      	ldr	r0, [pc, #100]	; (19bc4 <ble_conn_params_on_ble_evt+0x98>)
   19b5e:	f7ff fc19 	bl	19394 <app_timer_stop>
   19b62:	2800      	cmp	r0, #0
   19b64:	d0e9      	beq.n	19b3a <ble_conn_params_on_ble_evt+0xe>
   19b66:	69a3      	ldr	r3, [r4, #24]
   19b68:	e020      	b.n	19bac <ble_conn_params_on_ble_evt+0x80>
   19b6a:	0001      	movs	r1, r0
   19b6c:	8882      	ldrh	r2, [r0, #4]
   19b6e:	4b16      	ldr	r3, [pc, #88]	; (19bc8 <ble_conn_params_on_ble_evt+0x9c>)
   19b70:	3116      	adds	r1, #22
   19b72:	801a      	strh	r2, [r3, #0]
   19b74:	4815      	ldr	r0, [pc, #84]	; (19bcc <ble_conn_params_on_ble_evt+0xa0>)
   19b76:	2208      	movs	r2, #8
   19b78:	f002 fd3c 	bl	1c5f4 <memcpy>
   19b7c:	2200      	movs	r2, #0
   19b7e:	4b14      	ldr	r3, [pc, #80]	; (19bd0 <ble_conn_params_on_ble_evt+0xa4>)
   19b80:	701a      	strb	r2, [r3, #0]
   19b82:	4b0f      	ldr	r3, [pc, #60]	; (19bc0 <ble_conn_params_on_ble_evt+0x94>)
   19b84:	89db      	ldrh	r3, [r3, #14]
   19b86:	4293      	cmp	r3, r2
   19b88:	d1d7      	bne.n	19b3a <ble_conn_params_on_ble_evt+0xe>
   19b8a:	f7ff ff59 	bl	19a40 <conn_params_negotiation>
   19b8e:	e7d4      	b.n	19b3a <ble_conn_params_on_ble_evt+0xe>
   19b90:	2201      	movs	r2, #1
   19b92:	4b0d      	ldr	r3, [pc, #52]	; (19bc8 <ble_conn_params_on_ble_evt+0x9c>)
   19b94:	4252      	negs	r2, r2
   19b96:	801a      	strh	r2, [r3, #0]
   19b98:	2200      	movs	r2, #0
   19b9a:	4b0d      	ldr	r3, [pc, #52]	; (19bd0 <ble_conn_params_on_ble_evt+0xa4>)
   19b9c:	4809      	ldr	r0, [pc, #36]	; (19bc4 <ble_conn_params_on_ble_evt+0x98>)
   19b9e:	701a      	strb	r2, [r3, #0]
   19ba0:	f7ff fbf8 	bl	19394 <app_timer_stop>
   19ba4:	2800      	cmp	r0, #0
   19ba6:	d0c8      	beq.n	19b3a <ble_conn_params_on_ble_evt+0xe>
   19ba8:	4b05      	ldr	r3, [pc, #20]	; (19bc0 <ble_conn_params_on_ble_evt+0x94>)
   19baa:	699b      	ldr	r3, [r3, #24]
   19bac:	2b00      	cmp	r3, #0
   19bae:	d0c4      	beq.n	19b3a <ble_conn_params_on_ble_evt+0xe>
   19bb0:	4798      	blx	r3
   19bb2:	e7c2      	b.n	19b3a <ble_conn_params_on_ble_evt+0xe>
   19bb4:	1d81      	adds	r1, r0, #6
   19bb6:	2208      	movs	r2, #8
   19bb8:	4804      	ldr	r0, [pc, #16]	; (19bcc <ble_conn_params_on_ble_evt+0xa0>)
   19bba:	f002 fd1b 	bl	1c5f4 <memcpy>
   19bbe:	e7e4      	b.n	19b8a <ble_conn_params_on_ble_evt+0x5e>
   19bc0:	2568      	movs	r5, #104	; 0x68
   19bc2:	2000      	movs	r0, #0
   19bc4:	2584      	movs	r5, #132	; 0x84
   19bc6:	2000      	movs	r0, #0
   19bc8:	2566      	movs	r5, #102	; 0x66
   19bca:	2000      	movs	r0, #0
   19bcc:	25a4      	movs	r5, #164	; 0xa4
   19bce:	2000      	movs	r0, #0
   19bd0:	25b4      	movs	r5, #180	; 0xb4
   19bd2:	2000      	movs	r0, #0

00019bd4 <led_init>:
   19bd4:	0003      	movs	r3, r0
   19bd6:	22a0      	movs	r2, #160	; 0xa0
   19bd8:	2103      	movs	r1, #3
   19bda:	33c1      	adds	r3, #193	; 0xc1
   19bdc:	33ff      	adds	r3, #255	; 0xff
   19bde:	05d2      	lsls	r2, r2, #23
   19be0:	009b      	lsls	r3, r3, #2
   19be2:	5099      	str	r1, [r3, r2]
   19be4:	2301      	movs	r3, #1
   19be6:	21a1      	movs	r1, #161	; 0xa1
   19be8:	4083      	lsls	r3, r0
   19bea:	00c9      	lsls	r1, r1, #3
   19bec:	5053      	str	r3, [r2, r1]
   19bee:	4770      	bx	lr

00019bf0 <led_on>:
   19bf0:	2301      	movs	r3, #1
   19bf2:	21a0      	movs	r1, #160	; 0xa0
   19bf4:	4083      	lsls	r3, r0
   19bf6:	4a02      	ldr	r2, [pc, #8]	; (19c00 <led_on+0x10>)
   19bf8:	05c9      	lsls	r1, r1, #23
   19bfa:	508b      	str	r3, [r1, r2]
   19bfc:	4770      	bx	lr
   19bfe:	46c0      	nop			; (mov r8, r8)
   19c00:	050c      	lsls	r4, r1, #20
	...

00019c04 <led_off>:
   19c04:	2301      	movs	r3, #1
   19c06:	21a0      	movs	r1, #160	; 0xa0
   19c08:	22a1      	movs	r2, #161	; 0xa1
   19c0a:	4083      	lsls	r3, r0
   19c0c:	05c9      	lsls	r1, r1, #23
   19c0e:	00d2      	lsls	r2, r2, #3
   19c10:	508b      	str	r3, [r1, r2]
   19c12:	4770      	bx	lr

00019c14 <led_toggle>:
   19c14:	23a0      	movs	r3, #160	; 0xa0
   19c16:	b510      	push	{r4, lr}
   19c18:	2401      	movs	r4, #1
   19c1a:	4a07      	ldr	r2, [pc, #28]	; (19c38 <led_toggle+0x24>)
   19c1c:	05db      	lsls	r3, r3, #23
   19c1e:	589a      	ldr	r2, [r3, r2]
   19c20:	0021      	movs	r1, r4
   19c22:	40c2      	lsrs	r2, r0
   19c24:	4081      	lsls	r1, r0
   19c26:	4222      	tst	r2, r4
   19c28:	d103      	bne.n	19c32 <led_toggle+0x1e>
   19c2a:	22a1      	movs	r2, #161	; 0xa1
   19c2c:	00d2      	lsls	r2, r2, #3
   19c2e:	5099      	str	r1, [r3, r2]
   19c30:	bd10      	pop	{r4, pc}
   19c32:	4a02      	ldr	r2, [pc, #8]	; (19c3c <led_toggle+0x28>)
   19c34:	e7fb      	b.n	19c2e <led_toggle+0x1a>
   19c36:	46c0      	nop			; (mov r8, r8)
   19c38:	0504      	lsls	r4, r0, #20
   19c3a:	0000      	movs	r0, r0
   19c3c:	050c      	lsls	r4, r1, #20
	...

00019c40 <nrf_delay_ms>:
   19c40:	b082      	sub	sp, #8
   19c42:	9001      	str	r0, [sp, #4]
   19c44:	9b01      	ldr	r3, [sp, #4]
   19c46:	2b00      	cmp	r3, #0
   19c48:	d101      	bne.n	19c4e <nrf_delay_ms+0xe>
   19c4a:	b002      	add	sp, #8
   19c4c:	4770      	bx	lr
   19c4e:	9b01      	ldr	r3, [sp, #4]
   19c50:	4808      	ldr	r0, [pc, #32]	; (19c74 <nrf_delay_ms+0x34>)
   19c52:	3b01      	subs	r3, #1
   19c54:	9301      	str	r3, [sp, #4]
   19c56:	3801      	subs	r0, #1
   19c58:	46c0      	nop			; (mov r8, r8)
   19c5a:	46c0      	nop			; (mov r8, r8)
   19c5c:	46c0      	nop			; (mov r8, r8)
   19c5e:	46c0      	nop			; (mov r8, r8)
   19c60:	46c0      	nop			; (mov r8, r8)
   19c62:	46c0      	nop			; (mov r8, r8)
   19c64:	46c0      	nop			; (mov r8, r8)
   19c66:	46c0      	nop			; (mov r8, r8)
   19c68:	46c0      	nop			; (mov r8, r8)
   19c6a:	46c0      	nop			; (mov r8, r8)
   19c6c:	46c0      	nop			; (mov r8, r8)
   19c6e:	46c0      	nop			; (mov r8, r8)
   19c70:	d1f1      	bne.n	19c56 <nrf_delay_ms+0x16>
   19c72:	e7e7      	b.n	19c44 <nrf_delay_ms+0x4>
   19c74:	03e7      	lsls	r7, r4, #15
	...

00019c78 <nrf_drv_common_irq_enable>:
   19c78:	b530      	push	{r4, r5, lr}
   19c7a:	25ff      	movs	r5, #255	; 0xff
   19c7c:	2303      	movs	r3, #3
   19c7e:	002c      	movs	r4, r5
   19c80:	b2c2      	uxtb	r2, r0
   19c82:	4013      	ands	r3, r2
   19c84:	00db      	lsls	r3, r3, #3
   19c86:	409c      	lsls	r4, r3
   19c88:	0189      	lsls	r1, r1, #6
   19c8a:	4029      	ands	r1, r5
   19c8c:	43e4      	mvns	r4, r4
   19c8e:	4099      	lsls	r1, r3
   19c90:	2800      	cmp	r0, #0
   19c92:	da14      	bge.n	19cbe <nrf_drv_common_irq_enable+0x46>
   19c94:	230f      	movs	r3, #15
   19c96:	4013      	ands	r3, r2
   19c98:	3b08      	subs	r3, #8
   19c9a:	480e      	ldr	r0, [pc, #56]	; (19cd4 <nrf_drv_common_irq_enable+0x5c>)
   19c9c:	089b      	lsrs	r3, r3, #2
   19c9e:	009b      	lsls	r3, r3, #2
   19ca0:	181b      	adds	r3, r3, r0
   19ca2:	69d8      	ldr	r0, [r3, #28]
   19ca4:	4004      	ands	r4, r0
   19ca6:	4321      	orrs	r1, r4
   19ca8:	61d9      	str	r1, [r3, #28]
   19caa:	231f      	movs	r3, #31
   19cac:	21c0      	movs	r1, #192	; 0xc0
   19cae:	401a      	ands	r2, r3
   19cb0:	3b1e      	subs	r3, #30
   19cb2:	4093      	lsls	r3, r2
   19cb4:	4a08      	ldr	r2, [pc, #32]	; (19cd8 <nrf_drv_common_irq_enable+0x60>)
   19cb6:	0049      	lsls	r1, r1, #1
   19cb8:	5053      	str	r3, [r2, r1]
   19cba:	6013      	str	r3, [r2, #0]
   19cbc:	bd30      	pop	{r4, r5, pc}
   19cbe:	25c0      	movs	r5, #192	; 0xc0
   19cc0:	4b05      	ldr	r3, [pc, #20]	; (19cd8 <nrf_drv_common_irq_enable+0x60>)
   19cc2:	0880      	lsrs	r0, r0, #2
   19cc4:	0080      	lsls	r0, r0, #2
   19cc6:	18c0      	adds	r0, r0, r3
   19cc8:	00ad      	lsls	r5, r5, #2
   19cca:	5943      	ldr	r3, [r0, r5]
   19ccc:	401c      	ands	r4, r3
   19cce:	4321      	orrs	r1, r4
   19cd0:	5141      	str	r1, [r0, r5]
   19cd2:	e7ea      	b.n	19caa <nrf_drv_common_irq_enable+0x32>
   19cd4:	ed00 e000 	stc	0, cr14, [r0, #-0]
   19cd8:	e100      	b.n	19edc <tx_done+0x4>
   19cda:	e000      	b.n	19cde <sd_nvic_critical_region_enter+0x2>

00019cdc <sd_nvic_critical_region_enter>:
   19cdc:	df36      	svc	54	; 0x36
   19cde:	4770      	bx	lr

00019ce0 <sd_nvic_critical_region_exit>:
   19ce0:	df37      	svc	55	; 0x37
   19ce2:	4770      	bx	lr

00019ce4 <state_machine>:
   19ce4:	b5f7      	push	{r0, r1, r2, r4, r5, r6, r7, lr}
   19ce6:	2218      	movs	r2, #24
   19ce8:	7945      	ldrb	r5, [r0, #5]
   19cea:	4c12      	ldr	r4, [pc, #72]	; (19d34 <state_machine+0x50>)
   19cec:	436a      	muls	r2, r5
   19cee:	18a2      	adds	r2, r4, r2
   19cf0:	7852      	ldrb	r2, [r2, #1]
   19cf2:	4b11      	ldr	r3, [pc, #68]	; (19d38 <state_machine+0x54>)
   19cf4:	0092      	lsls	r2, r2, #2
   19cf6:	58d7      	ldr	r7, [r2, r3]
   19cf8:	4b10      	ldr	r3, [pc, #64]	; (19d3c <state_machine+0x58>)
   19cfa:	9101      	str	r1, [sp, #4]
   19cfc:	58d2      	ldr	r2, [r2, r3]
   19cfe:	2300      	movs	r3, #0
   19d00:	429f      	cmp	r7, r3
   19d02:	d014      	beq.n	19d2e <state_machine+0x4a>
   19d04:	2108      	movs	r1, #8
   19d06:	4249      	negs	r1, r1
   19d08:	468c      	mov	ip, r1
   19d0a:	0016      	movs	r6, r2
   19d0c:	3208      	adds	r2, #8
   19d0e:	4494      	add	ip, r2
   19d10:	4661      	mov	r1, ip
   19d12:	7809      	ldrb	r1, [r1, #0]
   19d14:	468c      	mov	ip, r1
   19d16:	9901      	ldr	r1, [sp, #4]
   19d18:	458c      	cmp	ip, r1
   19d1a:	d109      	bne.n	19d30 <state_machine+0x4c>
   19d1c:	2318      	movs	r3, #24
   19d1e:	436b      	muls	r3, r5
   19d20:	7872      	ldrb	r2, [r6, #1]
   19d22:	18e3      	adds	r3, r4, r3
   19d24:	705a      	strb	r2, [r3, #1]
   19d26:	6873      	ldr	r3, [r6, #4]
   19d28:	2b00      	cmp	r3, #0
   19d2a:	d000      	beq.n	19d2e <state_machine+0x4a>
   19d2c:	4798      	blx	r3
   19d2e:	bdf7      	pop	{r0, r1, r2, r4, r5, r6, r7, pc}
   19d30:	3301      	adds	r3, #1
   19d32:	e7e5      	b.n	19d00 <state_machine+0x1c>
   19d34:	25b8      	movs	r5, #184	; 0xb8
   19d36:	2000      	movs	r0, #0
   19d38:	f250 0001 			; <UNDEFINED> instruction: 0xf2500001
   19d3c:	f2a4 0001 	subw	r0, r4, #1

00019d40 <txrx_shorts_set_task_start>:
   19d40:	2280      	movs	r2, #128	; 0x80
   19d42:	2103      	movs	r1, #3
   19d44:	b5f8      	push	{r3, r4, r5, r6, r7, lr}
   19d46:	0006      	movs	r6, r0
   19d48:	7945      	ldrb	r5, [r0, #5]
   19d4a:	6800      	ldr	r0, [r0, #0]
   19d4c:	0092      	lsls	r2, r2, #2
   19d4e:	5883      	ldr	r3, [r0, r2]
   19d50:	4c1c      	ldr	r4, [pc, #112]	; (19dc4 <txrx_shorts_set_task_start+0x84>)
   19d52:	438b      	bics	r3, r1
   19d54:	5083      	str	r3, [r0, r2]
   19d56:	2318      	movs	r3, #24
   19d58:	436b      	muls	r3, r5
   19d5a:	18e3      	adds	r3, r4, r3
   19d5c:	89d9      	ldrh	r1, [r3, #14]
   19d5e:	899f      	ldrh	r7, [r3, #12]
   19d60:	3101      	adds	r1, #1
   19d62:	2201      	movs	r2, #1
   19d64:	42b9      	cmp	r1, r7
   19d66:	d11b      	bne.n	19da0 <txrx_shorts_set_task_start+0x60>
   19d68:	7959      	ldrb	r1, [r3, #5]
   19d6a:	2900      	cmp	r1, #0
   19d6c:	d118      	bne.n	19da0 <txrx_shorts_set_task_start+0x60>
   19d6e:	3204      	adds	r2, #4
   19d70:	32ff      	adds	r2, #255	; 0xff
   19d72:	825a      	strh	r2, [r3, #18]
   19d74:	0002      	movs	r2, r0
   19d76:	32fc      	adds	r2, #252	; 0xfc
   19d78:	6091      	str	r1, [r2, #8]
   19d7a:	4a13      	ldr	r2, [pc, #76]	; (19dc8 <txrx_shorts_set_task_start+0x88>)
   19d7c:	00a9      	lsls	r1, r5, #2
   19d7e:	588a      	ldr	r2, [r1, r2]
   19d80:	2a00      	cmp	r2, #0
   19d82:	d008      	beq.n	19d96 <txrx_shorts_set_task_start+0x56>
   19d84:	22c2      	movs	r2, #194	; 0xc2
   19d86:	6959      	ldr	r1, [r3, #20]
   19d88:	0092      	lsls	r2, r2, #2
   19d8a:	5081      	str	r1, [r0, r2]
   19d8c:	2202      	movs	r2, #2
   19d8e:	615a      	str	r2, [r3, #20]
   19d90:	23c1      	movs	r3, #193	; 0xc1
   19d92:	009b      	lsls	r3, r3, #2
   19d94:	50c2      	str	r2, [r0, r3]
   19d96:	2104      	movs	r1, #4
   19d98:	0030      	movs	r0, r6
   19d9a:	f7ff ffa3 	bl	19ce4 <state_machine>
   19d9e:	2202      	movs	r2, #2
   19da0:	2180      	movs	r1, #128	; 0x80
   19da2:	6833      	ldr	r3, [r6, #0]
   19da4:	0089      	lsls	r1, r1, #2
   19da6:	5858      	ldr	r0, [r3, r1]
   19da8:	4302      	orrs	r2, r0
   19daa:	505a      	str	r2, [r3, r1]
   19dac:	2218      	movs	r2, #24
   19dae:	4355      	muls	r5, r2
   19db0:	1964      	adds	r4, r4, r5
   19db2:	7c22      	ldrb	r2, [r4, #16]
   19db4:	39e1      	subs	r1, #225	; 0xe1
   19db6:	189b      	adds	r3, r3, r2
   19db8:	2201      	movs	r2, #1
   19dba:	39ff      	subs	r1, #255	; 0xff
   19dbc:	7421      	strb	r1, [r4, #16]
   19dbe:	601a      	str	r2, [r3, #0]
   19dc0:	bdf8      	pop	{r3, r4, r5, r6, r7, pc}
   19dc2:	46c0      	nop			; (mov r8, r8)
   19dc4:	25b8      	movs	r5, #184	; 0xb8
   19dc6:	2000      	movs	r0, #0
   19dc8:	25e8      	movs	r5, #232	; 0xe8
   19dca:	2000      	movs	r0, #0

00019dcc <rx_address_req>:
   19dcc:	2318      	movs	r3, #24
   19dce:	7941      	ldrb	r1, [r0, #5]
   19dd0:	b570      	push	{r4, r5, r6, lr}
   19dd2:	434b      	muls	r3, r1
   19dd4:	4c10      	ldr	r4, [pc, #64]	; (19e18 <rx_address_req+0x4c>)
   19dd6:	6802      	ldr	r2, [r0, #0]
   19dd8:	18e3      	adds	r3, r4, r3
   19dda:	24b1      	movs	r4, #177	; 0xb1
   19ddc:	79dd      	ldrb	r5, [r3, #7]
   19dde:	00e4      	lsls	r4, r4, #3
   19de0:	5115      	str	r5, [r2, r4]
   19de2:	2584      	movs	r5, #132	; 0x84
   19de4:	2401      	movs	r4, #1
   19de6:	006d      	lsls	r5, r5, #1
   19de8:	825d      	strh	r5, [r3, #18]
   19dea:	0015      	movs	r5, r2
   19dec:	6214      	str	r4, [r2, #32]
   19dee:	2400      	movs	r4, #0
   19df0:	35fc      	adds	r5, #252	; 0xfc
   19df2:	741c      	strb	r4, [r3, #16]
   19df4:	60ec      	str	r4, [r5, #12]
   19df6:	4c09      	ldr	r4, [pc, #36]	; (19e1c <rx_address_req+0x50>)
   19df8:	0089      	lsls	r1, r1, #2
   19dfa:	5909      	ldr	r1, [r1, r4]
   19dfc:	2900      	cmp	r1, #0
   19dfe:	d008      	beq.n	19e12 <rx_address_req+0x46>
   19e00:	21c2      	movs	r1, #194	; 0xc2
   19e02:	695c      	ldr	r4, [r3, #20]
   19e04:	0089      	lsls	r1, r1, #2
   19e06:	5054      	str	r4, [r2, r1]
   19e08:	2104      	movs	r1, #4
   19e0a:	6159      	str	r1, [r3, #20]
   19e0c:	23c1      	movs	r3, #193	; 0xc1
   19e0e:	009b      	lsls	r3, r3, #2
   19e10:	50d1      	str	r1, [r2, r3]
   19e12:	f7ff ff95 	bl	19d40 <txrx_shorts_set_task_start>
   19e16:	bd70      	pop	{r4, r5, r6, pc}
   19e18:	25b8      	movs	r5, #184	; 0xb8
   19e1a:	2000      	movs	r0, #0
   19e1c:	25e8      	movs	r5, #232	; 0xe8
   19e1e:	2000      	movs	r0, #0

00019e20 <rx_prepare>:
   19e20:	b510      	push	{r4, lr}
   19e22:	f7ff ff8d 	bl	19d40 <txrx_shorts_set_task_start>
   19e26:	bd10      	pop	{r4, pc}

00019e28 <rx_done>:
   19e28:	2218      	movs	r2, #24
   19e2a:	21a3      	movs	r1, #163	; 0xa3
   19e2c:	7943      	ldrb	r3, [r0, #5]
   19e2e:	b510      	push	{r4, lr}
   19e30:	4353      	muls	r3, r2
   19e32:	4a08      	ldr	r2, [pc, #32]	; (19e54 <rx_done+0x2c>)
   19e34:	6804      	ldr	r4, [r0, #0]
   19e36:	18d2      	adds	r2, r2, r3
   19e38:	00c9      	lsls	r1, r1, #3
   19e3a:	89d3      	ldrh	r3, [r2, #14]
   19e3c:	5861      	ldr	r1, [r4, r1]
   19e3e:	6894      	ldr	r4, [r2, #8]
   19e40:	54e1      	strb	r1, [r4, r3]
   19e42:	3301      	adds	r3, #1
   19e44:	b29b      	uxth	r3, r3
   19e46:	81d3      	strh	r3, [r2, #14]
   19e48:	8992      	ldrh	r2, [r2, #12]
   19e4a:	429a      	cmp	r2, r3
   19e4c:	d901      	bls.n	19e52 <rx_done+0x2a>
   19e4e:	f7ff ff77 	bl	19d40 <txrx_shorts_set_task_start>
   19e52:	bd10      	pop	{r4, pc}
   19e54:	25b8      	movs	r5, #184	; 0xb8
   19e56:	2000      	movs	r0, #0

00019e58 <tx_prepare>:
   19e58:	2318      	movs	r3, #24
   19e5a:	7942      	ldrb	r2, [r0, #5]
   19e5c:	b510      	push	{r4, lr}
   19e5e:	435a      	muls	r2, r3
   19e60:	4b05      	ldr	r3, [pc, #20]	; (19e78 <tx_prepare+0x20>)
   19e62:	6801      	ldr	r1, [r0, #0]
   19e64:	189b      	adds	r3, r3, r2
   19e66:	89da      	ldrh	r2, [r3, #14]
   19e68:	689b      	ldr	r3, [r3, #8]
   19e6a:	5c9a      	ldrb	r2, [r3, r2]
   19e6c:	4b03      	ldr	r3, [pc, #12]	; (19e7c <tx_prepare+0x24>)
   19e6e:	50ca      	str	r2, [r1, r3]
   19e70:	f7ff ff66 	bl	19d40 <txrx_shorts_set_task_start>
   19e74:	bd10      	pop	{r4, pc}
   19e76:	46c0      	nop			; (mov r8, r8)
   19e78:	25b8      	movs	r5, #184	; 0xb8
   19e7a:	2000      	movs	r0, #0
   19e7c:	051c      	lsls	r4, r3, #20
	...

00019e80 <address_req>:
   19e80:	2318      	movs	r3, #24
   19e82:	7941      	ldrb	r1, [r0, #5]
   19e84:	b570      	push	{r4, r5, r6, lr}
   19e86:	434b      	muls	r3, r1
   19e88:	4c11      	ldr	r4, [pc, #68]	; (19ed0 <address_req+0x50>)
   19e8a:	6802      	ldr	r2, [r0, #0]
   19e8c:	18e3      	adds	r3, r4, r3
   19e8e:	24b1      	movs	r4, #177	; 0xb1
   19e90:	79dd      	ldrb	r5, [r3, #7]
   19e92:	00e4      	lsls	r4, r4, #3
   19e94:	5115      	str	r5, [r2, r4]
   19e96:	2401      	movs	r4, #1
   19e98:	6214      	str	r4, [r2, #32]
   19e9a:	3407      	adds	r4, #7
   19e9c:	741c      	strb	r4, [r3, #16]
   19e9e:	3415      	adds	r4, #21
   19ea0:	34ff      	adds	r4, #255	; 0xff
   19ea2:	825c      	strh	r4, [r3, #18]
   19ea4:	0014      	movs	r4, r2
   19ea6:	2500      	movs	r5, #0
   19ea8:	34fc      	adds	r4, #252	; 0xfc
   19eaa:	6225      	str	r5, [r4, #32]
   19eac:	4c09      	ldr	r4, [pc, #36]	; (19ed4 <address_req+0x54>)
   19eae:	0089      	lsls	r1, r1, #2
   19eb0:	5909      	ldr	r1, [r1, r4]
   19eb2:	42a9      	cmp	r1, r5
   19eb4:	d008      	beq.n	19ec8 <address_req+0x48>
   19eb6:	21c2      	movs	r1, #194	; 0xc2
   19eb8:	695c      	ldr	r4, [r3, #20]
   19eba:	0089      	lsls	r1, r1, #2
   19ebc:	5054      	str	r4, [r2, r1]
   19ebe:	2180      	movs	r1, #128	; 0x80
   19ec0:	6159      	str	r1, [r3, #20]
   19ec2:	23c1      	movs	r3, #193	; 0xc1
   19ec4:	009b      	lsls	r3, r3, #2
   19ec6:	50d1      	str	r1, [r2, r3]
   19ec8:	f7ff ffc6 	bl	19e58 <tx_prepare>
   19ecc:	bd70      	pop	{r4, r5, r6, pc}
   19ece:	46c0      	nop			; (mov r8, r8)
   19ed0:	25b8      	movs	r5, #184	; 0xb8
   19ed2:	2000      	movs	r0, #0
   19ed4:	25e8      	movs	r5, #232	; 0xe8
   19ed6:	2000      	movs	r0, #0

00019ed8 <tx_done>:
   19ed8:	2218      	movs	r2, #24
   19eda:	7943      	ldrb	r3, [r0, #5]
   19edc:	b510      	push	{r4, lr}
   19ede:	4353      	muls	r3, r2
   19ee0:	4a05      	ldr	r2, [pc, #20]	; (19ef8 <tx_done+0x20>)
   19ee2:	18d2      	adds	r2, r2, r3
   19ee4:	89d3      	ldrh	r3, [r2, #14]
   19ee6:	3301      	adds	r3, #1
   19ee8:	b29b      	uxth	r3, r3
   19eea:	81d3      	strh	r3, [r2, #14]
   19eec:	8992      	ldrh	r2, [r2, #12]
   19eee:	429a      	cmp	r2, r3
   19ef0:	d901      	bls.n	19ef6 <tx_done+0x1e>
   19ef2:	f7ff ffb1 	bl	19e58 <tx_prepare>
   19ef6:	bd10      	pop	{r4, pc}
   19ef8:	25b8      	movs	r5, #184	; 0xb8
   19efa:	2000      	movs	r0, #0

00019efc <on_error>:
   19efc:	2218      	movs	r2, #24
   19efe:	b510      	push	{r4, lr}
   19f00:	7941      	ldrb	r1, [r0, #5]
   19f02:	4b0e      	ldr	r3, [pc, #56]	; (19f3c <on_error+0x40>)
   19f04:	434a      	muls	r2, r1
   19f06:	189a      	adds	r2, r3, r2
   19f08:	2382      	movs	r3, #130	; 0x82
   19f0a:	005b      	lsls	r3, r3, #1
   19f0c:	8253      	strh	r3, [r2, #18]
   19f0e:	6803      	ldr	r3, [r0, #0]
   19f10:	2400      	movs	r4, #0
   19f12:	0018      	movs	r0, r3
   19f14:	30fc      	adds	r0, #252	; 0xfc
   19f16:	6084      	str	r4, [r0, #8]
   19f18:	4809      	ldr	r0, [pc, #36]	; (19f40 <on_error+0x44>)
   19f1a:	0089      	lsls	r1, r1, #2
   19f1c:	5809      	ldr	r1, [r1, r0]
   19f1e:	42a1      	cmp	r1, r4
   19f20:	d008      	beq.n	19f34 <on_error+0x38>
   19f22:	21c2      	movs	r1, #194	; 0xc2
   19f24:	6950      	ldr	r0, [r2, #20]
   19f26:	0089      	lsls	r1, r1, #2
   19f28:	5058      	str	r0, [r3, r1]
   19f2a:	2102      	movs	r1, #2
   19f2c:	6151      	str	r1, [r2, #20]
   19f2e:	22c1      	movs	r2, #193	; 0xc1
   19f30:	0092      	lsls	r2, r2, #2
   19f32:	5099      	str	r1, [r3, r2]
   19f34:	2201      	movs	r2, #1
   19f36:	621a      	str	r2, [r3, #32]
   19f38:	615a      	str	r2, [r3, #20]
   19f3a:	bd10      	pop	{r4, pc}
   19f3c:	25b8      	movs	r5, #184	; 0xb8
   19f3e:	2000      	movs	r0, #0
   19f40:	25e8      	movs	r5, #232	; 0xe8
   19f42:	2000      	movs	r0, #0

00019f44 <ack_error>:
   19f44:	2318      	movs	r3, #24
   19f46:	7942      	ldrb	r2, [r0, #5]
   19f48:	435a      	muls	r2, r3
   19f4a:	4b02      	ldr	r3, [pc, #8]	; (19f54 <ack_error+0x10>)
   19f4c:	189b      	adds	r3, r3, r2
   19f4e:	2201      	movs	r2, #1
   19f50:	719a      	strb	r2, [r3, #6]
   19f52:	4770      	bx	lr
   19f54:	25b8      	movs	r5, #184	; 0xb8
   19f56:	2000      	movs	r0, #0

00019f58 <twi_transfer>:
   19f58:	b5f0      	push	{r4, r5, r6, r7, lr}
   19f5a:	b089      	sub	sp, #36	; 0x24
   19f5c:	9203      	str	r2, [sp, #12]
   19f5e:	2200      	movs	r2, #0
   19f60:	9304      	str	r3, [sp, #16]
   19f62:	ab0e      	add	r3, sp, #56	; 0x38
   19f64:	781b      	ldrb	r3, [r3, #0]
   19f66:	9102      	str	r1, [sp, #8]
   19f68:	9305      	str	r3, [sp, #20]
   19f6a:	ab0f      	add	r3, sp, #60	; 0x3c
   19f6c:	781b      	ldrb	r3, [r3, #0]
   19f6e:	0007      	movs	r7, r0
   19f70:	9301      	str	r3, [sp, #4]
   19f72:	ab06      	add	r3, sp, #24
   19f74:	7946      	ldrb	r6, [r0, #5]
   19f76:	71da      	strb	r2, [r3, #7]
   19f78:	4b5b      	ldr	r3, [pc, #364]	; (1a0e8 <twi_transfer+0x190>)
   19f7a:	685b      	ldr	r3, [r3, #4]
   19f7c:	05db      	lsls	r3, r3, #23
   19f7e:	0ddb      	lsrs	r3, r3, #23
   19f80:	4293      	cmp	r3, r2
   19f82:	d100      	bne.n	19f86 <twi_transfer+0x2e>
   19f84:	e086      	b.n	1a094 <twi_transfer+0x13c>
   19f86:	3b10      	subs	r3, #16
   19f88:	b258      	sxtb	r0, r3
   19f8a:	b2db      	uxtb	r3, r3
   19f8c:	0019      	movs	r1, r3
   19f8e:	3203      	adds	r2, #3
   19f90:	4011      	ands	r1, r2
   19f92:	4091      	lsls	r1, r2
   19f94:	2800      	cmp	r0, #0
   19f96:	da77      	bge.n	1a088 <twi_transfer+0x130>
   19f98:	200f      	movs	r0, #15
   19f9a:	4003      	ands	r3, r0
   19f9c:	3b08      	subs	r3, #8
   19f9e:	089b      	lsrs	r3, r3, #2
   19fa0:	4852      	ldr	r0, [pc, #328]	; (1a0ec <twi_transfer+0x194>)
   19fa2:	009b      	lsls	r3, r3, #2
   19fa4:	181b      	adds	r3, r3, r0
   19fa6:	685b      	ldr	r3, [r3, #4]
   19fa8:	40cb      	lsrs	r3, r1
   19faa:	099b      	lsrs	r3, r3, #6
   19fac:	401a      	ands	r2, r3
   19fae:	b2d4      	uxtb	r4, r2
   19fb0:	2a01      	cmp	r2, #1
   19fb2:	d078      	beq.n	1a0a6 <twi_transfer+0x14e>
   19fb4:	ab06      	add	r3, sp, #24
   19fb6:	1dd8      	adds	r0, r3, #7
   19fb8:	f7ff fe90 	bl	19cdc <sd_nvic_critical_region_enter>
   19fbc:	2802      	cmp	r0, #2
   19fbe:	d16b      	bne.n	1a098 <twi_transfer+0x140>
   19fc0:	b672      	cpsid	i
   19fc2:	2218      	movs	r2, #24
   19fc4:	4372      	muls	r2, r6
   19fc6:	4b4a      	ldr	r3, [pc, #296]	; (1a0f0 <twi_transfer+0x198>)
   19fc8:	189b      	adds	r3, r3, r2
   19fca:	789d      	ldrb	r5, [r3, #2]
   19fcc:	b2ed      	uxtb	r5, r5
   19fce:	2d00      	cmp	r5, #0
   19fd0:	d000      	beq.n	19fd4 <twi_transfer+0x7c>
   19fd2:	e084      	b.n	1a0de <twi_transfer+0x186>
   19fd4:	2201      	movs	r2, #1
   19fd6:	709a      	strb	r2, [r3, #2]
   19fd8:	4294      	cmp	r4, r2
   19fda:	d00f      	beq.n	19ffc <twi_transfer+0xa4>
   19fdc:	b662      	cpsie	i
   19fde:	ab06      	add	r3, sp, #24
   19fe0:	79d8      	ldrb	r0, [r3, #7]
   19fe2:	f7ff fe7d 	bl	19ce0 <sd_nvic_critical_region_exit>
   19fe6:	2302      	movs	r3, #2
   19fe8:	0002      	movs	r2, r0
   19fea:	439a      	bics	r2, r3
   19fec:	d003      	beq.n	19ff6 <twi_transfer+0x9e>
   19fee:	2200      	movs	r2, #0
   19ff0:	0011      	movs	r1, r2
   19ff2:	f000 fc23 	bl	1a83c <app_error_handler>
   19ff6:	2011      	movs	r0, #17
   19ff8:	2d00      	cmp	r5, #0
   19ffa:	d168      	bne.n	1a0ce <twi_transfer+0x176>
   19ffc:	2318      	movs	r3, #24
   19ffe:	2400      	movs	r4, #0
   1a000:	2101      	movs	r1, #1
   1a002:	435e      	muls	r6, r3
   1a004:	4b3a      	ldr	r3, [pc, #232]	; (1a0f0 <twi_transfer+0x198>)
   1a006:	0038      	movs	r0, r7
   1a008:	199d      	adds	r5, r3, r6
   1a00a:	9b02      	ldr	r3, [sp, #8]
   1a00c:	81ec      	strh	r4, [r5, #14]
   1a00e:	71eb      	strb	r3, [r5, #7]
   1a010:	9b04      	ldr	r3, [sp, #16]
   1a012:	71ac      	strb	r4, [r5, #6]
   1a014:	81ab      	strh	r3, [r5, #12]
   1a016:	9b03      	ldr	r3, [sp, #12]
   1a018:	60ab      	str	r3, [r5, #8]
   1a01a:	9b05      	ldr	r3, [sp, #20]
   1a01c:	716b      	strb	r3, [r5, #5]
   1a01e:	9b01      	ldr	r3, [sp, #4]
   1a020:	712b      	strb	r3, [r5, #4]
   1a022:	4059      	eors	r1, r3
   1a024:	f7ff fe5e 	bl	19ce4 <state_machine>
   1a028:	797b      	ldrb	r3, [r7, #5]
   1a02a:	4a32      	ldr	r2, [pc, #200]	; (1a0f4 <twi_transfer+0x19c>)
   1a02c:	009b      	lsls	r3, r3, #2
   1a02e:	589a      	ldr	r2, [r3, r2]
   1a030:	0020      	movs	r0, r4
   1a032:	42a2      	cmp	r2, r4
   1a034:	d14b      	bne.n	1a0ce <twi_transfer+0x176>
   1a036:	792b      	ldrb	r3, [r5, #4]
   1a038:	9201      	str	r2, [sp, #4]
   1a03a:	4259      	negs	r1, r3
   1a03c:	414b      	adcs	r3, r1
   1a03e:	3302      	adds	r3, #2
   1a040:	9302      	str	r3, [sp, #8]
   1a042:	2318      	movs	r3, #24
   1a044:	9304      	str	r3, [sp, #16]
   1a046:	9904      	ldr	r1, [sp, #16]
   1a048:	797a      	ldrb	r2, [r7, #5]
   1a04a:	683b      	ldr	r3, [r7, #0]
   1a04c:	434a      	muls	r2, r1
   1a04e:	4928      	ldr	r1, [pc, #160]	; (1a0f0 <twi_transfer+0x198>)
   1a050:	001d      	movs	r5, r3
   1a052:	188a      	adds	r2, r1, r2
   1a054:	8a51      	ldrh	r1, [r2, #18]
   1a056:	4a28      	ldr	r2, [pc, #160]	; (1a0f8 <twi_transfer+0x1a0>)
   1a058:	2000      	movs	r0, #0
   1a05a:	4694      	mov	ip, r2
   1a05c:	1859      	adds	r1, r3, r1
   1a05e:	35fc      	adds	r5, #252	; 0xfc
   1a060:	680a      	ldr	r2, [r1, #0]
   1a062:	3001      	adds	r0, #1
   1a064:	9203      	str	r2, [sp, #12]
   1a066:	6aaa      	ldr	r2, [r5, #40]	; 0x28
   1a068:	1e54      	subs	r4, r2, #1
   1a06a:	41a2      	sbcs	r2, r4
   1a06c:	4584      	cmp	ip, r0
   1a06e:	41a4      	sbcs	r4, r4
   1a070:	4264      	negs	r4, r4
   1a072:	4322      	orrs	r2, r4
   1a074:	9c03      	ldr	r4, [sp, #12]
   1a076:	2c00      	cmp	r4, #0
   1a078:	d117      	bne.n	1a0aa <twi_transfer+0x152>
   1a07a:	2a00      	cmp	r2, #0
   1a07c:	d0f0      	beq.n	1a060 <twi_transfer+0x108>
   1a07e:	9a01      	ldr	r2, [sp, #4]
   1a080:	62aa      	str	r2, [r5, #40]	; 0x28
   1a082:	2205      	movs	r2, #5
   1a084:	9202      	str	r2, [sp, #8]
   1a086:	e012      	b.n	1a0ae <twi_transfer+0x156>
   1a088:	0880      	lsrs	r0, r0, #2
   1a08a:	30c0      	adds	r0, #192	; 0xc0
   1a08c:	4b1b      	ldr	r3, [pc, #108]	; (1a0fc <twi_transfer+0x1a4>)
   1a08e:	0080      	lsls	r0, r0, #2
   1a090:	58c3      	ldr	r3, [r0, r3]
   1a092:	e789      	b.n	19fa8 <twi_transfer+0x50>
   1a094:	2404      	movs	r4, #4
   1a096:	e78d      	b.n	19fb4 <twi_transfer+0x5c>
   1a098:	2800      	cmp	r0, #0
   1a09a:	d092      	beq.n	19fc2 <twi_transfer+0x6a>
   1a09c:	2200      	movs	r2, #0
   1a09e:	0011      	movs	r1, r2
   1a0a0:	f000 fbcc 	bl	1a83c <app_error_handler>
   1a0a4:	e78d      	b.n	19fc2 <twi_transfer+0x6a>
   1a0a6:	0014      	movs	r4, r2
   1a0a8:	e78b      	b.n	19fc2 <twi_transfer+0x6a>
   1a0aa:	2a00      	cmp	r2, #0
   1a0ac:	d1e7      	bne.n	1a07e <twi_transfer+0x126>
   1a0ae:	4a10      	ldr	r2, [pc, #64]	; (1a0f0 <twi_transfer+0x198>)
   1a0b0:	0038      	movs	r0, r7
   1a0b2:	1995      	adds	r5, r2, r6
   1a0b4:	8a6a      	ldrh	r2, [r5, #18]
   1a0b6:	9902      	ldr	r1, [sp, #8]
   1a0b8:	189b      	adds	r3, r3, r2
   1a0ba:	9a01      	ldr	r2, [sp, #4]
   1a0bc:	601a      	str	r2, [r3, #0]
   1a0be:	f7ff fe11 	bl	19ce4 <state_machine>
   1a0c2:	79a8      	ldrb	r0, [r5, #6]
   1a0c4:	2800      	cmp	r0, #0
   1a0c6:	d004      	beq.n	1a0d2 <twi_transfer+0x17a>
   1a0c8:	2003      	movs	r0, #3
   1a0ca:	9b01      	ldr	r3, [sp, #4]
   1a0cc:	70ab      	strb	r3, [r5, #2]
   1a0ce:	b009      	add	sp, #36	; 0x24
   1a0d0:	bdf0      	pop	{r4, r5, r6, r7, pc}
   1a0d2:	89ea      	ldrh	r2, [r5, #14]
   1a0d4:	89ab      	ldrh	r3, [r5, #12]
   1a0d6:	429a      	cmp	r2, r3
   1a0d8:	d3b5      	bcc.n	1a046 <twi_transfer+0xee>
   1a0da:	70a8      	strb	r0, [r5, #2]
   1a0dc:	e7f7      	b.n	1a0ce <twi_transfer+0x176>
   1a0de:	2c01      	cmp	r4, #1
   1a0e0:	d000      	beq.n	1a0e4 <twi_transfer+0x18c>
   1a0e2:	e77b      	b.n	19fdc <twi_transfer+0x84>
   1a0e4:	2011      	movs	r0, #17
   1a0e6:	e7f2      	b.n	1a0ce <twi_transfer+0x176>
   1a0e8:	ed00 e000 	stc	0, cr14, [r0, #-0]
   1a0ec:	ed18 e000 	ldc	0, cr14, [r8, #-0]
   1a0f0:	25b8      	movs	r5, #184	; 0xb8
   1a0f2:	2000      	movs	r0, #0
   1a0f4:	25e8      	movs	r5, #232	; 0xe8
   1a0f6:	2000      	movs	r0, #0
   1a0f8:	0ffe      	lsrs	r6, r7, #31
   1a0fa:	0000      	movs	r0, r0
   1a0fc:	e100      	b.n	1a300 <nrf_drv_twi_init+0x148>
   1a0fe:	e000      	b.n	1a102 <nrf_drv_twi_int_handler+0x2>

0001a100 <nrf_drv_twi_int_handler>:
   1a100:	2318      	movs	r3, #24
   1a102:	b5f0      	push	{r4, r5, r6, r7, lr}
   1a104:	0002      	movs	r2, r0
   1a106:	0006      	movs	r6, r0
   1a108:	434b      	muls	r3, r1
   1a10a:	4c26      	ldr	r4, [pc, #152]	; (1a1a4 <nrf_drv_twi_int_handler+0xa4>)
   1a10c:	000f      	movs	r7, r1
   1a10e:	18e3      	adds	r3, r4, r3
   1a110:	8a59      	ldrh	r1, [r3, #18]
   1a112:	32fc      	adds	r2, #252	; 0xfc
   1a114:	1871      	adds	r1, r6, r1
   1a116:	6a90      	ldr	r0, [r2, #40]	; 0x28
   1a118:	680d      	ldr	r5, [r1, #0]
   1a11a:	2100      	movs	r1, #0
   1a11c:	b087      	sub	sp, #28
   1a11e:	6291      	str	r1, [r2, #40]	; 0x28
   1a120:	4305      	orrs	r5, r0
   1a122:	6211      	str	r1, [r2, #32]
   1a124:	60d1      	str	r1, [r2, #12]
   1a126:	6091      	str	r1, [r2, #8]
   1a128:	428d      	cmp	r5, r1
   1a12a:	d029      	beq.n	1a180 <nrf_drv_twi_int_handler+0x80>
   1a12c:	3105      	adds	r1, #5
   1a12e:	2800      	cmp	r0, #0
   1a130:	d103      	bne.n	1a13a <nrf_drv_twi_int_handler+0x3a>
   1a132:	7919      	ldrb	r1, [r3, #4]
   1a134:	424b      	negs	r3, r1
   1a136:	4159      	adcs	r1, r3
   1a138:	3102      	adds	r1, #2
   1a13a:	4b1b      	ldr	r3, [pc, #108]	; (1a1a8 <nrf_drv_twi_int_handler+0xa8>)
   1a13c:	00bd      	lsls	r5, r7, #2
   1a13e:	58e8      	ldr	r0, [r5, r3]
   1a140:	f7ff fdd0 	bl	19ce4 <state_machine>
   1a144:	2318      	movs	r3, #24
   1a146:	435f      	muls	r7, r3
   1a148:	19e4      	adds	r4, r4, r7
   1a14a:	79a1      	ldrb	r1, [r4, #6]
   1a14c:	89e7      	ldrh	r7, [r4, #14]
   1a14e:	2900      	cmp	r1, #0
   1a150:	d018      	beq.n	1a184 <nrf_drv_twi_int_handler+0x84>
   1a152:	2300      	movs	r3, #0
   1a154:	aa02      	add	r2, sp, #8
   1a156:	70a3      	strb	r3, [r4, #2]
   1a158:	3302      	adds	r3, #2
   1a15a:	4914      	ldr	r1, [pc, #80]	; (1a1ac <nrf_drv_twi_int_handler+0xac>)
   1a15c:	7013      	strb	r3, [r2, #0]
   1a15e:	68a2      	ldr	r2, [r4, #8]
   1a160:	9704      	str	r7, [sp, #16]
   1a162:	9201      	str	r2, [sp, #4]
   1a164:	9203      	str	r2, [sp, #12]
   1a166:	5872      	ldr	r2, [r6, r1]
   1a168:	5072      	str	r2, [r6, r1]
   1a16a:	421a      	tst	r2, r3
   1a16c:	d100      	bne.n	1a170 <nrf_drv_twi_int_handler+0x70>
   1a16e:	3302      	adds	r3, #2
   1a170:	aa02      	add	r2, sp, #8
   1a172:	7313      	strb	r3, [r2, #12]
   1a174:	4b0e      	ldr	r3, [pc, #56]	; (1a1b0 <nrf_drv_twi_int_handler+0xb0>)
   1a176:	4a0f      	ldr	r2, [pc, #60]	; (1a1b4 <nrf_drv_twi_int_handler+0xb4>)
   1a178:	58eb      	ldr	r3, [r5, r3]
   1a17a:	58a9      	ldr	r1, [r5, r2]
   1a17c:	a802      	add	r0, sp, #8
   1a17e:	4798      	blx	r3
   1a180:	b007      	add	sp, #28
   1a182:	bdf0      	pop	{r4, r5, r6, r7, pc}
   1a184:	89a3      	ldrh	r3, [r4, #12]
   1a186:	42bb      	cmp	r3, r7
   1a188:	d8fa      	bhi.n	1a180 <nrf_drv_twi_int_handler+0x80>
   1a18a:	2210      	movs	r2, #16
   1a18c:	70a1      	strb	r1, [r4, #2]
   1a18e:	a802      	add	r0, sp, #8
   1a190:	f002 fa74 	bl	1c67c <memset>
   1a194:	7923      	ldrb	r3, [r4, #4]
   1a196:	aa02      	add	r2, sp, #8
   1a198:	7013      	strb	r3, [r2, #0]
   1a19a:	68a3      	ldr	r3, [r4, #8]
   1a19c:	9704      	str	r7, [sp, #16]
   1a19e:	9301      	str	r3, [sp, #4]
   1a1a0:	9303      	str	r3, [sp, #12]
   1a1a2:	e7e7      	b.n	1a174 <nrf_drv_twi_int_handler+0x74>
   1a1a4:	25b8      	movs	r5, #184	; 0xb8
   1a1a6:	2000      	movs	r0, #0
   1a1a8:	25f0      	movs	r5, #240	; 0xf0
   1a1aa:	2000      	movs	r0, #0
   1a1ac:	04c4      	lsls	r4, r0, #19
   1a1ae:	0000      	movs	r0, r0
   1a1b0:	25e8      	movs	r5, #232	; 0xe8
   1a1b2:	2000      	movs	r0, #0
   1a1b4:	25f8      	movs	r5, #248	; 0xf8
   1a1b6:	2000      	movs	r0, #0

0001a1b8 <nrf_drv_twi_init>:
   1a1b8:	b5f7      	push	{r0, r1, r2, r4, r5, r6, r7, lr}
   1a1ba:	9001      	str	r0, [sp, #4]
   1a1bc:	7944      	ldrb	r4, [r0, #5]
   1a1be:	2018      	movs	r0, #24
   1a1c0:	4360      	muls	r0, r4
   1a1c2:	4d62      	ldr	r5, [pc, #392]	; (1a34c <nrf_drv_twi_init+0x194>)
   1a1c4:	5d45      	ldrb	r5, [r0, r5]
   1a1c6:	2008      	movs	r0, #8
   1a1c8:	2d00      	cmp	r5, #0
   1a1ca:	d000      	beq.n	1a1ce <nrf_drv_twi_init+0x16>
   1a1cc:	e076      	b.n	1a2bc <nrf_drv_twi_init+0x104>
   1a1ce:	2900      	cmp	r1, #0
   1a1d0:	d102      	bne.n	1a1d8 <nrf_drv_twi_init+0x20>
   1a1d2:	485f      	ldr	r0, [pc, #380]	; (1a350 <nrf_drv_twi_init+0x198>)
   1a1d4:	0121      	lsls	r1, r4, #4
   1a1d6:	1841      	adds	r1, r0, r1
   1a1d8:	485e      	ldr	r0, [pc, #376]	; (1a354 <nrf_drv_twi_init+0x19c>)
   1a1da:	00a4      	lsls	r4, r4, #2
   1a1dc:	5022      	str	r2, [r4, r0]
   1a1de:	4a5e      	ldr	r2, [pc, #376]	; (1a358 <nrf_drv_twi_init+0x1a0>)
   1a1e0:	20e0      	movs	r0, #224	; 0xe0
   1a1e2:	50a3      	str	r3, [r4, r2]
   1a1e4:	9a01      	ldr	r2, [sp, #4]
   1a1e6:	4b5d      	ldr	r3, [pc, #372]	; (1a35c <nrf_drv_twi_init+0x1a4>)
   1a1e8:	684f      	ldr	r7, [r1, #4]
   1a1ea:	50e2      	str	r2, [r4, r3]
   1a1ec:	22a0      	movs	r2, #160	; 0xa0
   1a1ee:	05d2      	lsls	r2, r2, #23
   1a1f0:	0014      	movs	r4, r2
   1a1f2:	46a4      	mov	ip, r4
   1a1f4:	680b      	ldr	r3, [r1, #0]
   1a1f6:	00c0      	lsls	r0, r0, #3
   1a1f8:	009d      	lsls	r5, r3, #2
   1a1fa:	18ad      	adds	r5, r5, r2
   1a1fc:	4a58      	ldr	r2, [pc, #352]	; (1a360 <nrf_drv_twi_init+0x1a8>)
   1a1fe:	4e58      	ldr	r6, [pc, #352]	; (1a360 <nrf_drv_twi_init+0x1a8>)
   1a200:	502a      	str	r2, [r5, r0]
   1a202:	00ba      	lsls	r2, r7, #2
   1a204:	4494      	add	ip, r2
   1a206:	4662      	mov	r2, ip
   1a208:	5016      	str	r6, [r2, r0]
   1a20a:	2201      	movs	r2, #1
   1a20c:	0016      	movs	r6, r2
   1a20e:	409e      	lsls	r6, r3
   1a210:	0033      	movs	r3, r6
   1a212:	26a1      	movs	r6, #161	; 0xa1
   1a214:	00f6      	lsls	r6, r6, #3
   1a216:	51a3      	str	r3, [r4, r6]
   1a218:	0013      	movs	r3, r2
   1a21a:	40bb      	lsls	r3, r7
   1a21c:	001f      	movs	r7, r3
   1a21e:	4663      	mov	r3, ip
   1a220:	51a7      	str	r7, [r4, r6]
   1a222:	4f50      	ldr	r7, [pc, #320]	; (1a364 <nrf_drv_twi_init+0x1ac>)
   1a224:	502f      	str	r7, [r5, r0]
   1a226:	501f      	str	r7, [r3, r0]
   1a228:	2004      	movs	r0, #4
   1a22a:	3801      	subs	r0, #1
   1a22c:	46c0      	nop			; (mov r8, r8)
   1a22e:	46c0      	nop			; (mov r8, r8)
   1a230:	46c0      	nop			; (mov r8, r8)
   1a232:	46c0      	nop			; (mov r8, r8)
   1a234:	46c0      	nop			; (mov r8, r8)
   1a236:	46c0      	nop			; (mov r8, r8)
   1a238:	46c0      	nop			; (mov r8, r8)
   1a23a:	46c0      	nop			; (mov r8, r8)
   1a23c:	46c0      	nop			; (mov r8, r8)
   1a23e:	46c0      	nop			; (mov r8, r8)
   1a240:	46c0      	nop			; (mov r8, r8)
   1a242:	46c0      	nop			; (mov r8, r8)
   1a244:	d1f1      	bne.n	1a22a <nrf_drv_twi_init+0x72>
   1a246:	23a0      	movs	r3, #160	; 0xa0
   1a248:	2500      	movs	r5, #0
   1a24a:	46b4      	mov	ip, r6
   1a24c:	4c44      	ldr	r4, [pc, #272]	; (1a360 <nrf_drv_twi_init+0x1a8>)
   1a24e:	05db      	lsls	r3, r3, #23
   1a250:	20a2      	movs	r0, #162	; 0xa2
   1a252:	00c0      	lsls	r0, r0, #3
   1a254:	684e      	ldr	r6, [r1, #4]
   1a256:	5818      	ldr	r0, [r3, r0]
   1a258:	40f0      	lsrs	r0, r6
   1a25a:	4e43      	ldr	r6, [pc, #268]	; (1a368 <nrf_drv_twi_init+0x1b0>)
   1a25c:	4210      	tst	r0, r2
   1a25e:	d02e      	beq.n	1a2be <nrf_drv_twi_init+0x106>
   1a260:	2d00      	cmp	r5, #0
   1a262:	d000      	beq.n	1a266 <nrf_drv_twi_init+0xae>
   1a264:	e056      	b.n	1a314 <nrf_drv_twi_init+0x15c>
   1a266:	6808      	ldr	r0, [r1, #0]
   1a268:	25a0      	movs	r5, #160	; 0xa0
   1a26a:	0003      	movs	r3, r0
   1a26c:	33c1      	adds	r3, #193	; 0xc1
   1a26e:	33ff      	adds	r3, #255	; 0xff
   1a270:	05ed      	lsls	r5, r5, #23
   1a272:	009b      	lsls	r3, r3, #2
   1a274:	515c      	str	r4, [r3, r5]
   1a276:	684a      	ldr	r2, [r1, #4]
   1a278:	0013      	movs	r3, r2
   1a27a:	33c1      	adds	r3, #193	; 0xc1
   1a27c:	33ff      	adds	r3, #255	; 0xff
   1a27e:	009b      	lsls	r3, r3, #2
   1a280:	515c      	str	r4, [r3, r5]
   1a282:	9b01      	ldr	r3, [sp, #4]
   1a284:	688d      	ldr	r5, [r1, #8]
   1a286:	681b      	ldr	r3, [r3, #0]
   1a288:	4c38      	ldr	r4, [pc, #224]	; (1a36c <nrf_drv_twi_init+0x1b4>)
   1a28a:	511d      	str	r5, [r3, r4]
   1a28c:	3c1c      	subs	r4, #28
   1a28e:	5118      	str	r0, [r3, r4]
   1a290:	519a      	str	r2, [r3, r6]
   1a292:	9b01      	ldr	r3, [sp, #4]
   1a294:	4a2f      	ldr	r2, [pc, #188]	; (1a354 <nrf_drv_twi_init+0x19c>)
   1a296:	795b      	ldrb	r3, [r3, #5]
   1a298:	009b      	lsls	r3, r3, #2
   1a29a:	58d3      	ldr	r3, [r2, r3]
   1a29c:	2b00      	cmp	r3, #0
   1a29e:	d005      	beq.n	1a2ac <nrf_drv_twi_init+0xf4>
   1a2a0:	2004      	movs	r0, #4
   1a2a2:	9b01      	ldr	r3, [sp, #4]
   1a2a4:	7b09      	ldrb	r1, [r1, #12]
   1a2a6:	5618      	ldrsb	r0, [r3, r0]
   1a2a8:	f7ff fce6 	bl	19c78 <nrf_drv_common_irq_enable>
   1a2ac:	9b01      	ldr	r3, [sp, #4]
   1a2ae:	2101      	movs	r1, #1
   1a2b0:	795a      	ldrb	r2, [r3, #5]
   1a2b2:	2318      	movs	r3, #24
   1a2b4:	2000      	movs	r0, #0
   1a2b6:	4353      	muls	r3, r2
   1a2b8:	4a24      	ldr	r2, [pc, #144]	; (1a34c <nrf_drv_twi_init+0x194>)
   1a2ba:	5499      	strb	r1, [r3, r2]
   1a2bc:	bdfe      	pop	{r1, r2, r3, r4, r5, r6, r7, pc}
   1a2be:	0010      	movs	r0, r2
   1a2c0:	680f      	ldr	r7, [r1, #0]
   1a2c2:	40b8      	lsls	r0, r7
   1a2c4:	5198      	str	r0, [r3, r6]
   1a2c6:	2004      	movs	r0, #4
   1a2c8:	3801      	subs	r0, #1
   1a2ca:	46c0      	nop			; (mov r8, r8)
   1a2cc:	46c0      	nop			; (mov r8, r8)
   1a2ce:	46c0      	nop			; (mov r8, r8)
   1a2d0:	46c0      	nop			; (mov r8, r8)
   1a2d2:	46c0      	nop			; (mov r8, r8)
   1a2d4:	46c0      	nop			; (mov r8, r8)
   1a2d6:	46c0      	nop			; (mov r8, r8)
   1a2d8:	46c0      	nop			; (mov r8, r8)
   1a2da:	46c0      	nop			; (mov r8, r8)
   1a2dc:	46c0      	nop			; (mov r8, r8)
   1a2de:	46c0      	nop			; (mov r8, r8)
   1a2e0:	46c0      	nop			; (mov r8, r8)
   1a2e2:	d1f1      	bne.n	1a2c8 <nrf_drv_twi_init+0x110>
   1a2e4:	0010      	movs	r0, r2
   1a2e6:	680f      	ldr	r7, [r1, #0]
   1a2e8:	40b8      	lsls	r0, r7
   1a2ea:	4667      	mov	r7, ip
   1a2ec:	51d8      	str	r0, [r3, r7]
   1a2ee:	2004      	movs	r0, #4
   1a2f0:	3801      	subs	r0, #1
   1a2f2:	46c0      	nop			; (mov r8, r8)
   1a2f4:	46c0      	nop			; (mov r8, r8)
   1a2f6:	46c0      	nop			; (mov r8, r8)
   1a2f8:	46c0      	nop			; (mov r8, r8)
   1a2fa:	46c0      	nop			; (mov r8, r8)
   1a2fc:	46c0      	nop			; (mov r8, r8)
   1a2fe:	46c0      	nop			; (mov r8, r8)
   1a300:	46c0      	nop			; (mov r8, r8)
   1a302:	46c0      	nop			; (mov r8, r8)
   1a304:	46c0      	nop			; (mov r8, r8)
   1a306:	46c0      	nop			; (mov r8, r8)
   1a308:	46c0      	nop			; (mov r8, r8)
   1a30a:	d1f1      	bne.n	1a2f0 <nrf_drv_twi_init+0x138>
   1a30c:	3501      	adds	r5, #1
   1a30e:	2d09      	cmp	r5, #9
   1a310:	d000      	beq.n	1a314 <nrf_drv_twi_init+0x15c>
   1a312:	e79d      	b.n	1a250 <nrf_drv_twi_init+0x98>
   1a314:	2301      	movs	r3, #1
   1a316:	0018      	movs	r0, r3
   1a318:	684a      	ldr	r2, [r1, #4]
   1a31a:	4090      	lsls	r0, r2
   1a31c:	22a0      	movs	r2, #160	; 0xa0
   1a31e:	05d2      	lsls	r2, r2, #23
   1a320:	5190      	str	r0, [r2, r6]
   1a322:	2004      	movs	r0, #4
   1a324:	3801      	subs	r0, #1
   1a326:	46c0      	nop			; (mov r8, r8)
   1a328:	46c0      	nop			; (mov r8, r8)
   1a32a:	46c0      	nop			; (mov r8, r8)
   1a32c:	46c0      	nop			; (mov r8, r8)
   1a32e:	46c0      	nop			; (mov r8, r8)
   1a330:	46c0      	nop			; (mov r8, r8)
   1a332:	46c0      	nop			; (mov r8, r8)
   1a334:	46c0      	nop			; (mov r8, r8)
   1a336:	46c0      	nop			; (mov r8, r8)
   1a338:	46c0      	nop			; (mov r8, r8)
   1a33a:	46c0      	nop			; (mov r8, r8)
   1a33c:	46c0      	nop			; (mov r8, r8)
   1a33e:	d1f1      	bne.n	1a324 <nrf_drv_twi_init+0x16c>
   1a340:	6848      	ldr	r0, [r1, #4]
   1a342:	4083      	lsls	r3, r0
   1a344:	20a1      	movs	r0, #161	; 0xa1
   1a346:	00c0      	lsls	r0, r0, #3
   1a348:	5013      	str	r3, [r2, r0]
   1a34a:	e78c      	b.n	1a266 <nrf_drv_twi_init+0xae>
   1a34c:	25b8      	movs	r5, #184	; 0xb8
   1a34e:	2000      	movs	r0, #0
   1a350:	f1e8 0001 			; <UNDEFINED> instruction: 0xf1e80001
   1a354:	25e8      	movs	r5, #232	; 0xe8
   1a356:	2000      	movs	r0, #0
   1a358:	25f8      	movs	r5, #248	; 0xf8
   1a35a:	2000      	movs	r0, #0
   1a35c:	25f0      	movs	r5, #240	; 0xf0
   1a35e:	2000      	movs	r0, #0
   1a360:	060c      	lsls	r4, r1, #24
   1a362:	0000      	movs	r0, r0
   1a364:	060d      	lsls	r5, r1, #24
   1a366:	0000      	movs	r0, r0
   1a368:	050c      	lsls	r4, r1, #20
   1a36a:	0000      	movs	r0, r0
   1a36c:	0524      	lsls	r4, r4, #20
	...

0001a370 <nrf_drv_twi_enable>:
   1a370:	6801      	ldr	r1, [r0, #0]
   1a372:	2200      	movs	r2, #0
   1a374:	000b      	movs	r3, r1
   1a376:	33fc      	adds	r3, #252	; 0xfc
   1a378:	609a      	str	r2, [r3, #8]
   1a37a:	60da      	str	r2, [r3, #12]
   1a37c:	621a      	str	r2, [r3, #32]
   1a37e:	629a      	str	r2, [r3, #40]	; 0x28
   1a380:	7940      	ldrb	r0, [r0, #5]
   1a382:	4b0b      	ldr	r3, [pc, #44]	; (1a3b0 <nrf_drv_twi_enable+0x40>)
   1a384:	0082      	lsls	r2, r0, #2
   1a386:	58d3      	ldr	r3, [r2, r3]
   1a388:	2b00      	cmp	r3, #0
   1a38a:	d004      	beq.n	1a396 <nrf_drv_twi_enable+0x26>
   1a38c:	23c1      	movs	r3, #193	; 0xc1
   1a38e:	2280      	movs	r2, #128	; 0x80
   1a390:	009b      	lsls	r3, r3, #2
   1a392:	0092      	lsls	r2, r2, #2
   1a394:	50ca      	str	r2, [r1, r3]
   1a396:	23a0      	movs	r3, #160	; 0xa0
   1a398:	2205      	movs	r2, #5
   1a39a:	00db      	lsls	r3, r3, #3
   1a39c:	50ca      	str	r2, [r1, r3]
   1a39e:	2102      	movs	r1, #2
   1a3a0:	3213      	adds	r2, #19
   1a3a2:	4342      	muls	r2, r0
   1a3a4:	4b03      	ldr	r3, [pc, #12]	; (1a3b4 <nrf_drv_twi_enable+0x44>)
   1a3a6:	54d1      	strb	r1, [r2, r3]
   1a3a8:	189b      	adds	r3, r3, r2
   1a3aa:	2200      	movs	r2, #0
   1a3ac:	705a      	strb	r2, [r3, #1]
   1a3ae:	4770      	bx	lr
   1a3b0:	25e8      	movs	r5, #232	; 0xe8
   1a3b2:	2000      	movs	r0, #0
   1a3b4:	25b8      	movs	r5, #184	; 0xb8
   1a3b6:	2000      	movs	r0, #0

0001a3b8 <nrf_drv_twi_tx>:
   1a3b8:	b537      	push	{r0, r1, r2, r4, r5, lr}
   1a3ba:	2501      	movs	r5, #1
   1a3bc:	ac06      	add	r4, sp, #24
   1a3be:	7824      	ldrb	r4, [r4, #0]
   1a3c0:	9501      	str	r5, [sp, #4]
   1a3c2:	9400      	str	r4, [sp, #0]
   1a3c4:	f7ff fdc8 	bl	19f58 <twi_transfer>
   1a3c8:	bd3e      	pop	{r1, r2, r3, r4, r5, pc}

0001a3ca <nrf_drv_twi_rx>:
   1a3ca:	b537      	push	{r0, r1, r2, r4, r5, lr}
   1a3cc:	2500      	movs	r5, #0
   1a3ce:	ac06      	add	r4, sp, #24
   1a3d0:	7824      	ldrb	r4, [r4, #0]
   1a3d2:	9501      	str	r5, [sp, #4]
   1a3d4:	9400      	str	r4, [sp, #0]
   1a3d6:	f7ff fdbf 	bl	19f58 <twi_transfer>
   1a3da:	bd3e      	pop	{r1, r2, r3, r4, r5, pc}

0001a3dc <SPI0_TWI0_IRQHandler>:
   1a3dc:	b510      	push	{r4, lr}
   1a3de:	2100      	movs	r1, #0
   1a3e0:	4801      	ldr	r0, [pc, #4]	; (1a3e8 <SPI0_TWI0_IRQHandler+0xc>)
   1a3e2:	f7ff fe8d 	bl	1a100 <nrf_drv_twi_int_handler>
   1a3e6:	bd10      	pop	{r4, pc}
   1a3e8:	3000      	adds	r0, #0
   1a3ea:	4000      	ands	r0, r0

0001a3ec <SPI1_TWI1_IRQHandler>:
   1a3ec:	b510      	push	{r4, lr}
   1a3ee:	2101      	movs	r1, #1
   1a3f0:	4801      	ldr	r0, [pc, #4]	; (1a3f8 <SPI1_TWI1_IRQHandler+0xc>)
   1a3f2:	f7ff fe85 	bl	1a100 <nrf_drv_twi_int_handler>
   1a3f6:	bd10      	pop	{r4, pc}
   1a3f8:	4000      	ands	r0, r0
   1a3fa:	4000      	ands	r0, r0

0001a3fc <sd_nvic_EnableIRQ>:
   1a3fc:	df2e      	svc	46	; 0x2e
   1a3fe:	4770      	bx	lr

0001a400 <sd_evt_get>:
   1a400:	df51      	svc	81	; 0x51
   1a402:	4770      	bx	lr

0001a404 <sd_softdevice_enable>:
   1a404:	df10      	svc	16
   1a406:	4770      	bx	lr

0001a408 <sd_ble_evt_get>:
   1a408:	df61      	svc	97	; 0x61
   1a40a:	4770      	bx	lr

0001a40c <softdevice_assertion_handler>:
   1a40c:	b510      	push	{r4, lr}
   1a40e:	0008      	movs	r0, r1
   1a410:	0011      	movs	r1, r2
   1a412:	f000 fa1d 	bl	1a850 <assert_nrf_callback>
   1a416:	bd10      	pop	{r4, pc}

0001a418 <intern_softdevice_events_execute>:
   1a418:	b5f0      	push	{r4, r5, r6, r7, lr}
   1a41a:	4b25      	ldr	r3, [pc, #148]	; (1a4b0 <intern_softdevice_events_execute+0x98>)
   1a41c:	b085      	sub	sp, #20
   1a41e:	781b      	ldrb	r3, [r3, #0]
   1a420:	b2db      	uxtb	r3, r3
   1a422:	9300      	str	r3, [sp, #0]
   1a424:	2b00      	cmp	r3, #0
   1a426:	d018      	beq.n	1a45a <intern_softdevice_events_execute+0x42>
   1a428:	4e22      	ldr	r6, [pc, #136]	; (1a4b4 <intern_softdevice_events_execute+0x9c>)
   1a42a:	4f23      	ldr	r7, [pc, #140]	; (1a4b8 <intern_softdevice_events_execute+0xa0>)
   1a42c:	6833      	ldr	r3, [r6, #0]
   1a42e:	425a      	negs	r2, r3
   1a430:	415a      	adcs	r2, r3
   1a432:	b2d2      	uxtb	r2, r2
   1a434:	9201      	str	r2, [sp, #4]
   1a436:	683a      	ldr	r2, [r7, #0]
   1a438:	2a00      	cmp	r2, #0
   1a43a:	d114      	bne.n	1a466 <intern_softdevice_events_execute+0x4e>
   1a43c:	9c00      	ldr	r4, [sp, #0]
   1a43e:	2b00      	cmp	r3, #0
   1a440:	d00b      	beq.n	1a45a <intern_softdevice_events_execute+0x42>
   1a442:	e021      	b.n	1a488 <intern_softdevice_events_execute+0x70>
   1a444:	9803      	ldr	r0, [sp, #12]
   1a446:	683b      	ldr	r3, [r7, #0]
   1a448:	4798      	blx	r3
   1a44a:	002c      	movs	r4, r5
   1a44c:	e019      	b.n	1a482 <intern_softdevice_events_execute+0x6a>
   1a44e:	0028      	movs	r0, r5
   1a450:	6833      	ldr	r3, [r6, #0]
   1a452:	4798      	blx	r3
   1a454:	e029      	b.n	1a4aa <intern_softdevice_events_execute+0x92>
   1a456:	2c00      	cmp	r4, #0
   1a458:	d005      	beq.n	1a466 <intern_softdevice_events_execute+0x4e>
   1a45a:	b005      	add	sp, #20
   1a45c:	bdf0      	pop	{r4, r5, r6, r7, pc}
   1a45e:	2c00      	cmp	r4, #0
   1a460:	d1fb      	bne.n	1a45a <intern_softdevice_events_execute+0x42>
   1a462:	9c00      	ldr	r4, [sp, #0]
   1a464:	9401      	str	r4, [sp, #4]
   1a466:	a803      	add	r0, sp, #12
   1a468:	f7ff ffca 	bl	1a400 <sd_evt_get>
   1a46c:	9c00      	ldr	r4, [sp, #0]
   1a46e:	0005      	movs	r5, r0
   1a470:	2805      	cmp	r0, #5
   1a472:	d006      	beq.n	1a482 <intern_softdevice_events_execute+0x6a>
   1a474:	2800      	cmp	r0, #0
   1a476:	d0e5      	beq.n	1a444 <intern_softdevice_events_execute+0x2c>
   1a478:	2200      	movs	r2, #0
   1a47a:	0011      	movs	r1, r2
   1a47c:	f000 f9de 	bl	1a83c <app_error_handler>
   1a480:	2400      	movs	r4, #0
   1a482:	9b01      	ldr	r3, [sp, #4]
   1a484:	2b00      	cmp	r3, #0
   1a486:	d1e6      	bne.n	1a456 <intern_softdevice_events_execute+0x3e>
   1a488:	4b0c      	ldr	r3, [pc, #48]	; (1a4bc <intern_softdevice_events_execute+0xa4>)
   1a48a:	a903      	add	r1, sp, #12
   1a48c:	881b      	ldrh	r3, [r3, #0]
   1a48e:	800b      	strh	r3, [r1, #0]
   1a490:	4b0b      	ldr	r3, [pc, #44]	; (1a4c0 <intern_softdevice_events_execute+0xa8>)
   1a492:	681d      	ldr	r5, [r3, #0]
   1a494:	0028      	movs	r0, r5
   1a496:	f7ff ffb7 	bl	1a408 <sd_ble_evt_get>
   1a49a:	2805      	cmp	r0, #5
   1a49c:	d0df      	beq.n	1a45e <intern_softdevice_events_execute+0x46>
   1a49e:	2800      	cmp	r0, #0
   1a4a0:	d0d5      	beq.n	1a44e <intern_softdevice_events_execute+0x36>
   1a4a2:	2200      	movs	r2, #0
   1a4a4:	0011      	movs	r1, r2
   1a4a6:	f000 f9c9 	bl	1a83c <app_error_handler>
   1a4aa:	2c00      	cmp	r4, #0
   1a4ac:	d1ec      	bne.n	1a488 <intern_softdevice_events_execute+0x70>
   1a4ae:	e7d9      	b.n	1a464 <intern_softdevice_events_execute+0x4c>
   1a4b0:	260c      	movs	r6, #12
   1a4b2:	2000      	movs	r0, #0
   1a4b4:	2604      	movs	r6, #4
   1a4b6:	2000      	movs	r0, #0
   1a4b8:	2610      	movs	r6, #16
   1a4ba:	2000      	movs	r0, #0
   1a4bc:	2600      	movs	r6, #0
   1a4be:	2000      	movs	r0, #0
   1a4c0:	2614      	movs	r6, #20
   1a4c2:	2000      	movs	r0, #0

0001a4c4 <softdevice_handler_init>:
   1a4c4:	b570      	push	{r4, r5, r6, lr}
   1a4c6:	0004      	movs	r4, r0
   1a4c8:	2007      	movs	r0, #7
   1a4ca:	2900      	cmp	r1, #0
   1a4cc:	d013      	beq.n	1a4f6 <softdevice_handler_init+0x32>
   1a4ce:	078d      	lsls	r5, r1, #30
   1a4d0:	d111      	bne.n	1a4f6 <softdevice_handler_init+0x32>
   1a4d2:	4809      	ldr	r0, [pc, #36]	; (1a4f8 <softdevice_handler_init+0x34>)
   1a4d4:	6001      	str	r1, [r0, #0]
   1a4d6:	4909      	ldr	r1, [pc, #36]	; (1a4fc <softdevice_handler_init+0x38>)
   1a4d8:	0020      	movs	r0, r4
   1a4da:	800a      	strh	r2, [r1, #0]
   1a4dc:	4a08      	ldr	r2, [pc, #32]	; (1a500 <softdevice_handler_init+0x3c>)
   1a4de:	4909      	ldr	r1, [pc, #36]	; (1a504 <softdevice_handler_init+0x40>)
   1a4e0:	6013      	str	r3, [r2, #0]
   1a4e2:	f7ff ff8f 	bl	1a404 <sd_softdevice_enable>
   1a4e6:	2800      	cmp	r0, #0
   1a4e8:	d105      	bne.n	1a4f6 <softdevice_handler_init+0x32>
   1a4ea:	2201      	movs	r2, #1
   1a4ec:	4b06      	ldr	r3, [pc, #24]	; (1a508 <softdevice_handler_init+0x44>)
   1a4ee:	3016      	adds	r0, #22
   1a4f0:	701a      	strb	r2, [r3, #0]
   1a4f2:	f7ff ff83 	bl	1a3fc <sd_nvic_EnableIRQ>
   1a4f6:	bd70      	pop	{r4, r5, r6, pc}
   1a4f8:	2614      	movs	r6, #20
   1a4fa:	2000      	movs	r0, #0
   1a4fc:	2600      	movs	r6, #0
   1a4fe:	2000      	movs	r0, #0
   1a500:	2608      	movs	r6, #8
   1a502:	2000      	movs	r0, #0
   1a504:	a40d      	add	r4, pc, #52	; (adr r4, 1a53c <SWI2_IRQHandler+0x8>)
   1a506:	0001      	movs	r1, r0
   1a508:	260c      	movs	r6, #12
   1a50a:	2000      	movs	r0, #0

0001a50c <softdevice_ble_evt_handler_set>:
   1a50c:	230e      	movs	r3, #14
   1a50e:	2800      	cmp	r0, #0
   1a510:	d002      	beq.n	1a518 <softdevice_ble_evt_handler_set+0xc>
   1a512:	4b02      	ldr	r3, [pc, #8]	; (1a51c <softdevice_ble_evt_handler_set+0x10>)
   1a514:	6018      	str	r0, [r3, #0]
   1a516:	2300      	movs	r3, #0
   1a518:	0018      	movs	r0, r3
   1a51a:	4770      	bx	lr
   1a51c:	2604      	movs	r6, #4
   1a51e:	2000      	movs	r0, #0

0001a520 <softdevice_sys_evt_handler_set>:
   1a520:	230e      	movs	r3, #14
   1a522:	2800      	cmp	r0, #0
   1a524:	d002      	beq.n	1a52c <softdevice_sys_evt_handler_set+0xc>
   1a526:	4b02      	ldr	r3, [pc, #8]	; (1a530 <softdevice_sys_evt_handler_set+0x10>)
   1a528:	6018      	str	r0, [r3, #0]
   1a52a:	2300      	movs	r3, #0
   1a52c:	0018      	movs	r0, r3
   1a52e:	4770      	bx	lr
   1a530:	2610      	movs	r6, #16
   1a532:	2000      	movs	r0, #0

0001a534 <SWI2_IRQHandler>:
   1a534:	4b07      	ldr	r3, [pc, #28]	; (1a554 <SWI2_IRQHandler+0x20>)
   1a536:	b510      	push	{r4, lr}
   1a538:	681b      	ldr	r3, [r3, #0]
   1a53a:	2b00      	cmp	r3, #0
   1a53c:	d007      	beq.n	1a54e <SWI2_IRQHandler+0x1a>
   1a53e:	4798      	blx	r3
   1a540:	2800      	cmp	r0, #0
   1a542:	d003      	beq.n	1a54c <SWI2_IRQHandler+0x18>
   1a544:	2200      	movs	r2, #0
   1a546:	0011      	movs	r1, r2
   1a548:	f000 f978 	bl	1a83c <app_error_handler>
   1a54c:	bd10      	pop	{r4, pc}
   1a54e:	f7ff ff63 	bl	1a418 <intern_softdevice_events_execute>
   1a552:	e7fb      	b.n	1a54c <SWI2_IRQHandler+0x18>
   1a554:	2608      	movs	r6, #8
   1a556:	2000      	movs	r0, #0

0001a558 <sd_nvic_critical_region_enter>:
   1a558:	df36      	svc	54	; 0x36
   1a55a:	4770      	bx	lr

0001a55c <sd_nvic_critical_region_exit>:
   1a55c:	df37      	svc	55	; 0x37
   1a55e:	4770      	bx	lr

0001a560 <current_int_priority_get>:
   1a560:	4b10      	ldr	r3, [pc, #64]	; (1a5a4 <current_int_priority_get+0x44>)
   1a562:	2004      	movs	r0, #4
   1a564:	685b      	ldr	r3, [r3, #4]
   1a566:	05db      	lsls	r3, r3, #23
   1a568:	0ddb      	lsrs	r3, r3, #23
   1a56a:	d014      	beq.n	1a596 <current_int_priority_get+0x36>
   1a56c:	3b10      	subs	r3, #16
   1a56e:	b25a      	sxtb	r2, r3
   1a570:	b2db      	uxtb	r3, r3
   1a572:	0019      	movs	r1, r3
   1a574:	3801      	subs	r0, #1
   1a576:	4001      	ands	r1, r0
   1a578:	4081      	lsls	r1, r0
   1a57a:	2a00      	cmp	r2, #0
   1a57c:	da0c      	bge.n	1a598 <current_int_priority_get+0x38>
   1a57e:	220f      	movs	r2, #15
   1a580:	4013      	ands	r3, r2
   1a582:	3b08      	subs	r3, #8
   1a584:	089b      	lsrs	r3, r3, #2
   1a586:	4a08      	ldr	r2, [pc, #32]	; (1a5a8 <current_int_priority_get+0x48>)
   1a588:	009b      	lsls	r3, r3, #2
   1a58a:	189b      	adds	r3, r3, r2
   1a58c:	685b      	ldr	r3, [r3, #4]
   1a58e:	40cb      	lsrs	r3, r1
   1a590:	099b      	lsrs	r3, r3, #6
   1a592:	4018      	ands	r0, r3
   1a594:	b2c0      	uxtb	r0, r0
   1a596:	4770      	bx	lr
   1a598:	0892      	lsrs	r2, r2, #2
   1a59a:	32c0      	adds	r2, #192	; 0xc0
   1a59c:	4b03      	ldr	r3, [pc, #12]	; (1a5ac <current_int_priority_get+0x4c>)
   1a59e:	0092      	lsls	r2, r2, #2
   1a5a0:	58d3      	ldr	r3, [r2, r3]
   1a5a2:	e7f4      	b.n	1a58e <current_int_priority_get+0x2e>
   1a5a4:	ed00 e000 	stc	0, cr14, [r0, #-0]
   1a5a8:	ed18 e000 	ldc	0, cr14, [r8, #-0]
   1a5ac:	e100      	b.n	1a7b0 <app_twi_schedule+0x94>
   1a5ae:	e000      	b.n	1a5b2 <signal_end_of_transaction+0x2>

0001a5b0 <signal_end_of_transaction>:
   1a5b0:	0003      	movs	r3, r0
   1a5b2:	68da      	ldr	r2, [r3, #12]
   1a5b4:	b510      	push	{r4, lr}
   1a5b6:	6812      	ldr	r2, [r2, #0]
   1a5b8:	0008      	movs	r0, r1
   1a5ba:	2a00      	cmp	r2, #0
   1a5bc:	d004      	beq.n	1a5c8 <signal_end_of_transaction+0x18>
   1a5be:	68da      	ldr	r2, [r3, #12]
   1a5c0:	68db      	ldr	r3, [r3, #12]
   1a5c2:	6851      	ldr	r1, [r2, #4]
   1a5c4:	681b      	ldr	r3, [r3, #0]
   1a5c6:	4798      	blx	r3
   1a5c8:	bd10      	pop	{r4, pc}

0001a5ca <start_transfer>:
   1a5ca:	b573      	push	{r0, r1, r4, r5, r6, lr}
   1a5cc:	2601      	movs	r6, #1
   1a5ce:	7a03      	ldrb	r3, [r0, #8]
   1a5d0:	68c2      	ldr	r2, [r0, #12]
   1a5d2:	00db      	lsls	r3, r3, #3
   1a5d4:	6894      	ldr	r4, [r2, #8]
   1a5d6:	3010      	adds	r0, #16
   1a5d8:	18e4      	adds	r4, r4, r3
   1a5da:	7965      	ldrb	r5, [r4, #5]
   1a5dc:	6822      	ldr	r2, [r4, #0]
   1a5de:	7923      	ldrb	r3, [r4, #4]
   1a5e0:	79a4      	ldrb	r4, [r4, #6]
   1a5e2:	0869      	lsrs	r1, r5, #1
   1a5e4:	4034      	ands	r4, r6
   1a5e6:	9400      	str	r4, [sp, #0]
   1a5e8:	4235      	tst	r5, r6
   1a5ea:	d002      	beq.n	1a5f2 <start_transfer+0x28>
   1a5ec:	f7ff feed 	bl	1a3ca <nrf_drv_twi_rx>
   1a5f0:	bd76      	pop	{r1, r2, r4, r5, r6, pc}
   1a5f2:	f7ff fee1 	bl	1a3b8 <nrf_drv_twi_tx>
   1a5f6:	e7fb      	b.n	1a5f0 <start_transfer+0x26>

0001a5f8 <start_pending_transaction>:
   1a5f8:	b5f0      	push	{r4, r5, r6, r7, lr}
   1a5fa:	0004      	movs	r4, r0
   1a5fc:	b085      	sub	sp, #20
   1a5fe:	9101      	str	r1, [sp, #4]
   1a600:	2600      	movs	r6, #0
   1a602:	ab02      	add	r3, sp, #8
   1a604:	1ddd      	adds	r5, r3, #7
   1a606:	702e      	strb	r6, [r5, #0]
   1a608:	f7ff ffaa 	bl	1a560 <current_int_priority_get>
   1a60c:	0007      	movs	r7, r0
   1a60e:	2801      	cmp	r0, #1
   1a610:	d005      	beq.n	1a61e <start_pending_transaction+0x26>
   1a612:	0028      	movs	r0, r5
   1a614:	f7ff ffa0 	bl	1a558 <sd_nvic_critical_region_enter>
   1a618:	2802      	cmp	r0, #2
   1a61a:	d11f      	bne.n	1a65c <start_pending_transaction+0x64>
   1a61c:	b672      	cpsid	i
   1a61e:	9b01      	ldr	r3, [sp, #4]
   1a620:	2b00      	cmp	r3, #0
   1a622:	d102      	bne.n	1a62a <start_pending_transaction+0x32>
   1a624:	68e3      	ldr	r3, [r4, #12]
   1a626:	2b00      	cmp	r3, #0
   1a628:	d114      	bne.n	1a654 <start_pending_transaction+0x5c>
   1a62a:	7963      	ldrb	r3, [r4, #5]
   1a62c:	79a1      	ldrb	r1, [r4, #6]
   1a62e:	b2db      	uxtb	r3, r3
   1a630:	2200      	movs	r2, #0
   1a632:	428b      	cmp	r3, r1
   1a634:	d00a      	beq.n	1a64c <start_pending_transaction+0x54>
   1a636:	6821      	ldr	r1, [r4, #0]
   1a638:	009a      	lsls	r2, r3, #2
   1a63a:	188a      	adds	r2, r1, r2
   1a63c:	3301      	adds	r3, #1
   1a63e:	7921      	ldrb	r1, [r4, #4]
   1a640:	b2db      	uxtb	r3, r3
   1a642:	6812      	ldr	r2, [r2, #0]
   1a644:	4299      	cmp	r1, r3
   1a646:	d200      	bcs.n	1a64a <start_pending_transaction+0x52>
   1a648:	2300      	movs	r3, #0
   1a64a:	7163      	strb	r3, [r4, #5]
   1a64c:	60e2      	str	r2, [r4, #12]
   1a64e:	68e3      	ldr	r3, [r4, #12]
   1a650:	2b00      	cmp	r3, #0
   1a652:	d10c      	bne.n	1a66e <start_pending_transaction+0x76>
   1a654:	2f01      	cmp	r7, #1
   1a656:	d108      	bne.n	1a66a <start_pending_transaction+0x72>
   1a658:	b005      	add	sp, #20
   1a65a:	bdf0      	pop	{r4, r5, r6, r7, pc}
   1a65c:	2800      	cmp	r0, #0
   1a65e:	d0de      	beq.n	1a61e <start_pending_transaction+0x26>
   1a660:	0032      	movs	r2, r6
   1a662:	0031      	movs	r1, r6
   1a664:	f000 f8ea 	bl	1a83c <app_error_handler>
   1a668:	e7d9      	b.n	1a61e <start_pending_transaction+0x26>
   1a66a:	2600      	movs	r6, #0
   1a66c:	e002      	b.n	1a674 <start_pending_transaction+0x7c>
   1a66e:	2f01      	cmp	r7, #1
   1a670:	d00e      	beq.n	1a690 <start_pending_transaction+0x98>
   1a672:	2601      	movs	r6, #1
   1a674:	b662      	cpsie	i
   1a676:	7828      	ldrb	r0, [r5, #0]
   1a678:	f7ff ff70 	bl	1a55c <sd_nvic_critical_region_exit>
   1a67c:	2202      	movs	r2, #2
   1a67e:	0003      	movs	r3, r0
   1a680:	4393      	bics	r3, r2
   1a682:	d003      	beq.n	1a68c <start_pending_transaction+0x94>
   1a684:	2200      	movs	r2, #0
   1a686:	0011      	movs	r1, r2
   1a688:	f000 f8d8 	bl	1a83c <app_error_handler>
   1a68c:	2e00      	cmp	r6, #0
   1a68e:	d0e3      	beq.n	1a658 <start_pending_transaction+0x60>
   1a690:	2300      	movs	r3, #0
   1a692:	0020      	movs	r0, r4
   1a694:	7223      	strb	r3, [r4, #8]
   1a696:	f7ff ff98 	bl	1a5ca <start_transfer>
   1a69a:	1e01      	subs	r1, r0, #0
   1a69c:	d0dc      	beq.n	1a658 <start_pending_transaction+0x60>
   1a69e:	0020      	movs	r0, r4
   1a6a0:	f7ff ff86 	bl	1a5b0 <signal_end_of_transaction>
   1a6a4:	2301      	movs	r3, #1
   1a6a6:	9301      	str	r3, [sp, #4]
   1a6a8:	e7aa      	b.n	1a600 <start_pending_transaction+0x8>

0001a6aa <twi_event_handler>:
   1a6aa:	7803      	ldrb	r3, [r0, #0]
   1a6ac:	b510      	push	{r4, lr}
   1a6ae:	000c      	movs	r4, r1
   1a6b0:	2b02      	cmp	r3, #2
   1a6b2:	d00e      	beq.n	1a6d2 <twi_event_handler+0x28>
   1a6b4:	7a0b      	ldrb	r3, [r1, #8]
   1a6b6:	68ca      	ldr	r2, [r1, #12]
   1a6b8:	3301      	adds	r3, #1
   1a6ba:	7b12      	ldrb	r2, [r2, #12]
   1a6bc:	b2db      	uxtb	r3, r3
   1a6be:	2100      	movs	r1, #0
   1a6c0:	429a      	cmp	r2, r3
   1a6c2:	d907      	bls.n	1a6d4 <twi_event_handler+0x2a>
   1a6c4:	7223      	strb	r3, [r4, #8]
   1a6c6:	0020      	movs	r0, r4
   1a6c8:	f7ff ff7f 	bl	1a5ca <start_transfer>
   1a6cc:	1e01      	subs	r1, r0, #0
   1a6ce:	d101      	bne.n	1a6d4 <twi_event_handler+0x2a>
   1a6d0:	bd10      	pop	{r4, pc}
   1a6d2:	2103      	movs	r1, #3
   1a6d4:	0020      	movs	r0, r4
   1a6d6:	f7ff ff6b 	bl	1a5b0 <signal_end_of_transaction>
   1a6da:	2101      	movs	r1, #1
   1a6dc:	0020      	movs	r0, r4
   1a6de:	f7ff ff8b 	bl	1a5f8 <start_pending_transaction>
   1a6e2:	e7f5      	b.n	1a6d0 <twi_event_handler+0x26>

0001a6e4 <app_twi_init>:
   1a6e4:	b5f7      	push	{r0, r1, r2, r4, r5, r6, r7, lr}
   1a6e6:	0006      	movs	r6, r0
   1a6e8:	3610      	adds	r6, #16
   1a6ea:	9201      	str	r2, [sp, #4]
   1a6ec:	0004      	movs	r4, r0
   1a6ee:	001f      	movs	r7, r3
   1a6f0:	4a09      	ldr	r2, [pc, #36]	; (1a718 <app_twi_init+0x34>)
   1a6f2:	0003      	movs	r3, r0
   1a6f4:	0030      	movs	r0, r6
   1a6f6:	f7ff fd5f 	bl	1a1b8 <nrf_drv_twi_init>
   1a6fa:	1e05      	subs	r5, r0, #0
   1a6fc:	d109      	bne.n	1a712 <app_twi_init+0x2e>
   1a6fe:	0030      	movs	r0, r6
   1a700:	f7ff fe36 	bl	1a370 <nrf_drv_twi_enable>
   1a704:	9b01      	ldr	r3, [sp, #4]
   1a706:	7165      	strb	r5, [r4, #5]
   1a708:	6027      	str	r7, [r4, #0]
   1a70a:	71a5      	strb	r5, [r4, #6]
   1a70c:	7123      	strb	r3, [r4, #4]
   1a70e:	7265      	strb	r5, [r4, #9]
   1a710:	60e5      	str	r5, [r4, #12]
   1a712:	0028      	movs	r0, r5
   1a714:	bdfe      	pop	{r1, r2, r3, r4, r5, r6, r7, pc}
   1a716:	46c0      	nop			; (mov r8, r8)
   1a718:	a6ab      	add	r6, pc, #684	; (adr r6, 1a9c8 <gap_params_init+0x50>)
   1a71a:	0001      	movs	r1, r0

0001a71c <app_twi_schedule>:
   1a71c:	b5f0      	push	{r4, r5, r6, r7, lr}
   1a71e:	2700      	movs	r7, #0
   1a720:	b085      	sub	sp, #20
   1a722:	ab02      	add	r3, sp, #8
   1a724:	1ddd      	adds	r5, r3, #7
   1a726:	0004      	movs	r4, r0
   1a728:	9101      	str	r1, [sp, #4]
   1a72a:	702f      	strb	r7, [r5, #0]
   1a72c:	f7ff ff18 	bl	1a560 <current_int_priority_get>
   1a730:	0006      	movs	r6, r0
   1a732:	2801      	cmp	r0, #1
   1a734:	d005      	beq.n	1a742 <app_twi_schedule+0x26>
   1a736:	0028      	movs	r0, r5
   1a738:	f7ff ff0e 	bl	1a558 <sd_nvic_critical_region_enter>
   1a73c:	2802      	cmp	r0, #2
   1a73e:	d130      	bne.n	1a7a2 <app_twi_schedule+0x86>
   1a740:	b672      	cpsid	i
   1a742:	79a3      	ldrb	r3, [r4, #6]
   1a744:	7921      	ldrb	r1, [r4, #4]
   1a746:	b2db      	uxtb	r3, r3
   1a748:	428b      	cmp	r3, r1
   1a74a:	d102      	bne.n	1a752 <app_twi_schedule+0x36>
   1a74c:	7962      	ldrb	r2, [r4, #5]
   1a74e:	2a00      	cmp	r2, #0
   1a750:	d030      	beq.n	1a7b4 <app_twi_schedule+0x98>
   1a752:	7962      	ldrb	r2, [r4, #5]
   1a754:	3a01      	subs	r2, #1
   1a756:	4293      	cmp	r3, r2
   1a758:	d02c      	beq.n	1a7b4 <app_twi_schedule+0x98>
   1a75a:	6820      	ldr	r0, [r4, #0]
   1a75c:	009a      	lsls	r2, r3, #2
   1a75e:	1882      	adds	r2, r0, r2
   1a760:	3301      	adds	r3, #1
   1a762:	9801      	ldr	r0, [sp, #4]
   1a764:	b2db      	uxtb	r3, r3
   1a766:	6010      	str	r0, [r2, #0]
   1a768:	4299      	cmp	r1, r3
   1a76a:	d200      	bcs.n	1a76e <app_twi_schedule+0x52>
   1a76c:	2300      	movs	r3, #0
   1a76e:	71a3      	strb	r3, [r4, #6]
   1a770:	2e01      	cmp	r6, #1
   1a772:	d00e      	beq.n	1a792 <app_twi_schedule+0x76>
   1a774:	2600      	movs	r6, #0
   1a776:	b662      	cpsie	i
   1a778:	7828      	ldrb	r0, [r5, #0]
   1a77a:	f7ff feef 	bl	1a55c <sd_nvic_critical_region_exit>
   1a77e:	2302      	movs	r3, #2
   1a780:	0002      	movs	r2, r0
   1a782:	439a      	bics	r2, r3
   1a784:	d003      	beq.n	1a78e <app_twi_schedule+0x72>
   1a786:	2200      	movs	r2, #0
   1a788:	0011      	movs	r1, r2
   1a78a:	f000 f857 	bl	1a83c <app_error_handler>
   1a78e:	2e00      	cmp	r6, #0
   1a790:	d104      	bne.n	1a79c <app_twi_schedule+0x80>
   1a792:	2100      	movs	r1, #0
   1a794:	0020      	movs	r0, r4
   1a796:	f7ff ff2f 	bl	1a5f8 <start_pending_transaction>
   1a79a:	2600      	movs	r6, #0
   1a79c:	0030      	movs	r0, r6
   1a79e:	b005      	add	sp, #20
   1a7a0:	bdf0      	pop	{r4, r5, r6, r7, pc}
   1a7a2:	2800      	cmp	r0, #0
   1a7a4:	d0cd      	beq.n	1a742 <app_twi_schedule+0x26>
   1a7a6:	003a      	movs	r2, r7
   1a7a8:	0039      	movs	r1, r7
   1a7aa:	f000 f847 	bl	1a83c <app_error_handler>
   1a7ae:	e7c8      	b.n	1a742 <app_twi_schedule+0x26>
   1a7b0:	2611      	movs	r6, #17
   1a7b2:	e7f3      	b.n	1a79c <app_twi_schedule+0x80>
   1a7b4:	2e01      	cmp	r6, #1
   1a7b6:	d0fb      	beq.n	1a7b0 <app_twi_schedule+0x94>
   1a7b8:	2611      	movs	r6, #17
   1a7ba:	e7dc      	b.n	1a776 <app_twi_schedule+0x5a>

0001a7bc <sd_ble_gap_address_set>:
   1a7bc:	df70      	svc	112	; 0x70
   1a7be:	4770      	bx	lr

0001a7c0 <sd_ble_gap_address_get>:
   1a7c0:	df71      	svc	113	; 0x71
   1a7c2:	4770      	bx	lr

0001a7c4 <sd_ble_gap_adv_start>:
   1a7c4:	df73      	svc	115	; 0x73
   1a7c6:	4770      	bx	lr

0001a7c8 <sd_ble_gap_adv_stop>:
   1a7c8:	df74      	svc	116	; 0x74
   1a7ca:	4770      	bx	lr

0001a7cc <sd_ble_gap_disconnect>:
   1a7cc:	df76      	svc	118	; 0x76
   1a7ce:	4770      	bx	lr

0001a7d0 <sd_ble_gap_tx_power_set>:
   1a7d0:	df77      	svc	119	; 0x77
   1a7d2:	4770      	bx	lr

0001a7d4 <sd_ble_gap_appearance_set>:
   1a7d4:	df78      	svc	120	; 0x78
   1a7d6:	4770      	bx	lr

0001a7d8 <sd_ble_gap_ppcp_set>:
   1a7d8:	df7a      	svc	122	; 0x7a
   1a7da:	4770      	bx	lr

0001a7dc <sd_ble_gap_device_name_set>:
   1a7dc:	df7c      	svc	124	; 0x7c
   1a7de:	4770      	bx	lr

0001a7e0 <sd_ble_gap_sec_params_reply>:
   1a7e0:	df7f      	svc	127	; 0x7f
   1a7e2:	4770      	bx	lr

0001a7e4 <sd_ble_gap_sec_info_reply>:
   1a7e4:	df82      	svc	130	; 0x82
   1a7e6:	4770      	bx	lr

0001a7e8 <sd_ble_gatts_sys_attr_set>:
   1a7e8:	dfa9      	svc	169	; 0xa9
   1a7ea:	4770      	bx	lr

0001a7ec <sd_ble_enable>:
   1a7ec:	df60      	svc	96	; 0x60
   1a7ee:	4770      	bx	lr

0001a7f0 <sd_power_system_off>:
   1a7f0:	df3c      	svc	60	; 0x3c
   1a7f2:	4770      	bx	lr

0001a7f4 <sd_app_evt_wait>:
   1a7f4:	df48      	svc	72	; 0x48
   1a7f6:	4770      	bx	lr

0001a7f8 <conn_params_error_handler>:
   1a7f8:	4b03      	ldr	r3, [pc, #12]	; (1a808 <conn_params_error_handler+0x10>)
   1a7fa:	b510      	push	{r4, lr}
   1a7fc:	2b00      	cmp	r3, #0
   1a7fe:	d001      	beq.n	1a804 <conn_params_error_handler+0xc>
   1a800:	e000      	b.n	1a804 <conn_params_error_handler+0xc>
   1a802:	bf00      	nop
   1a804:	e7fe      	b.n	1a804 <conn_params_error_handler+0xc>
   1a806:	46c0      	nop			; (mov r8, r8)
   1a808:	0000      	movs	r0, r0
	...

0001a80c <sys_evt_dispatch>:
   1a80c:	4770      	bx	lr
	...

0001a810 <on_conn_params_evt>:
   1a810:	7803      	ldrb	r3, [r0, #0]
   1a812:	b510      	push	{r4, lr}
   1a814:	2b00      	cmp	r3, #0
   1a816:	d10c      	bne.n	1a832 <on_conn_params_evt+0x22>
   1a818:	4b06      	ldr	r3, [pc, #24]	; (1a834 <on_conn_params_evt+0x24>)
   1a81a:	213b      	movs	r1, #59	; 0x3b
   1a81c:	8818      	ldrh	r0, [r3, #0]
   1a81e:	f7ff ffd5 	bl	1a7cc <sd_ble_gap_disconnect>
   1a822:	2800      	cmp	r0, #0
   1a824:	d005      	beq.n	1a832 <on_conn_params_evt+0x22>
   1a826:	4b04      	ldr	r3, [pc, #16]	; (1a838 <on_conn_params_evt+0x28>)
   1a828:	2b00      	cmp	r3, #0
   1a82a:	d001      	beq.n	1a830 <on_conn_params_evt+0x20>
   1a82c:	e000      	b.n	1a830 <on_conn_params_evt+0x20>
   1a82e:	bf00      	nop
   1a830:	e7fe      	b.n	1a830 <on_conn_params_evt+0x20>
   1a832:	bd10      	pop	{r4, pc}
   1a834:	2994      	cmp	r1, #148	; 0x94
   1a836:	2000      	movs	r0, #0
   1a838:	0000      	movs	r0, r0
	...

0001a83c <app_error_handler>:
   1a83c:	4b03      	ldr	r3, [pc, #12]	; (1a84c <app_error_handler+0x10>)
   1a83e:	b510      	push	{r4, lr}
   1a840:	2b00      	cmp	r3, #0
   1a842:	d001      	beq.n	1a848 <app_error_handler+0xc>
   1a844:	e000      	b.n	1a848 <app_error_handler+0xc>
   1a846:	bf00      	nop
   1a848:	e7fe      	b.n	1a848 <app_error_handler+0xc>
   1a84a:	46c0      	nop			; (mov r8, r8)
   1a84c:	0000      	movs	r0, r0
	...

0001a850 <assert_nrf_callback>:
   1a850:	4b03      	ldr	r3, [pc, #12]	; (1a860 <assert_nrf_callback+0x10>)
   1a852:	b510      	push	{r4, lr}
   1a854:	2b00      	cmp	r3, #0
   1a856:	d002      	beq.n	1a85e <assert_nrf_callback+0xe>
   1a858:	4802      	ldr	r0, [pc, #8]	; (1a864 <assert_nrf_callback+0x14>)
   1a85a:	e000      	b.n	1a85e <assert_nrf_callback+0xe>
   1a85c:	bf00      	nop
   1a85e:	e7fe      	b.n	1a85e <assert_nrf_callback+0xe>
   1a860:	0000      	movs	r0, r0
   1a862:	0000      	movs	r0, r0
   1a864:	beef      	bkpt	0x00ef
   1a866:	dead      	udf	#173	; 0xad

0001a868 <ble_address_set>:
   1a868:	b51f      	push	{r0, r1, r2, r3, r4, lr}
   1a86a:	4b1e      	ldr	r3, [pc, #120]	; (1a8e4 <ble_address_set+0x7c>)
   1a86c:	ac02      	add	r4, sp, #8
   1a86e:	781b      	ldrb	r3, [r3, #0]
   1a870:	2bff      	cmp	r3, #255	; 0xff
   1a872:	d132      	bne.n	1a8da <ble_address_set+0x72>
   1a874:	4b1c      	ldr	r3, [pc, #112]	; (1a8e8 <ble_address_set+0x80>)
   1a876:	781b      	ldrb	r3, [r3, #0]
   1a878:	2bff      	cmp	r3, #255	; 0xff
   1a87a:	d12e      	bne.n	1a8da <ble_address_set+0x72>
   1a87c:	2300      	movs	r3, #0
   1a87e:	466a      	mov	r2, sp
   1a880:	4669      	mov	r1, sp
   1a882:	8013      	strh	r3, [r2, #0]
   1a884:	4b19      	ldr	r3, [pc, #100]	; (1a8ec <ble_address_set+0x84>)
   1a886:	681b      	ldr	r3, [r3, #0]
   1a888:	781a      	ldrb	r2, [r3, #0]
   1a88a:	708a      	strb	r2, [r1, #2]
   1a88c:	22e5      	movs	r2, #229	; 0xe5
   1a88e:	70ca      	strb	r2, [r1, #3]
   1a890:	3a4d      	subs	r2, #77	; 0x4d
   1a892:	710a      	strb	r2, [r1, #4]
   1a894:	3228      	adds	r2, #40	; 0x28
   1a896:	714a      	strb	r2, [r1, #5]
   1a898:	885b      	ldrh	r3, [r3, #2]
   1a89a:	4a15      	ldr	r2, [pc, #84]	; (1a8f0 <ble_address_set+0x88>)
   1a89c:	4293      	cmp	r3, r2
   1a89e:	d005      	beq.n	1a8ac <ble_address_set+0x44>
   1a8a0:	2206      	movs	r2, #6
   1a8a2:	700b      	strb	r3, [r1, #0]
   1a8a4:	0a1b      	lsrs	r3, r3, #8
   1a8a6:	704b      	strb	r3, [r1, #1]
   1a8a8:	2009      	movs	r0, #9
   1a8aa:	e006      	b.n	1a8ba <ble_address_set+0x52>
   1a8ac:	0020      	movs	r0, r4
   1a8ae:	f7ff ff87 	bl	1a7c0 <sd_ble_gap_address_get>
   1a8b2:	466b      	mov	r3, sp
   1a8b4:	2204      	movs	r2, #4
   1a8b6:	200b      	movs	r0, #11
   1a8b8:	1c99      	adds	r1, r3, #2
   1a8ba:	4468      	add	r0, sp
   1a8bc:	f001 fe9a 	bl	1c5f4 <memcpy>
   1a8c0:	2000      	movs	r0, #0
   1a8c2:	0021      	movs	r1, r4
   1a8c4:	7020      	strb	r0, [r4, #0]
   1a8c6:	f7ff ff79 	bl	1a7bc <sd_ble_gap_address_set>
   1a8ca:	2800      	cmp	r0, #0
   1a8cc:	d008      	beq.n	1a8e0 <ble_address_set+0x78>
   1a8ce:	4b09      	ldr	r3, [pc, #36]	; (1a8f4 <ble_address_set+0x8c>)
   1a8d0:	2b00      	cmp	r3, #0
   1a8d2:	d001      	beq.n	1a8d8 <ble_address_set+0x70>
   1a8d4:	e000      	b.n	1a8d8 <ble_address_set+0x70>
   1a8d6:	bf00      	nop
   1a8d8:	e7fe      	b.n	1a8d8 <ble_address_set+0x70>
   1a8da:	2206      	movs	r2, #6
   1a8dc:	4902      	ldr	r1, [pc, #8]	; (1a8e8 <ble_address_set+0x80>)
   1a8de:	e7e3      	b.n	1a8a8 <ble_address_set+0x40>
   1a8e0:	bd1f      	pop	{r0, r1, r2, r3, r4, pc}
   1a8e2:	46c0      	nop			; (mov r8, r8)
   1a8e4:	fff9 0003 	vcgt.s32	d16, d3, #0
   1a8e8:	fff8 0003 	vrev64.32	d16, d3
   1a8ec:	2948      	cmp	r1, #72	; 0x48
   1a8ee:	2000      	movs	r0, #0
   1a8f0:	ffff 0000 	vaddl.u<illegal width 64>	q8, d15, d0
   1a8f4:	0000      	movs	r0, r0
	...

0001a8f8 <ble_stack_init>:
   1a8f8:	b507      	push	{r0, r1, r2, lr}
   1a8fa:	2300      	movs	r3, #0
   1a8fc:	2248      	movs	r2, #72	; 0x48
   1a8fe:	491a      	ldr	r1, [pc, #104]	; (1a968 <ble_stack_init+0x70>)
   1a900:	200e      	movs	r0, #14
   1a902:	f7ff fddf 	bl	1a4c4 <softdevice_handler_init>
   1a906:	2800      	cmp	r0, #0
   1a908:	d005      	beq.n	1a916 <ble_stack_init+0x1e>
   1a90a:	4b18      	ldr	r3, [pc, #96]	; (1a96c <ble_stack_init+0x74>)
   1a90c:	2b00      	cmp	r3, #0
   1a90e:	d001      	beq.n	1a914 <ble_stack_init+0x1c>
   1a910:	e000      	b.n	1a914 <ble_stack_init+0x1c>
   1a912:	bf00      	nop
   1a914:	e7fe      	b.n	1a914 <ble_stack_init+0x1c>
   1a916:	0001      	movs	r1, r0
   1a918:	2208      	movs	r2, #8
   1a91a:	4668      	mov	r0, sp
   1a91c:	f001 feae 	bl	1c67c <memset>
   1a920:	4668      	mov	r0, sp
   1a922:	f7ff ff63 	bl	1a7ec <sd_ble_enable>
   1a926:	2800      	cmp	r0, #0
   1a928:	d005      	beq.n	1a936 <ble_stack_init+0x3e>
   1a92a:	4b10      	ldr	r3, [pc, #64]	; (1a96c <ble_stack_init+0x74>)
   1a92c:	2b00      	cmp	r3, #0
   1a92e:	d001      	beq.n	1a934 <ble_stack_init+0x3c>
   1a930:	e000      	b.n	1a934 <ble_stack_init+0x3c>
   1a932:	bf00      	nop
   1a934:	e7fe      	b.n	1a934 <ble_stack_init+0x3c>
   1a936:	480e      	ldr	r0, [pc, #56]	; (1a970 <ble_stack_init+0x78>)
   1a938:	f7ff fde8 	bl	1a50c <softdevice_ble_evt_handler_set>
   1a93c:	2800      	cmp	r0, #0
   1a93e:	d005      	beq.n	1a94c <ble_stack_init+0x54>
   1a940:	4b0a      	ldr	r3, [pc, #40]	; (1a96c <ble_stack_init+0x74>)
   1a942:	2b00      	cmp	r3, #0
   1a944:	d001      	beq.n	1a94a <ble_stack_init+0x52>
   1a946:	e000      	b.n	1a94a <ble_stack_init+0x52>
   1a948:	bf00      	nop
   1a94a:	e7fe      	b.n	1a94a <ble_stack_init+0x52>
   1a94c:	4809      	ldr	r0, [pc, #36]	; (1a974 <ble_stack_init+0x7c>)
   1a94e:	f7ff fde7 	bl	1a520 <softdevice_sys_evt_handler_set>
   1a952:	2800      	cmp	r0, #0
   1a954:	d005      	beq.n	1a962 <ble_stack_init+0x6a>
   1a956:	4b05      	ldr	r3, [pc, #20]	; (1a96c <ble_stack_init+0x74>)
   1a958:	2b00      	cmp	r3, #0
   1a95a:	d001      	beq.n	1a960 <ble_stack_init+0x68>
   1a95c:	e000      	b.n	1a960 <ble_stack_init+0x68>
   1a95e:	bf00      	nop
   1a960:	e7fe      	b.n	1a960 <ble_stack_init+0x68>
   1a962:	f7ff ff81 	bl	1a868 <ble_address_set>
   1a966:	bd07      	pop	{r0, r1, r2, pc}
   1a968:	2900      	cmp	r1, #0
   1a96a:	2000      	movs	r0, #0
   1a96c:	0000      	movs	r0, r0
   1a96e:	0000      	movs	r0, r0
   1a970:	aaf1      	add	r2, sp, #964	; 0x3c4
   1a972:	0001      	movs	r1, r0
   1a974:	a80d      	add	r0, sp, #52	; 0x34
   1a976:	0001      	movs	r1, r0

0001a978 <gap_params_init>:
   1a978:	b537      	push	{r0, r1, r2, r4, r5, lr}
   1a97a:	2004      	movs	r0, #4
   1a97c:	f7ff ff28 	bl	1a7d0 <sd_ble_gap_tx_power_set>
   1a980:	2311      	movs	r3, #17
   1a982:	ac01      	add	r4, sp, #4
   1a984:	7023      	strb	r3, [r4, #0]
   1a986:	4b0f      	ldr	r3, [pc, #60]	; (1a9c4 <gap_params_init+0x4c>)
   1a988:	681b      	ldr	r3, [r3, #0]
   1a98a:	685d      	ldr	r5, [r3, #4]
   1a98c:	0028      	movs	r0, r5
   1a98e:	f001 fec3 	bl	1c718 <strlen>
   1a992:	0029      	movs	r1, r5
   1a994:	b282      	uxth	r2, r0
   1a996:	0020      	movs	r0, r4
   1a998:	f7ff ff20 	bl	1a7dc <sd_ble_gap_device_name_set>
   1a99c:	2800      	cmp	r0, #0
   1a99e:	d005      	beq.n	1a9ac <gap_params_init+0x34>
   1a9a0:	4b09      	ldr	r3, [pc, #36]	; (1a9c8 <gap_params_init+0x50>)
   1a9a2:	2b00      	cmp	r3, #0
   1a9a4:	d001      	beq.n	1a9aa <gap_params_init+0x32>
   1a9a6:	e000      	b.n	1a9aa <gap_params_init+0x32>
   1a9a8:	bf00      	nop
   1a9aa:	e7fe      	b.n	1a9aa <gap_params_init+0x32>
   1a9ac:	2080      	movs	r0, #128	; 0x80
   1a9ae:	f7ff ff11 	bl	1a7d4 <sd_ble_gap_appearance_set>
   1a9b2:	2800      	cmp	r0, #0
   1a9b4:	d005      	beq.n	1a9c2 <gap_params_init+0x4a>
   1a9b6:	4b04      	ldr	r3, [pc, #16]	; (1a9c8 <gap_params_init+0x50>)
   1a9b8:	2b00      	cmp	r3, #0
   1a9ba:	d001      	beq.n	1a9c0 <gap_params_init+0x48>
   1a9bc:	e000      	b.n	1a9c0 <gap_params_init+0x48>
   1a9be:	bf00      	nop
   1a9c0:	e7fe      	b.n	1a9c0 <gap_params_init+0x48>
   1a9c2:	bd37      	pop	{r0, r1, r2, r4, r5, pc}
   1a9c4:	2948      	cmp	r1, #72	; 0x48
   1a9c6:	2000      	movs	r0, #0
   1a9c8:	0000      	movs	r0, r0
	...

0001a9cc <advertising_init>:
   1a9cc:	b510      	push	{r4, lr}
   1a9ce:	4c05      	ldr	r4, [pc, #20]	; (1a9e4 <advertising_init+0x18>)
   1a9d0:	2218      	movs	r2, #24
   1a9d2:	2100      	movs	r1, #0
   1a9d4:	0020      	movs	r0, r4
   1a9d6:	f001 fe51 	bl	1c67c <memset>
   1a9da:	4b03      	ldr	r3, [pc, #12]	; (1a9e8 <advertising_init+0x1c>)
   1a9dc:	681b      	ldr	r3, [r3, #0]
   1a9de:	891b      	ldrh	r3, [r3, #8]
   1a9e0:	8223      	strh	r3, [r4, #16]
   1a9e2:	bd10      	pop	{r4, pc}
   1a9e4:	297c      	cmp	r1, #124	; 0x7c
   1a9e6:	2000      	movs	r0, #0
   1a9e8:	2948      	cmp	r1, #72	; 0x48
   1a9ea:	2000      	movs	r0, #0

0001a9ec <conn_params_init>:
   1a9ec:	b510      	push	{r4, lr}
   1a9ee:	4b1c      	ldr	r3, [pc, #112]	; (1aa60 <conn_params_init+0x74>)
   1a9f0:	b08c      	sub	sp, #48	; 0x30
   1a9f2:	681b      	ldr	r3, [r3, #0]
   1a9f4:	a803      	add	r0, sp, #12
   1a9f6:	895a      	ldrh	r2, [r3, #10]
   1a9f8:	8002      	strh	r2, [r0, #0]
   1a9fa:	899b      	ldrh	r3, [r3, #12]
   1a9fc:	8043      	strh	r3, [r0, #2]
   1a9fe:	4b19      	ldr	r3, [pc, #100]	; (1aa64 <conn_params_init+0x78>)
   1aa00:	681b      	ldr	r3, [r3, #0]
   1aa02:	8083      	strh	r3, [r0, #4]
   1aa04:	4b18      	ldr	r3, [pc, #96]	; (1aa68 <conn_params_init+0x7c>)
   1aa06:	681b      	ldr	r3, [r3, #0]
   1aa08:	9301      	str	r3, [sp, #4]
   1aa0a:	80c3      	strh	r3, [r0, #6]
   1aa0c:	f7ff fee4 	bl	1a7d8 <sd_ble_gap_ppcp_set>
   1aa10:	2800      	cmp	r0, #0
   1aa12:	d005      	beq.n	1aa20 <conn_params_init+0x34>
   1aa14:	4b15      	ldr	r3, [pc, #84]	; (1aa6c <conn_params_init+0x80>)
   1aa16:	2b00      	cmp	r3, #0
   1aa18:	d001      	beq.n	1aa1e <conn_params_init+0x32>
   1aa1a:	e000      	b.n	1aa1e <conn_params_init+0x32>
   1aa1c:	bf00      	nop
   1aa1e:	e7fe      	b.n	1aa1e <conn_params_init+0x32>
   1aa20:	ac05      	add	r4, sp, #20
   1aa22:	0001      	movs	r1, r0
   1aa24:	2214      	movs	r2, #20
   1aa26:	0020      	movs	r0, r4
   1aa28:	f001 fe28 	bl	1c67c <memset>
   1aa2c:	4b10      	ldr	r3, [pc, #64]	; (1aa70 <conn_params_init+0x84>)
   1aa2e:	0020      	movs	r0, r4
   1aa30:	681b      	ldr	r3, [r3, #0]
   1aa32:	9301      	str	r3, [sp, #4]
   1aa34:	6063      	str	r3, [r4, #4]
   1aa36:	23f0      	movs	r3, #240	; 0xf0
   1aa38:	031b      	lsls	r3, r3, #12
   1aa3a:	60a3      	str	r3, [r4, #8]
   1aa3c:	2303      	movs	r3, #3
   1aa3e:	7323      	strb	r3, [r4, #12]
   1aa40:	4b0c      	ldr	r3, [pc, #48]	; (1aa74 <conn_params_init+0x88>)
   1aa42:	6163      	str	r3, [r4, #20]
   1aa44:	4b0c      	ldr	r3, [pc, #48]	; (1aa78 <conn_params_init+0x8c>)
   1aa46:	61a3      	str	r3, [r4, #24]
   1aa48:	f7ff f838 	bl	19abc <ble_conn_params_init>
   1aa4c:	2800      	cmp	r0, #0
   1aa4e:	d005      	beq.n	1aa5c <conn_params_init+0x70>
   1aa50:	4b06      	ldr	r3, [pc, #24]	; (1aa6c <conn_params_init+0x80>)
   1aa52:	2b00      	cmp	r3, #0
   1aa54:	d001      	beq.n	1aa5a <conn_params_init+0x6e>
   1aa56:	e000      	b.n	1aa5a <conn_params_init+0x6e>
   1aa58:	bf00      	nop
   1aa5a:	e7fe      	b.n	1aa5a <conn_params_init+0x6e>
   1aa5c:	b00c      	add	sp, #48	; 0x30
   1aa5e:	bd10      	pop	{r4, pc}
   1aa60:	2948      	cmp	r1, #72	; 0x48
   1aa62:	2000      	movs	r0, #0
   1aa64:	f2c0 0001 	movt	r0, #1
   1aa68:	f2b8 0001 			; <UNDEFINED> instruction: 0xf2b80001
   1aa6c:	0000      	movs	r0, r0
   1aa6e:	0000      	movs	r0, r0
   1aa70:	f2bc 0001 			; <UNDEFINED> instruction: 0xf2bc0001
   1aa74:	a811      	add	r0, sp, #68	; 0x44
   1aa76:	0001      	movs	r1, r0
   1aa78:	a7f9      	add	r7, pc, #996	; (adr r7, 1ae60 <__aeabi_f2uiz+0x4>)
   1aa7a:	0001      	movs	r1, r0

0001aa7c <services_init>:
   1aa7c:	4770      	bx	lr
	...

0001aa80 <initialize_app_timer>:
   1aa80:	2300      	movs	r3, #0
   1aa82:	b510      	push	{r4, lr}
   1aa84:	4a06      	ldr	r2, [pc, #24]	; (1aaa0 <initialize_app_timer+0x20>)
   1aa86:	2109      	movs	r1, #9
   1aa88:	0018      	movs	r0, r3
   1aa8a:	f7fe fbc1 	bl	19210 <app_timer_init>
   1aa8e:	2800      	cmp	r0, #0
   1aa90:	d005      	beq.n	1aa9e <initialize_app_timer+0x1e>
   1aa92:	4b04      	ldr	r3, [pc, #16]	; (1aaa4 <initialize_app_timer+0x24>)
   1aa94:	2b00      	cmp	r3, #0
   1aa96:	d001      	beq.n	1aa9c <initialize_app_timer+0x1c>
   1aa98:	e000      	b.n	1aa9c <initialize_app_timer+0x1c>
   1aa9a:	bf00      	nop
   1aa9c:	e7fe      	b.n	1aa9c <initialize_app_timer+0x1c>
   1aa9e:	bd10      	pop	{r4, pc}
   1aaa0:	2618      	movs	r6, #24
   1aaa2:	2000      	movs	r0, #0
   1aaa4:	0000      	movs	r0, r0
	...

0001aaa8 <advertising_start>:
   1aaa8:	b510      	push	{r4, lr}
   1aaaa:	4807      	ldr	r0, [pc, #28]	; (1aac8 <advertising_start+0x20>)
   1aaac:	f7ff fe8a 	bl	1a7c4 <sd_ble_gap_adv_start>
   1aab0:	2308      	movs	r3, #8
   1aab2:	0002      	movs	r2, r0
   1aab4:	439a      	bics	r2, r3
   1aab6:	d005      	beq.n	1aac4 <advertising_start+0x1c>
   1aab8:	4b04      	ldr	r3, [pc, #16]	; (1aacc <advertising_start+0x24>)
   1aaba:	2b00      	cmp	r3, #0
   1aabc:	d001      	beq.n	1aac2 <advertising_start+0x1a>
   1aabe:	e000      	b.n	1aac2 <advertising_start+0x1a>
   1aac0:	bf00      	nop
   1aac2:	e7fe      	b.n	1aac2 <advertising_start+0x1a>
   1aac4:	bd10      	pop	{r4, pc}
   1aac6:	46c0      	nop			; (mov r8, r8)
   1aac8:	297c      	cmp	r1, #124	; 0x7c
   1aaca:	2000      	movs	r0, #0
   1aacc:	0000      	movs	r0, r0
	...

0001aad0 <advertising_stop>:
   1aad0:	b510      	push	{r4, lr}
   1aad2:	f7ff fe79 	bl	1a7c8 <sd_ble_gap_adv_stop>
   1aad6:	2308      	movs	r3, #8
   1aad8:	0002      	movs	r2, r0
   1aada:	439a      	bics	r2, r3
   1aadc:	d005      	beq.n	1aaea <advertising_stop+0x1a>
   1aade:	4b03      	ldr	r3, [pc, #12]	; (1aaec <advertising_stop+0x1c>)
   1aae0:	2b00      	cmp	r3, #0
   1aae2:	d001      	beq.n	1aae8 <advertising_stop+0x18>
   1aae4:	e000      	b.n	1aae8 <advertising_stop+0x18>
   1aae6:	bf00      	nop
   1aae8:	e7fe      	b.n	1aae8 <advertising_stop+0x18>
   1aaea:	bd10      	pop	{r4, pc}
   1aaec:	0000      	movs	r0, r0
	...

0001aaf0 <ble_evt_dispatch>:
   1aaf0:	8803      	ldrh	r3, [r0, #0]
   1aaf2:	b570      	push	{r4, r5, r6, lr}
   1aaf4:	0004      	movs	r4, r0
   1aaf6:	2b19      	cmp	r3, #25
   1aaf8:	d100      	bne.n	1aafc <ble_evt_dispatch+0xc>
   1aafa:	e09b      	b.n	1ac34 <ble_evt_dispatch+0x144>
   1aafc:	d821      	bhi.n	1ab42 <ble_evt_dispatch+0x52>
   1aafe:	2b11      	cmp	r3, #17
   1ab00:	d05e      	beq.n	1abc0 <ble_evt_dispatch+0xd0>
   1ab02:	d80b      	bhi.n	1ab1c <ble_evt_dispatch+0x2c>
   1ab04:	2b10      	cmp	r3, #16
   1ab06:	d03e      	beq.n	1ab86 <ble_evt_dispatch+0x96>
   1ab08:	4b55      	ldr	r3, [pc, #340]	; (1ac60 <ble_evt_dispatch+0x170>)
   1ab0a:	2b00      	cmp	r3, #0
   1ab0c:	d002      	beq.n	1ab14 <ble_evt_dispatch+0x24>
   1ab0e:	0020      	movs	r0, r4
   1ab10:	e000      	b.n	1ab14 <ble_evt_dispatch+0x24>
   1ab12:	bf00      	nop
   1ab14:	0020      	movs	r0, r4
   1ab16:	f7ff f809 	bl	19b2c <ble_conn_params_on_ble_evt>
   1ab1a:	bd70      	pop	{r4, r5, r6, pc}
   1ab1c:	2b13      	cmp	r3, #19
   1ab1e:	d069      	beq.n	1abf4 <ble_evt_dispatch+0x104>
   1ab20:	2b14      	cmp	r3, #20
   1ab22:	d1f1      	bne.n	1ab08 <ble_evt_dispatch+0x18>
   1ab24:	4b4f      	ldr	r3, [pc, #316]	; (1ac64 <ble_evt_dispatch+0x174>)
   1ab26:	8818      	ldrh	r0, [r3, #0]
   1ab28:	2300      	movs	r3, #0
   1ab2a:	001a      	movs	r2, r3
   1ab2c:	0019      	movs	r1, r3
   1ab2e:	f7ff fe59 	bl	1a7e4 <sd_ble_gap_sec_info_reply>
   1ab32:	2800      	cmp	r0, #0
   1ab34:	d0e8      	beq.n	1ab08 <ble_evt_dispatch+0x18>
   1ab36:	4b4c      	ldr	r3, [pc, #304]	; (1ac68 <ble_evt_dispatch+0x178>)
   1ab38:	2b00      	cmp	r3, #0
   1ab3a:	d001      	beq.n	1ab40 <ble_evt_dispatch+0x50>
   1ab3c:	e000      	b.n	1ab40 <ble_evt_dispatch+0x50>
   1ab3e:	bf00      	nop
   1ab40:	e7fe      	b.n	1ab40 <ble_evt_dispatch+0x50>
   1ab42:	2b51      	cmp	r3, #81	; 0x51
   1ab44:	d04f      	beq.n	1abe6 <ble_evt_dispatch+0xf6>
   1ab46:	d80a      	bhi.n	1ab5e <ble_evt_dispatch+0x6e>
   1ab48:	2b1b      	cmp	r3, #27
   1ab4a:	d100      	bne.n	1ab4e <ble_evt_dispatch+0x5e>
   1ab4c:	e081      	b.n	1ac52 <ble_evt_dispatch+0x162>
   1ab4e:	2b50      	cmp	r3, #80	; 0x50
   1ab50:	d1da      	bne.n	1ab08 <ble_evt_dispatch+0x18>
   1ab52:	4b46      	ldr	r3, [pc, #280]	; (1ac6c <ble_evt_dispatch+0x17c>)
   1ab54:	2b00      	cmp	r3, #0
   1ab56:	d0d7      	beq.n	1ab08 <ble_evt_dispatch+0x18>
   1ab58:	e000      	b.n	1ab5c <ble_evt_dispatch+0x6c>
   1ab5a:	bf00      	nop
   1ab5c:	e7d4      	b.n	1ab08 <ble_evt_dispatch+0x18>
   1ab5e:	2b52      	cmp	r3, #82	; 0x52
   1ab60:	d058      	beq.n	1ac14 <ble_evt_dispatch+0x124>
   1ab62:	2b55      	cmp	r3, #85	; 0x55
   1ab64:	d1d0      	bne.n	1ab08 <ble_evt_dispatch+0x18>
   1ab66:	7983      	ldrb	r3, [r0, #6]
   1ab68:	2b00      	cmp	r3, #0
   1ab6a:	d1cd      	bne.n	1ab08 <ble_evt_dispatch+0x18>
   1ab6c:	4b3d      	ldr	r3, [pc, #244]	; (1ac64 <ble_evt_dispatch+0x174>)
   1ab6e:	2113      	movs	r1, #19
   1ab70:	8818      	ldrh	r0, [r3, #0]
   1ab72:	f7ff fe2b 	bl	1a7cc <sd_ble_gap_disconnect>
   1ab76:	2800      	cmp	r0, #0
   1ab78:	d0c6      	beq.n	1ab08 <ble_evt_dispatch+0x18>
   1ab7a:	4b3b      	ldr	r3, [pc, #236]	; (1ac68 <ble_evt_dispatch+0x178>)
   1ab7c:	2b00      	cmp	r3, #0
   1ab7e:	d001      	beq.n	1ab84 <ble_evt_dispatch+0x94>
   1ab80:	e000      	b.n	1ab84 <ble_evt_dispatch+0x94>
   1ab82:	bf00      	nop
   1ab84:	e7fe      	b.n	1ab84 <ble_evt_dispatch+0x94>
   1ab86:	2202      	movs	r2, #2
   1ab88:	8883      	ldrh	r3, [r0, #4]
   1ab8a:	4d36      	ldr	r5, [pc, #216]	; (1ac64 <ble_evt_dispatch+0x174>)
   1ab8c:	802b      	strh	r3, [r5, #0]
   1ab8e:	4b38      	ldr	r3, [pc, #224]	; (1ac70 <ble_evt_dispatch+0x180>)
   1ab90:	701a      	strb	r2, [r3, #0]
   1ab92:	f7ff ff89 	bl	1aaa8 <advertising_start>
   1ab96:	2300      	movs	r3, #0
   1ab98:	8828      	ldrh	r0, [r5, #0]
   1ab9a:	001a      	movs	r2, r3
   1ab9c:	0019      	movs	r1, r3
   1ab9e:	f7ff fe23 	bl	1a7e8 <sd_ble_gatts_sys_attr_set>
   1aba2:	2800      	cmp	r0, #0
   1aba4:	d005      	beq.n	1abb2 <ble_evt_dispatch+0xc2>
   1aba6:	4b30      	ldr	r3, [pc, #192]	; (1ac68 <ble_evt_dispatch+0x178>)
   1aba8:	2b00      	cmp	r3, #0
   1abaa:	d001      	beq.n	1abb0 <ble_evt_dispatch+0xc0>
   1abac:	e000      	b.n	1abb0 <ble_evt_dispatch+0xc0>
   1abae:	bf00      	nop
   1abb0:	e7fe      	b.n	1abb0 <ble_evt_dispatch+0xc0>
   1abb2:	4b30      	ldr	r3, [pc, #192]	; (1ac74 <ble_evt_dispatch+0x184>)
   1abb4:	2b00      	cmp	r3, #0
   1abb6:	d0a7      	beq.n	1ab08 <ble_evt_dispatch+0x18>
   1abb8:	0020      	movs	r0, r4
   1abba:	e000      	b.n	1abbe <ble_evt_dispatch+0xce>
   1abbc:	bf00      	nop
   1abbe:	e7a3      	b.n	1ab08 <ble_evt_dispatch+0x18>
   1abc0:	2201      	movs	r2, #1
   1abc2:	4b28      	ldr	r3, [pc, #160]	; (1ac64 <ble_evt_dispatch+0x174>)
   1abc4:	4252      	negs	r2, r2
   1abc6:	801a      	strh	r2, [r3, #0]
   1abc8:	f7ff ff82 	bl	1aad0 <advertising_stop>
   1abcc:	2200      	movs	r2, #0
   1abce:	4b28      	ldr	r3, [pc, #160]	; (1ac70 <ble_evt_dispatch+0x180>)
   1abd0:	701a      	strb	r2, [r3, #0]
   1abd2:	f7ff ff69 	bl	1aaa8 <advertising_start>
   1abd6:	4b28      	ldr	r3, [pc, #160]	; (1ac78 <ble_evt_dispatch+0x188>)
   1abd8:	2b00      	cmp	r3, #0
   1abda:	d100      	bne.n	1abde <ble_evt_dispatch+0xee>
   1abdc:	e794      	b.n	1ab08 <ble_evt_dispatch+0x18>
   1abde:	0020      	movs	r0, r4
   1abe0:	e000      	b.n	1abe4 <ble_evt_dispatch+0xf4>
   1abe2:	bf00      	nop
   1abe4:	e790      	b.n	1ab08 <ble_evt_dispatch+0x18>
   1abe6:	4b25      	ldr	r3, [pc, #148]	; (1ac7c <ble_evt_dispatch+0x18c>)
   1abe8:	2b00      	cmp	r3, #0
   1abea:	d100      	bne.n	1abee <ble_evt_dispatch+0xfe>
   1abec:	e78c      	b.n	1ab08 <ble_evt_dispatch+0x18>
   1abee:	e000      	b.n	1abf2 <ble_evt_dispatch+0x102>
   1abf0:	bf00      	nop
   1abf2:	e789      	b.n	1ab08 <ble_evt_dispatch+0x18>
   1abf4:	4b1b      	ldr	r3, [pc, #108]	; (1ac64 <ble_evt_dispatch+0x174>)
   1abf6:	4a22      	ldr	r2, [pc, #136]	; (1ac80 <ble_evt_dispatch+0x190>)
   1abf8:	8818      	ldrh	r0, [r3, #0]
   1abfa:	2300      	movs	r3, #0
   1abfc:	0019      	movs	r1, r3
   1abfe:	f7ff fdef 	bl	1a7e0 <sd_ble_gap_sec_params_reply>
   1ac02:	2800      	cmp	r0, #0
   1ac04:	d100      	bne.n	1ac08 <ble_evt_dispatch+0x118>
   1ac06:	e77f      	b.n	1ab08 <ble_evt_dispatch+0x18>
   1ac08:	4b17      	ldr	r3, [pc, #92]	; (1ac68 <ble_evt_dispatch+0x178>)
   1ac0a:	2b00      	cmp	r3, #0
   1ac0c:	d001      	beq.n	1ac12 <ble_evt_dispatch+0x122>
   1ac0e:	e000      	b.n	1ac12 <ble_evt_dispatch+0x122>
   1ac10:	bf00      	nop
   1ac12:	e7fe      	b.n	1ac12 <ble_evt_dispatch+0x122>
   1ac14:	4b13      	ldr	r3, [pc, #76]	; (1ac64 <ble_evt_dispatch+0x174>)
   1ac16:	8818      	ldrh	r0, [r3, #0]
   1ac18:	2300      	movs	r3, #0
   1ac1a:	001a      	movs	r2, r3
   1ac1c:	0019      	movs	r1, r3
   1ac1e:	f7ff fde3 	bl	1a7e8 <sd_ble_gatts_sys_attr_set>
   1ac22:	2800      	cmp	r0, #0
   1ac24:	d100      	bne.n	1ac28 <ble_evt_dispatch+0x138>
   1ac26:	e76f      	b.n	1ab08 <ble_evt_dispatch+0x18>
   1ac28:	4b0f      	ldr	r3, [pc, #60]	; (1ac68 <ble_evt_dispatch+0x178>)
   1ac2a:	2b00      	cmp	r3, #0
   1ac2c:	d001      	beq.n	1ac32 <ble_evt_dispatch+0x142>
   1ac2e:	e000      	b.n	1ac32 <ble_evt_dispatch+0x142>
   1ac30:	bf00      	nop
   1ac32:	e7fe      	b.n	1ac32 <ble_evt_dispatch+0x142>
   1ac34:	7983      	ldrb	r3, [r0, #6]
   1ac36:	2b00      	cmp	r3, #0
   1ac38:	d000      	beq.n	1ac3c <ble_evt_dispatch+0x14c>
   1ac3a:	e765      	b.n	1ab08 <ble_evt_dispatch+0x18>
   1ac3c:	f7ff fdd8 	bl	1a7f0 <sd_power_system_off>
   1ac40:	2800      	cmp	r0, #0
   1ac42:	d100      	bne.n	1ac46 <ble_evt_dispatch+0x156>
   1ac44:	e760      	b.n	1ab08 <ble_evt_dispatch+0x18>
   1ac46:	4b08      	ldr	r3, [pc, #32]	; (1ac68 <ble_evt_dispatch+0x178>)
   1ac48:	2b00      	cmp	r3, #0
   1ac4a:	d001      	beq.n	1ac50 <ble_evt_dispatch+0x160>
   1ac4c:	e000      	b.n	1ac50 <ble_evt_dispatch+0x160>
   1ac4e:	bf00      	nop
   1ac50:	e7fe      	b.n	1ac50 <ble_evt_dispatch+0x160>
   1ac52:	4b0c      	ldr	r3, [pc, #48]	; (1ac84 <ble_evt_dispatch+0x194>)
   1ac54:	2b00      	cmp	r3, #0
   1ac56:	d100      	bne.n	1ac5a <ble_evt_dispatch+0x16a>
   1ac58:	e756      	b.n	1ab08 <ble_evt_dispatch+0x18>
   1ac5a:	e000      	b.n	1ac5e <ble_evt_dispatch+0x16e>
   1ac5c:	bf00      	nop
   1ac5e:	e753      	b.n	1ab08 <ble_evt_dispatch+0x18>
   1ac60:	0000      	movs	r0, r0
   1ac62:	0000      	movs	r0, r0
   1ac64:	2994      	cmp	r1, #148	; 0x94
   1ac66:	2000      	movs	r0, #0
	...
   1ac70:	297c      	cmp	r1, #124	; 0x7c
   1ac72:	2000      	movs	r0, #0
	...
   1ac80:	2028      	movs	r0, #40	; 0x28
   1ac82:	2000      	movs	r0, #0
   1ac84:	0000      	movs	r0, r0
	...

0001ac88 <power_manage>:
   1ac88:	b510      	push	{r4, lr}
   1ac8a:	f7ff fdb3 	bl	1a7f4 <sd_app_evt_wait>
   1ac8e:	2800      	cmp	r0, #0
   1ac90:	d005      	beq.n	1ac9e <power_manage+0x16>
   1ac92:	4b03      	ldr	r3, [pc, #12]	; (1aca0 <power_manage+0x18>)
   1ac94:	2b00      	cmp	r3, #0
   1ac96:	d001      	beq.n	1ac9c <power_manage+0x14>
   1ac98:	e000      	b.n	1ac9c <power_manage+0x14>
   1ac9a:	bf00      	nop
   1ac9c:	e7fe      	b.n	1ac9c <power_manage+0x14>
   1ac9e:	bd10      	pop	{r4, pc}
   1aca0:	0000      	movs	r0, r0
	...

0001aca4 <simple_ble_init>:
   1aca4:	4b09      	ldr	r3, [pc, #36]	; (1accc <simple_ble_init+0x28>)
   1aca6:	b510      	push	{r4, lr}
   1aca8:	6018      	str	r0, [r3, #0]
   1acaa:	f7ff fe25 	bl	1a8f8 <ble_stack_init>
   1acae:	f7ff fe63 	bl	1a978 <gap_params_init>
   1acb2:	f7ff fe8b 	bl	1a9cc <advertising_init>
   1acb6:	f7ff fee1 	bl	1aa7c <services_init>
   1acba:	f7ff fee1 	bl	1aa80 <initialize_app_timer>
   1acbe:	f7ff fe95 	bl	1a9ec <conn_params_init>
   1acc2:	2301      	movs	r3, #1
   1acc4:	4802      	ldr	r0, [pc, #8]	; (1acd0 <simple_ble_init+0x2c>)
   1acc6:	425b      	negs	r3, r3
   1acc8:	8003      	strh	r3, [r0, #0]
   1acca:	bd10      	pop	{r4, pc}
   1accc:	2948      	cmp	r1, #72	; 0x48
   1acce:	2000      	movs	r0, #0
   1acd0:	2994      	cmp	r1, #148	; 0x94
   1acd2:	2000      	movs	r0, #0

0001acd4 <full_adv>:
   1acd4:	b5f0      	push	{r4, r5, r6, r7, lr}
   1acd6:	b09d      	sub	sp, #116	; 0x74
   1acd8:	0007      	movs	r7, r0
   1acda:	000e      	movs	r6, r1
   1acdc:	0015      	movs	r5, r2
   1acde:	2100      	movs	r1, #0
   1ace0:	2238      	movs	r2, #56	; 0x38
   1ace2:	4668      	mov	r0, sp
   1ace4:	ac0e      	add	r4, sp, #56	; 0x38
   1ace6:	f001 fcc9 	bl	1c67c <memset>
   1acea:	2238      	movs	r2, #56	; 0x38
   1acec:	2100      	movs	r1, #0
   1acee:	0020      	movs	r0, r4
   1acf0:	f001 fcc4 	bl	1c67c <memset>
   1acf4:	2306      	movs	r3, #6
   1acf6:	466a      	mov	r2, sp
   1acf8:	70d3      	strb	r3, [r2, #3]
   1acfa:	3b04      	subs	r3, #4
   1acfc:	2f00      	cmp	r7, #0
   1acfe:	d017      	beq.n	1ad30 <full_adv+0x5c>
   1ad00:	7013      	strb	r3, [r2, #0]
   1ad02:	2e00      	cmp	r6, #0
   1ad04:	d003      	beq.n	1ad0e <full_adv+0x3a>
   1ad06:	2301      	movs	r3, #1
   1ad08:	466a      	mov	r2, sp
   1ad0a:	9605      	str	r6, [sp, #20]
   1ad0c:	8213      	strh	r3, [r2, #16]
   1ad0e:	2d00      	cmp	r5, #0
   1ad10:	d000      	beq.n	1ad14 <full_adv+0x40>
   1ad12:	9509      	str	r5, [sp, #36]	; 0x24
   1ad14:	0021      	movs	r1, r4
   1ad16:	4668      	mov	r0, sp
   1ad18:	f7fe fe20 	bl	1995c <ble_advdata_set>
   1ad1c:	2800      	cmp	r0, #0
   1ad1e:	d003      	beq.n	1ad28 <full_adv+0x54>
   1ad20:	2200      	movs	r2, #0
   1ad22:	0011      	movs	r1, r2
   1ad24:	f7ff fd8a 	bl	1a83c <app_error_handler>
   1ad28:	f7ff febe 	bl	1aaa8 <advertising_start>
   1ad2c:	b01d      	add	sp, #116	; 0x74
   1ad2e:	bdf0      	pop	{r4, r5, r6, r7, pc}
   1ad30:	7023      	strb	r3, [r4, #0]
   1ad32:	e7e6      	b.n	1ad02 <full_adv+0x2e>

0001ad34 <simple_adv_manuf_data>:
   1ad34:	2100      	movs	r1, #0
   1ad36:	b510      	push	{r4, lr}
   1ad38:	0002      	movs	r2, r0
   1ad3a:	0008      	movs	r0, r1
   1ad3c:	f7ff ffca 	bl	1acd4 <full_adv>
   1ad40:	bd10      	pop	{r4, pc}
	...

0001ad44 <__gnu_thumb1_case_uqi>:
   1ad44:	b402      	push	{r1}
   1ad46:	4671      	mov	r1, lr
   1ad48:	0849      	lsrs	r1, r1, #1
   1ad4a:	0049      	lsls	r1, r1, #1
   1ad4c:	5c09      	ldrb	r1, [r1, r0]
   1ad4e:	0049      	lsls	r1, r1, #1
   1ad50:	448e      	add	lr, r1
   1ad52:	bc02      	pop	{r1}
   1ad54:	4770      	bx	lr
   1ad56:	46c0      	nop			; (mov r8, r8)

0001ad58 <__gnu_thumb1_case_uhi>:
   1ad58:	b403      	push	{r0, r1}
   1ad5a:	4671      	mov	r1, lr
   1ad5c:	0849      	lsrs	r1, r1, #1
   1ad5e:	0040      	lsls	r0, r0, #1
   1ad60:	0049      	lsls	r1, r1, #1
   1ad62:	5a09      	ldrh	r1, [r1, r0]
   1ad64:	0049      	lsls	r1, r1, #1
   1ad66:	448e      	add	lr, r1
   1ad68:	bc03      	pop	{r0, r1}
   1ad6a:	4770      	bx	lr

0001ad6c <__aeabi_cdrcmple>:
   1ad6c:	4684      	mov	ip, r0
   1ad6e:	1c10      	adds	r0, r2, #0
   1ad70:	4662      	mov	r2, ip
   1ad72:	468c      	mov	ip, r1
   1ad74:	1c19      	adds	r1, r3, #0
   1ad76:	4663      	mov	r3, ip
   1ad78:	e000      	b.n	1ad7c <__aeabi_cdcmpeq>
   1ad7a:	46c0      	nop			; (mov r8, r8)

0001ad7c <__aeabi_cdcmpeq>:
   1ad7c:	b51f      	push	{r0, r1, r2, r3, r4, lr}
   1ad7e:	f001 f837 	bl	1bdf0 <__ledf2>
   1ad82:	2800      	cmp	r0, #0
   1ad84:	d401      	bmi.n	1ad8a <__aeabi_cdcmpeq+0xe>
   1ad86:	2100      	movs	r1, #0
   1ad88:	42c8      	cmn	r0, r1
   1ad8a:	bd1f      	pop	{r0, r1, r2, r3, r4, pc}

0001ad8c <__aeabi_dcmpeq>:
   1ad8c:	b510      	push	{r4, lr}
   1ad8e:	f000 ff8f 	bl	1bcb0 <__eqdf2>
   1ad92:	4240      	negs	r0, r0
   1ad94:	3001      	adds	r0, #1
   1ad96:	bd10      	pop	{r4, pc}

0001ad98 <__aeabi_dcmplt>:
   1ad98:	b510      	push	{r4, lr}
   1ad9a:	f001 f829 	bl	1bdf0 <__ledf2>
   1ad9e:	2800      	cmp	r0, #0
   1ada0:	db01      	blt.n	1ada6 <__aeabi_dcmplt+0xe>
   1ada2:	2000      	movs	r0, #0
   1ada4:	bd10      	pop	{r4, pc}
   1ada6:	2001      	movs	r0, #1
   1ada8:	bd10      	pop	{r4, pc}
   1adaa:	46c0      	nop			; (mov r8, r8)

0001adac <__aeabi_dcmple>:
   1adac:	b510      	push	{r4, lr}
   1adae:	f001 f81f 	bl	1bdf0 <__ledf2>
   1adb2:	2800      	cmp	r0, #0
   1adb4:	dd01      	ble.n	1adba <__aeabi_dcmple+0xe>
   1adb6:	2000      	movs	r0, #0
   1adb8:	bd10      	pop	{r4, pc}
   1adba:	2001      	movs	r0, #1
   1adbc:	bd10      	pop	{r4, pc}
   1adbe:	46c0      	nop			; (mov r8, r8)

0001adc0 <__aeabi_dcmpgt>:
   1adc0:	b510      	push	{r4, lr}
   1adc2:	f000 ffb1 	bl	1bd28 <__gedf2>
   1adc6:	2800      	cmp	r0, #0
   1adc8:	dc01      	bgt.n	1adce <__aeabi_dcmpgt+0xe>
   1adca:	2000      	movs	r0, #0
   1adcc:	bd10      	pop	{r4, pc}
   1adce:	2001      	movs	r0, #1
   1add0:	bd10      	pop	{r4, pc}
   1add2:	46c0      	nop			; (mov r8, r8)

0001add4 <__aeabi_dcmpge>:
   1add4:	b510      	push	{r4, lr}
   1add6:	f000 ffa7 	bl	1bd28 <__gedf2>
   1adda:	2800      	cmp	r0, #0
   1addc:	da01      	bge.n	1ade2 <__aeabi_dcmpge+0xe>
   1adde:	2000      	movs	r0, #0
   1ade0:	bd10      	pop	{r4, pc}
   1ade2:	2001      	movs	r0, #1
   1ade4:	bd10      	pop	{r4, pc}
   1ade6:	46c0      	nop			; (mov r8, r8)

0001ade8 <__aeabi_cfrcmple>:
   1ade8:	4684      	mov	ip, r0
   1adea:	1c08      	adds	r0, r1, #0
   1adec:	4661      	mov	r1, ip
   1adee:	e7ff      	b.n	1adf0 <__aeabi_cfcmpeq>

0001adf0 <__aeabi_cfcmpeq>:
   1adf0:	b51f      	push	{r0, r1, r2, r3, r4, lr}
   1adf2:	f000 fb6d 	bl	1b4d0 <__lesf2>
   1adf6:	2800      	cmp	r0, #0
   1adf8:	d401      	bmi.n	1adfe <__aeabi_cfcmpeq+0xe>
   1adfa:	2100      	movs	r1, #0
   1adfc:	42c8      	cmn	r0, r1
   1adfe:	bd1f      	pop	{r0, r1, r2, r3, r4, pc}

0001ae00 <__aeabi_fcmpeq>:
   1ae00:	b510      	push	{r4, lr}
   1ae02:	f000 faef 	bl	1b3e4 <__eqsf2>
   1ae06:	4240      	negs	r0, r0
   1ae08:	3001      	adds	r0, #1
   1ae0a:	bd10      	pop	{r4, pc}

0001ae0c <__aeabi_fcmplt>:
   1ae0c:	b510      	push	{r4, lr}
   1ae0e:	f000 fb5f 	bl	1b4d0 <__lesf2>
   1ae12:	2800      	cmp	r0, #0
   1ae14:	db01      	blt.n	1ae1a <__aeabi_fcmplt+0xe>
   1ae16:	2000      	movs	r0, #0
   1ae18:	bd10      	pop	{r4, pc}
   1ae1a:	2001      	movs	r0, #1
   1ae1c:	bd10      	pop	{r4, pc}
   1ae1e:	46c0      	nop			; (mov r8, r8)

0001ae20 <__aeabi_fcmple>:
   1ae20:	b510      	push	{r4, lr}
   1ae22:	f000 fb55 	bl	1b4d0 <__lesf2>
   1ae26:	2800      	cmp	r0, #0
   1ae28:	dd01      	ble.n	1ae2e <__aeabi_fcmple+0xe>
   1ae2a:	2000      	movs	r0, #0
   1ae2c:	bd10      	pop	{r4, pc}
   1ae2e:	2001      	movs	r0, #1
   1ae30:	bd10      	pop	{r4, pc}
   1ae32:	46c0      	nop			; (mov r8, r8)

0001ae34 <__aeabi_fcmpgt>:
   1ae34:	b510      	push	{r4, lr}
   1ae36:	f000 fafd 	bl	1b434 <__gesf2>
   1ae3a:	2800      	cmp	r0, #0
   1ae3c:	dc01      	bgt.n	1ae42 <__aeabi_fcmpgt+0xe>
   1ae3e:	2000      	movs	r0, #0
   1ae40:	bd10      	pop	{r4, pc}
   1ae42:	2001      	movs	r0, #1
   1ae44:	bd10      	pop	{r4, pc}
   1ae46:	46c0      	nop			; (mov r8, r8)

0001ae48 <__aeabi_fcmpge>:
   1ae48:	b510      	push	{r4, lr}
   1ae4a:	f000 faf3 	bl	1b434 <__gesf2>
   1ae4e:	2800      	cmp	r0, #0
   1ae50:	da01      	bge.n	1ae56 <__aeabi_fcmpge+0xe>
   1ae52:	2000      	movs	r0, #0
   1ae54:	bd10      	pop	{r4, pc}
   1ae56:	2001      	movs	r0, #1
   1ae58:	bd10      	pop	{r4, pc}
   1ae5a:	46c0      	nop			; (mov r8, r8)

0001ae5c <__aeabi_f2uiz>:
   1ae5c:	219e      	movs	r1, #158	; 0x9e
   1ae5e:	b510      	push	{r4, lr}
   1ae60:	05c9      	lsls	r1, r1, #23
   1ae62:	1c04      	adds	r4, r0, #0
   1ae64:	f7ff fff0 	bl	1ae48 <__aeabi_fcmpge>
   1ae68:	2800      	cmp	r0, #0
   1ae6a:	d103      	bne.n	1ae74 <__aeabi_f2uiz+0x18>
   1ae6c:	1c20      	adds	r0, r4, #0
   1ae6e:	f000 fe75 	bl	1bb5c <__aeabi_f2iz>
   1ae72:	bd10      	pop	{r4, pc}
   1ae74:	219e      	movs	r1, #158	; 0x9e
   1ae76:	1c20      	adds	r0, r4, #0
   1ae78:	05c9      	lsls	r1, r1, #23
   1ae7a:	f000 fcab 	bl	1b7d4 <__aeabi_fsub>
   1ae7e:	f000 fe6d 	bl	1bb5c <__aeabi_f2iz>
   1ae82:	2380      	movs	r3, #128	; 0x80
   1ae84:	061b      	lsls	r3, r3, #24
   1ae86:	469c      	mov	ip, r3
   1ae88:	4460      	add	r0, ip
   1ae8a:	e7f2      	b.n	1ae72 <__aeabi_f2uiz+0x16>

0001ae8c <__aeabi_fadd>:
   1ae8c:	b5f8      	push	{r3, r4, r5, r6, r7, lr}
   1ae8e:	4647      	mov	r7, r8
   1ae90:	46ce      	mov	lr, r9
   1ae92:	0243      	lsls	r3, r0, #9
   1ae94:	0a5b      	lsrs	r3, r3, #9
   1ae96:	0044      	lsls	r4, r0, #1
   1ae98:	0fc2      	lsrs	r2, r0, #31
   1ae9a:	469c      	mov	ip, r3
   1ae9c:	0048      	lsls	r0, r1, #1
   1ae9e:	00dd      	lsls	r5, r3, #3
   1aea0:	024b      	lsls	r3, r1, #9
   1aea2:	0e24      	lsrs	r4, r4, #24
   1aea4:	0a5b      	lsrs	r3, r3, #9
   1aea6:	0e00      	lsrs	r0, r0, #24
   1aea8:	b580      	push	{r7, lr}
   1aeaa:	4698      	mov	r8, r3
   1aeac:	0026      	movs	r6, r4
   1aeae:	4691      	mov	r9, r2
   1aeb0:	0fc9      	lsrs	r1, r1, #31
   1aeb2:	00db      	lsls	r3, r3, #3
   1aeb4:	1a27      	subs	r7, r4, r0
   1aeb6:	428a      	cmp	r2, r1
   1aeb8:	d029      	beq.n	1af0e <__aeabi_fadd+0x82>
   1aeba:	2f00      	cmp	r7, #0
   1aebc:	dd15      	ble.n	1aeea <__aeabi_fadd+0x5e>
   1aebe:	2800      	cmp	r0, #0
   1aec0:	d14a      	bne.n	1af58 <__aeabi_fadd+0xcc>
   1aec2:	2b00      	cmp	r3, #0
   1aec4:	d000      	beq.n	1aec8 <__aeabi_fadd+0x3c>
   1aec6:	e095      	b.n	1aff4 <__aeabi_fadd+0x168>
   1aec8:	08ed      	lsrs	r5, r5, #3
   1aeca:	2cff      	cmp	r4, #255	; 0xff
   1aecc:	d100      	bne.n	1aed0 <__aeabi_fadd+0x44>
   1aece:	e088      	b.n	1afe2 <__aeabi_fadd+0x156>
   1aed0:	026b      	lsls	r3, r5, #9
   1aed2:	0a5b      	lsrs	r3, r3, #9
   1aed4:	b2e6      	uxtb	r6, r4
   1aed6:	025b      	lsls	r3, r3, #9
   1aed8:	05f6      	lsls	r6, r6, #23
   1aeda:	0a58      	lsrs	r0, r3, #9
   1aedc:	4330      	orrs	r0, r6
   1aede:	07d2      	lsls	r2, r2, #31
   1aee0:	4310      	orrs	r0, r2
   1aee2:	bc0c      	pop	{r2, r3}
   1aee4:	4690      	mov	r8, r2
   1aee6:	4699      	mov	r9, r3
   1aee8:	bdf8      	pop	{r3, r4, r5, r6, r7, pc}
   1aeea:	2f00      	cmp	r7, #0
   1aeec:	d000      	beq.n	1aef0 <__aeabi_fadd+0x64>
   1aeee:	e087      	b.n	1b000 <__aeabi_fadd+0x174>
   1aef0:	1c60      	adds	r0, r4, #1
   1aef2:	b2c0      	uxtb	r0, r0
   1aef4:	2801      	cmp	r0, #1
   1aef6:	dc00      	bgt.n	1aefa <__aeabi_fadd+0x6e>
   1aef8:	e0b6      	b.n	1b068 <__aeabi_fadd+0x1dc>
   1aefa:	1aee      	subs	r6, r5, r3
   1aefc:	0172      	lsls	r2, r6, #5
   1aefe:	d500      	bpl.n	1af02 <__aeabi_fadd+0x76>
   1af00:	e0c5      	b.n	1b08e <__aeabi_fadd+0x202>
   1af02:	2e00      	cmp	r6, #0
   1af04:	d13d      	bne.n	1af82 <__aeabi_fadd+0xf6>
   1af06:	2200      	movs	r2, #0
   1af08:	2600      	movs	r6, #0
   1af0a:	2300      	movs	r3, #0
   1af0c:	e7e3      	b.n	1aed6 <__aeabi_fadd+0x4a>
   1af0e:	2f00      	cmp	r7, #0
   1af10:	dc00      	bgt.n	1af14 <__aeabi_fadd+0x88>
   1af12:	e096      	b.n	1b042 <__aeabi_fadd+0x1b6>
   1af14:	2800      	cmp	r0, #0
   1af16:	d05d      	beq.n	1afd4 <__aeabi_fadd+0x148>
   1af18:	2cff      	cmp	r4, #255	; 0xff
   1af1a:	d060      	beq.n	1afde <__aeabi_fadd+0x152>
   1af1c:	2280      	movs	r2, #128	; 0x80
   1af1e:	04d2      	lsls	r2, r2, #19
   1af20:	4313      	orrs	r3, r2
   1af22:	2f1b      	cmp	r7, #27
   1af24:	dd00      	ble.n	1af28 <__aeabi_fadd+0x9c>
   1af26:	e0ec      	b.n	1b102 <__aeabi_fadd+0x276>
   1af28:	2220      	movs	r2, #32
   1af2a:	1bd2      	subs	r2, r2, r7
   1af2c:	0018      	movs	r0, r3
   1af2e:	4093      	lsls	r3, r2
   1af30:	40f8      	lsrs	r0, r7
   1af32:	1e5a      	subs	r2, r3, #1
   1af34:	4193      	sbcs	r3, r2
   1af36:	4303      	orrs	r3, r0
   1af38:	18ed      	adds	r5, r5, r3
   1af3a:	016b      	lsls	r3, r5, #5
   1af3c:	d57b      	bpl.n	1b036 <__aeabi_fadd+0x1aa>
   1af3e:	3401      	adds	r4, #1
   1af40:	2cff      	cmp	r4, #255	; 0xff
   1af42:	d100      	bne.n	1af46 <__aeabi_fadd+0xba>
   1af44:	e0b7      	b.n	1b0b6 <__aeabi_fadd+0x22a>
   1af46:	2201      	movs	r2, #1
   1af48:	2607      	movs	r6, #7
   1af4a:	402a      	ands	r2, r5
   1af4c:	086b      	lsrs	r3, r5, #1
   1af4e:	4d9a      	ldr	r5, [pc, #616]	; (1b1b8 <__aeabi_fadd+0x32c>)
   1af50:	401d      	ands	r5, r3
   1af52:	4315      	orrs	r5, r2
   1af54:	402e      	ands	r6, r5
   1af56:	e029      	b.n	1afac <__aeabi_fadd+0x120>
   1af58:	2cff      	cmp	r4, #255	; 0xff
   1af5a:	d0b5      	beq.n	1aec8 <__aeabi_fadd+0x3c>
   1af5c:	2280      	movs	r2, #128	; 0x80
   1af5e:	04d2      	lsls	r2, r2, #19
   1af60:	4313      	orrs	r3, r2
   1af62:	2f1b      	cmp	r7, #27
   1af64:	dd00      	ble.n	1af68 <__aeabi_fadd+0xdc>
   1af66:	e0b2      	b.n	1b0ce <__aeabi_fadd+0x242>
   1af68:	2220      	movs	r2, #32
   1af6a:	1bd2      	subs	r2, r2, r7
   1af6c:	0019      	movs	r1, r3
   1af6e:	4093      	lsls	r3, r2
   1af70:	40f9      	lsrs	r1, r7
   1af72:	1e5a      	subs	r2, r3, #1
   1af74:	4193      	sbcs	r3, r2
   1af76:	430b      	orrs	r3, r1
   1af78:	1aed      	subs	r5, r5, r3
   1af7a:	016b      	lsls	r3, r5, #5
   1af7c:	d55b      	bpl.n	1b036 <__aeabi_fadd+0x1aa>
   1af7e:	01ad      	lsls	r5, r5, #6
   1af80:	09ae      	lsrs	r6, r5, #6
   1af82:	0030      	movs	r0, r6
   1af84:	f001 fae4 	bl	1c550 <__clzsi2>
   1af88:	3805      	subs	r0, #5
   1af8a:	4086      	lsls	r6, r0
   1af8c:	4284      	cmp	r4, r0
   1af8e:	dc65      	bgt.n	1b05c <__aeabi_fadd+0x1d0>
   1af90:	1b04      	subs	r4, r0, r4
   1af92:	0033      	movs	r3, r6
   1af94:	2020      	movs	r0, #32
   1af96:	3401      	adds	r4, #1
   1af98:	40e3      	lsrs	r3, r4
   1af9a:	1b04      	subs	r4, r0, r4
   1af9c:	40a6      	lsls	r6, r4
   1af9e:	1e75      	subs	r5, r6, #1
   1afa0:	41ae      	sbcs	r6, r5
   1afa2:	4333      	orrs	r3, r6
   1afa4:	2607      	movs	r6, #7
   1afa6:	001d      	movs	r5, r3
   1afa8:	2400      	movs	r4, #0
   1afaa:	401e      	ands	r6, r3
   1afac:	2201      	movs	r2, #1
   1afae:	464b      	mov	r3, r9
   1afb0:	401a      	ands	r2, r3
   1afb2:	2e00      	cmp	r6, #0
   1afb4:	d004      	beq.n	1afc0 <__aeabi_fadd+0x134>
   1afb6:	230f      	movs	r3, #15
   1afb8:	402b      	ands	r3, r5
   1afba:	2b04      	cmp	r3, #4
   1afbc:	d000      	beq.n	1afc0 <__aeabi_fadd+0x134>
   1afbe:	3504      	adds	r5, #4
   1afc0:	016b      	lsls	r3, r5, #5
   1afc2:	d400      	bmi.n	1afc6 <__aeabi_fadd+0x13a>
   1afc4:	e780      	b.n	1aec8 <__aeabi_fadd+0x3c>
   1afc6:	3401      	adds	r4, #1
   1afc8:	b2e6      	uxtb	r6, r4
   1afca:	2cff      	cmp	r4, #255	; 0xff
   1afcc:	d12f      	bne.n	1b02e <__aeabi_fadd+0x1a2>
   1afce:	26ff      	movs	r6, #255	; 0xff
   1afd0:	2300      	movs	r3, #0
   1afd2:	e780      	b.n	1aed6 <__aeabi_fadd+0x4a>
   1afd4:	2b00      	cmp	r3, #0
   1afd6:	d152      	bne.n	1b07e <__aeabi_fadd+0x1f2>
   1afd8:	2cff      	cmp	r4, #255	; 0xff
   1afda:	d000      	beq.n	1afde <__aeabi_fadd+0x152>
   1afdc:	e774      	b.n	1aec8 <__aeabi_fadd+0x3c>
   1afde:	000a      	movs	r2, r1
   1afe0:	08ed      	lsrs	r5, r5, #3
   1afe2:	2d00      	cmp	r5, #0
   1afe4:	d0f3      	beq.n	1afce <__aeabi_fadd+0x142>
   1afe6:	2380      	movs	r3, #128	; 0x80
   1afe8:	03db      	lsls	r3, r3, #15
   1afea:	432b      	orrs	r3, r5
   1afec:	025b      	lsls	r3, r3, #9
   1afee:	0a5b      	lsrs	r3, r3, #9
   1aff0:	26ff      	movs	r6, #255	; 0xff
   1aff2:	e770      	b.n	1aed6 <__aeabi_fadd+0x4a>
   1aff4:	3f01      	subs	r7, #1
   1aff6:	2f00      	cmp	r7, #0
   1aff8:	d0be      	beq.n	1af78 <__aeabi_fadd+0xec>
   1affa:	2cff      	cmp	r4, #255	; 0xff
   1affc:	d1b1      	bne.n	1af62 <__aeabi_fadd+0xd6>
   1affe:	e763      	b.n	1aec8 <__aeabi_fadd+0x3c>
   1b000:	2c00      	cmp	r4, #0
   1b002:	d047      	beq.n	1b094 <__aeabi_fadd+0x208>
   1b004:	28ff      	cmp	r0, #255	; 0xff
   1b006:	d069      	beq.n	1b0dc <__aeabi_fadd+0x250>
   1b008:	2480      	movs	r4, #128	; 0x80
   1b00a:	04e4      	lsls	r4, r4, #19
   1b00c:	427a      	negs	r2, r7
   1b00e:	4325      	orrs	r5, r4
   1b010:	2a1b      	cmp	r2, #27
   1b012:	dd00      	ble.n	1b016 <__aeabi_fadd+0x18a>
   1b014:	e0c5      	b.n	1b1a2 <__aeabi_fadd+0x316>
   1b016:	002c      	movs	r4, r5
   1b018:	2620      	movs	r6, #32
   1b01a:	40d4      	lsrs	r4, r2
   1b01c:	1ab2      	subs	r2, r6, r2
   1b01e:	4095      	lsls	r5, r2
   1b020:	1e6a      	subs	r2, r5, #1
   1b022:	4195      	sbcs	r5, r2
   1b024:	4325      	orrs	r5, r4
   1b026:	1b5d      	subs	r5, r3, r5
   1b028:	0004      	movs	r4, r0
   1b02a:	4689      	mov	r9, r1
   1b02c:	e7a5      	b.n	1af7a <__aeabi_fadd+0xee>
   1b02e:	01ab      	lsls	r3, r5, #6
   1b030:	0a5b      	lsrs	r3, r3, #9
   1b032:	e750      	b.n	1aed6 <__aeabi_fadd+0x4a>
   1b034:	2400      	movs	r4, #0
   1b036:	2201      	movs	r2, #1
   1b038:	464b      	mov	r3, r9
   1b03a:	401a      	ands	r2, r3
   1b03c:	076b      	lsls	r3, r5, #29
   1b03e:	d1ba      	bne.n	1afb6 <__aeabi_fadd+0x12a>
   1b040:	e742      	b.n	1aec8 <__aeabi_fadd+0x3c>
   1b042:	2f00      	cmp	r7, #0
   1b044:	d13b      	bne.n	1b0be <__aeabi_fadd+0x232>
   1b046:	3401      	adds	r4, #1
   1b048:	b2e0      	uxtb	r0, r4
   1b04a:	2801      	cmp	r0, #1
   1b04c:	dd4a      	ble.n	1b0e4 <__aeabi_fadd+0x258>
   1b04e:	2cff      	cmp	r4, #255	; 0xff
   1b050:	d0bd      	beq.n	1afce <__aeabi_fadd+0x142>
   1b052:	2607      	movs	r6, #7
   1b054:	18ed      	adds	r5, r5, r3
   1b056:	086d      	lsrs	r5, r5, #1
   1b058:	402e      	ands	r6, r5
   1b05a:	e7a7      	b.n	1afac <__aeabi_fadd+0x120>
   1b05c:	2307      	movs	r3, #7
   1b05e:	4d57      	ldr	r5, [pc, #348]	; (1b1bc <__aeabi_fadd+0x330>)
   1b060:	1a24      	subs	r4, r4, r0
   1b062:	4035      	ands	r5, r6
   1b064:	401e      	ands	r6, r3
   1b066:	e7a1      	b.n	1afac <__aeabi_fadd+0x120>
   1b068:	2c00      	cmp	r4, #0
   1b06a:	d11b      	bne.n	1b0a4 <__aeabi_fadd+0x218>
   1b06c:	2d00      	cmp	r5, #0
   1b06e:	d16e      	bne.n	1b14e <__aeabi_fadd+0x2c2>
   1b070:	2b00      	cmp	r3, #0
   1b072:	d100      	bne.n	1b076 <__aeabi_fadd+0x1ea>
   1b074:	e09a      	b.n	1b1ac <__aeabi_fadd+0x320>
   1b076:	000a      	movs	r2, r1
   1b078:	001d      	movs	r5, r3
   1b07a:	003c      	movs	r4, r7
   1b07c:	e724      	b.n	1aec8 <__aeabi_fadd+0x3c>
   1b07e:	3f01      	subs	r7, #1
   1b080:	2f00      	cmp	r7, #0
   1b082:	d100      	bne.n	1b086 <__aeabi_fadd+0x1fa>
   1b084:	e758      	b.n	1af38 <__aeabi_fadd+0xac>
   1b086:	2cff      	cmp	r4, #255	; 0xff
   1b088:	d000      	beq.n	1b08c <__aeabi_fadd+0x200>
   1b08a:	e74a      	b.n	1af22 <__aeabi_fadd+0x96>
   1b08c:	e7a7      	b.n	1afde <__aeabi_fadd+0x152>
   1b08e:	1b5e      	subs	r6, r3, r5
   1b090:	4689      	mov	r9, r1
   1b092:	e776      	b.n	1af82 <__aeabi_fadd+0xf6>
   1b094:	2d00      	cmp	r5, #0
   1b096:	d11c      	bne.n	1b0d2 <__aeabi_fadd+0x246>
   1b098:	000a      	movs	r2, r1
   1b09a:	28ff      	cmp	r0, #255	; 0xff
   1b09c:	d01f      	beq.n	1b0de <__aeabi_fadd+0x252>
   1b09e:	0004      	movs	r4, r0
   1b0a0:	001d      	movs	r5, r3
   1b0a2:	e711      	b.n	1aec8 <__aeabi_fadd+0x3c>
   1b0a4:	2d00      	cmp	r5, #0
   1b0a6:	d15d      	bne.n	1b164 <__aeabi_fadd+0x2d8>
   1b0a8:	2b00      	cmp	r3, #0
   1b0aa:	d117      	bne.n	1b0dc <__aeabi_fadd+0x250>
   1b0ac:	2380      	movs	r3, #128	; 0x80
   1b0ae:	2200      	movs	r2, #0
   1b0b0:	03db      	lsls	r3, r3, #15
   1b0b2:	26ff      	movs	r6, #255	; 0xff
   1b0b4:	e70f      	b.n	1aed6 <__aeabi_fadd+0x4a>
   1b0b6:	000a      	movs	r2, r1
   1b0b8:	26ff      	movs	r6, #255	; 0xff
   1b0ba:	2300      	movs	r3, #0
   1b0bc:	e70b      	b.n	1aed6 <__aeabi_fadd+0x4a>
   1b0be:	2c00      	cmp	r4, #0
   1b0c0:	d121      	bne.n	1b106 <__aeabi_fadd+0x27a>
   1b0c2:	2d00      	cmp	r5, #0
   1b0c4:	d166      	bne.n	1b194 <__aeabi_fadd+0x308>
   1b0c6:	28ff      	cmp	r0, #255	; 0xff
   1b0c8:	d1e9      	bne.n	1b09e <__aeabi_fadd+0x212>
   1b0ca:	001d      	movs	r5, r3
   1b0cc:	e787      	b.n	1afde <__aeabi_fadd+0x152>
   1b0ce:	2301      	movs	r3, #1
   1b0d0:	e752      	b.n	1af78 <__aeabi_fadd+0xec>
   1b0d2:	1c7a      	adds	r2, r7, #1
   1b0d4:	d0a7      	beq.n	1b026 <__aeabi_fadd+0x19a>
   1b0d6:	43fa      	mvns	r2, r7
   1b0d8:	28ff      	cmp	r0, #255	; 0xff
   1b0da:	d199      	bne.n	1b010 <__aeabi_fadd+0x184>
   1b0dc:	000a      	movs	r2, r1
   1b0de:	001d      	movs	r5, r3
   1b0e0:	24ff      	movs	r4, #255	; 0xff
   1b0e2:	e6f1      	b.n	1aec8 <__aeabi_fadd+0x3c>
   1b0e4:	2e00      	cmp	r6, #0
   1b0e6:	d121      	bne.n	1b12c <__aeabi_fadd+0x2a0>
   1b0e8:	2d00      	cmp	r5, #0
   1b0ea:	d04f      	beq.n	1b18c <__aeabi_fadd+0x300>
   1b0ec:	2b00      	cmp	r3, #0
   1b0ee:	d04c      	beq.n	1b18a <__aeabi_fadd+0x2fe>
   1b0f0:	18ed      	adds	r5, r5, r3
   1b0f2:	016b      	lsls	r3, r5, #5
   1b0f4:	d59e      	bpl.n	1b034 <__aeabi_fadd+0x1a8>
   1b0f6:	4b31      	ldr	r3, [pc, #196]	; (1b1bc <__aeabi_fadd+0x330>)
   1b0f8:	3607      	adds	r6, #7
   1b0fa:	402e      	ands	r6, r5
   1b0fc:	2401      	movs	r4, #1
   1b0fe:	401d      	ands	r5, r3
   1b100:	e754      	b.n	1afac <__aeabi_fadd+0x120>
   1b102:	2301      	movs	r3, #1
   1b104:	e718      	b.n	1af38 <__aeabi_fadd+0xac>
   1b106:	28ff      	cmp	r0, #255	; 0xff
   1b108:	d0df      	beq.n	1b0ca <__aeabi_fadd+0x23e>
   1b10a:	2480      	movs	r4, #128	; 0x80
   1b10c:	04e4      	lsls	r4, r4, #19
   1b10e:	427f      	negs	r7, r7
   1b110:	4325      	orrs	r5, r4
   1b112:	2f1b      	cmp	r7, #27
   1b114:	dc4d      	bgt.n	1b1b2 <__aeabi_fadd+0x326>
   1b116:	2620      	movs	r6, #32
   1b118:	1bf6      	subs	r6, r6, r7
   1b11a:	002c      	movs	r4, r5
   1b11c:	40b5      	lsls	r5, r6
   1b11e:	40fc      	lsrs	r4, r7
   1b120:	1e6a      	subs	r2, r5, #1
   1b122:	4195      	sbcs	r5, r2
   1b124:	4325      	orrs	r5, r4
   1b126:	18ed      	adds	r5, r5, r3
   1b128:	0004      	movs	r4, r0
   1b12a:	e706      	b.n	1af3a <__aeabi_fadd+0xae>
   1b12c:	2d00      	cmp	r5, #0
   1b12e:	d0cc      	beq.n	1b0ca <__aeabi_fadd+0x23e>
   1b130:	2b00      	cmp	r3, #0
   1b132:	d100      	bne.n	1b136 <__aeabi_fadd+0x2aa>
   1b134:	e753      	b.n	1afde <__aeabi_fadd+0x152>
   1b136:	2180      	movs	r1, #128	; 0x80
   1b138:	4660      	mov	r0, ip
   1b13a:	03c9      	lsls	r1, r1, #15
   1b13c:	4208      	tst	r0, r1
   1b13e:	d003      	beq.n	1b148 <__aeabi_fadd+0x2bc>
   1b140:	4640      	mov	r0, r8
   1b142:	4208      	tst	r0, r1
   1b144:	d100      	bne.n	1b148 <__aeabi_fadd+0x2bc>
   1b146:	001d      	movs	r5, r3
   1b148:	2101      	movs	r1, #1
   1b14a:	4011      	ands	r1, r2
   1b14c:	e747      	b.n	1afde <__aeabi_fadd+0x152>
   1b14e:	2b00      	cmp	r3, #0
   1b150:	d100      	bne.n	1b154 <__aeabi_fadd+0x2c8>
   1b152:	e6b9      	b.n	1aec8 <__aeabi_fadd+0x3c>
   1b154:	1aea      	subs	r2, r5, r3
   1b156:	0150      	lsls	r0, r2, #5
   1b158:	d525      	bpl.n	1b1a6 <__aeabi_fadd+0x31a>
   1b15a:	2607      	movs	r6, #7
   1b15c:	1b5d      	subs	r5, r3, r5
   1b15e:	402e      	ands	r6, r5
   1b160:	4689      	mov	r9, r1
   1b162:	e723      	b.n	1afac <__aeabi_fadd+0x120>
   1b164:	24ff      	movs	r4, #255	; 0xff
   1b166:	2b00      	cmp	r3, #0
   1b168:	d100      	bne.n	1b16c <__aeabi_fadd+0x2e0>
   1b16a:	e6ad      	b.n	1aec8 <__aeabi_fadd+0x3c>
   1b16c:	2280      	movs	r2, #128	; 0x80
   1b16e:	4660      	mov	r0, ip
   1b170:	03d2      	lsls	r2, r2, #15
   1b172:	4210      	tst	r0, r2
   1b174:	d004      	beq.n	1b180 <__aeabi_fadd+0x2f4>
   1b176:	4640      	mov	r0, r8
   1b178:	4210      	tst	r0, r2
   1b17a:	d101      	bne.n	1b180 <__aeabi_fadd+0x2f4>
   1b17c:	001d      	movs	r5, r3
   1b17e:	4689      	mov	r9, r1
   1b180:	2201      	movs	r2, #1
   1b182:	464b      	mov	r3, r9
   1b184:	24ff      	movs	r4, #255	; 0xff
   1b186:	401a      	ands	r2, r3
   1b188:	e69e      	b.n	1aec8 <__aeabi_fadd+0x3c>
   1b18a:	002b      	movs	r3, r5
   1b18c:	08dd      	lsrs	r5, r3, #3
   1b18e:	000a      	movs	r2, r1
   1b190:	2400      	movs	r4, #0
   1b192:	e69d      	b.n	1aed0 <__aeabi_fadd+0x44>
   1b194:	1c7a      	adds	r2, r7, #1
   1b196:	d0c6      	beq.n	1b126 <__aeabi_fadd+0x29a>
   1b198:	43ff      	mvns	r7, r7
   1b19a:	28ff      	cmp	r0, #255	; 0xff
   1b19c:	d1b9      	bne.n	1b112 <__aeabi_fadd+0x286>
   1b19e:	001d      	movs	r5, r3
   1b1a0:	e71d      	b.n	1afde <__aeabi_fadd+0x152>
   1b1a2:	2501      	movs	r5, #1
   1b1a4:	e73f      	b.n	1b026 <__aeabi_fadd+0x19a>
   1b1a6:	1e15      	subs	r5, r2, #0
   1b1a8:	d000      	beq.n	1b1ac <__aeabi_fadd+0x320>
   1b1aa:	e744      	b.n	1b036 <__aeabi_fadd+0x1aa>
   1b1ac:	2200      	movs	r2, #0
   1b1ae:	2300      	movs	r3, #0
   1b1b0:	e691      	b.n	1aed6 <__aeabi_fadd+0x4a>
   1b1b2:	2501      	movs	r5, #1
   1b1b4:	e7b7      	b.n	1b126 <__aeabi_fadd+0x29a>
   1b1b6:	46c0      	nop			; (mov r8, r8)
   1b1b8:	ffff 7dff 			; <UNDEFINED> instruction: 0xffff7dff
   1b1bc:	ffff fbff 			; <UNDEFINED> instruction: 0xfffffbff

0001b1c0 <__aeabi_fdiv>:
   1b1c0:	b5f8      	push	{r3, r4, r5, r6, r7, lr}
   1b1c2:	4657      	mov	r7, sl
   1b1c4:	464e      	mov	r6, r9
   1b1c6:	4645      	mov	r5, r8
   1b1c8:	46de      	mov	lr, fp
   1b1ca:	0244      	lsls	r4, r0, #9
   1b1cc:	b5e0      	push	{r5, r6, r7, lr}
   1b1ce:	0046      	lsls	r6, r0, #1
   1b1d0:	4688      	mov	r8, r1
   1b1d2:	0a64      	lsrs	r4, r4, #9
   1b1d4:	0e36      	lsrs	r6, r6, #24
   1b1d6:	0fc7      	lsrs	r7, r0, #31
   1b1d8:	2e00      	cmp	r6, #0
   1b1da:	d063      	beq.n	1b2a4 <__aeabi_fdiv+0xe4>
   1b1dc:	2eff      	cmp	r6, #255	; 0xff
   1b1de:	d024      	beq.n	1b22a <__aeabi_fdiv+0x6a>
   1b1e0:	2380      	movs	r3, #128	; 0x80
   1b1e2:	00e4      	lsls	r4, r4, #3
   1b1e4:	04db      	lsls	r3, r3, #19
   1b1e6:	431c      	orrs	r4, r3
   1b1e8:	2300      	movs	r3, #0
   1b1ea:	4699      	mov	r9, r3
   1b1ec:	469b      	mov	fp, r3
   1b1ee:	3e7f      	subs	r6, #127	; 0x7f
   1b1f0:	4643      	mov	r3, r8
   1b1f2:	4642      	mov	r2, r8
   1b1f4:	025d      	lsls	r5, r3, #9
   1b1f6:	0fd2      	lsrs	r2, r2, #31
   1b1f8:	005b      	lsls	r3, r3, #1
   1b1fa:	0a6d      	lsrs	r5, r5, #9
   1b1fc:	0e1b      	lsrs	r3, r3, #24
   1b1fe:	4690      	mov	r8, r2
   1b200:	4692      	mov	sl, r2
   1b202:	d065      	beq.n	1b2d0 <__aeabi_fdiv+0x110>
   1b204:	2bff      	cmp	r3, #255	; 0xff
   1b206:	d055      	beq.n	1b2b4 <__aeabi_fdiv+0xf4>
   1b208:	2280      	movs	r2, #128	; 0x80
   1b20a:	2100      	movs	r1, #0
   1b20c:	00ed      	lsls	r5, r5, #3
   1b20e:	04d2      	lsls	r2, r2, #19
   1b210:	3b7f      	subs	r3, #127	; 0x7f
   1b212:	4315      	orrs	r5, r2
   1b214:	1af6      	subs	r6, r6, r3
   1b216:	4643      	mov	r3, r8
   1b218:	464a      	mov	r2, r9
   1b21a:	407b      	eors	r3, r7
   1b21c:	2a0f      	cmp	r2, #15
   1b21e:	d900      	bls.n	1b222 <__aeabi_fdiv+0x62>
   1b220:	e08d      	b.n	1b33e <__aeabi_fdiv+0x17e>
   1b222:	486d      	ldr	r0, [pc, #436]	; (1b3d8 <__aeabi_fdiv+0x218>)
   1b224:	0092      	lsls	r2, r2, #2
   1b226:	5882      	ldr	r2, [r0, r2]
   1b228:	4697      	mov	pc, r2
   1b22a:	2c00      	cmp	r4, #0
   1b22c:	d154      	bne.n	1b2d8 <__aeabi_fdiv+0x118>
   1b22e:	2308      	movs	r3, #8
   1b230:	4699      	mov	r9, r3
   1b232:	3b06      	subs	r3, #6
   1b234:	26ff      	movs	r6, #255	; 0xff
   1b236:	469b      	mov	fp, r3
   1b238:	e7da      	b.n	1b1f0 <__aeabi_fdiv+0x30>
   1b23a:	2500      	movs	r5, #0
   1b23c:	4653      	mov	r3, sl
   1b23e:	2902      	cmp	r1, #2
   1b240:	d01b      	beq.n	1b27a <__aeabi_fdiv+0xba>
   1b242:	2903      	cmp	r1, #3
   1b244:	d100      	bne.n	1b248 <__aeabi_fdiv+0x88>
   1b246:	e0bf      	b.n	1b3c8 <__aeabi_fdiv+0x208>
   1b248:	2901      	cmp	r1, #1
   1b24a:	d028      	beq.n	1b29e <__aeabi_fdiv+0xde>
   1b24c:	0030      	movs	r0, r6
   1b24e:	307f      	adds	r0, #127	; 0x7f
   1b250:	2800      	cmp	r0, #0
   1b252:	dd20      	ble.n	1b296 <__aeabi_fdiv+0xd6>
   1b254:	076a      	lsls	r2, r5, #29
   1b256:	d004      	beq.n	1b262 <__aeabi_fdiv+0xa2>
   1b258:	220f      	movs	r2, #15
   1b25a:	402a      	ands	r2, r5
   1b25c:	2a04      	cmp	r2, #4
   1b25e:	d000      	beq.n	1b262 <__aeabi_fdiv+0xa2>
   1b260:	3504      	adds	r5, #4
   1b262:	012a      	lsls	r2, r5, #4
   1b264:	d503      	bpl.n	1b26e <__aeabi_fdiv+0xae>
   1b266:	0030      	movs	r0, r6
   1b268:	4a5c      	ldr	r2, [pc, #368]	; (1b3dc <__aeabi_fdiv+0x21c>)
   1b26a:	3080      	adds	r0, #128	; 0x80
   1b26c:	4015      	ands	r5, r2
   1b26e:	28fe      	cmp	r0, #254	; 0xfe
   1b270:	dc03      	bgt.n	1b27a <__aeabi_fdiv+0xba>
   1b272:	01ac      	lsls	r4, r5, #6
   1b274:	0a64      	lsrs	r4, r4, #9
   1b276:	b2c2      	uxtb	r2, r0
   1b278:	e001      	b.n	1b27e <__aeabi_fdiv+0xbe>
   1b27a:	22ff      	movs	r2, #255	; 0xff
   1b27c:	2400      	movs	r4, #0
   1b27e:	0264      	lsls	r4, r4, #9
   1b280:	05d2      	lsls	r2, r2, #23
   1b282:	0a60      	lsrs	r0, r4, #9
   1b284:	07db      	lsls	r3, r3, #31
   1b286:	4310      	orrs	r0, r2
   1b288:	4318      	orrs	r0, r3
   1b28a:	bc3c      	pop	{r2, r3, r4, r5}
   1b28c:	4690      	mov	r8, r2
   1b28e:	4699      	mov	r9, r3
   1b290:	46a2      	mov	sl, r4
   1b292:	46ab      	mov	fp, r5
   1b294:	bdf8      	pop	{r3, r4, r5, r6, r7, pc}
   1b296:	2201      	movs	r2, #1
   1b298:	1a10      	subs	r0, r2, r0
   1b29a:	281b      	cmp	r0, #27
   1b29c:	dd7c      	ble.n	1b398 <__aeabi_fdiv+0x1d8>
   1b29e:	2200      	movs	r2, #0
   1b2a0:	2400      	movs	r4, #0
   1b2a2:	e7ec      	b.n	1b27e <__aeabi_fdiv+0xbe>
   1b2a4:	2c00      	cmp	r4, #0
   1b2a6:	d11d      	bne.n	1b2e4 <__aeabi_fdiv+0x124>
   1b2a8:	2304      	movs	r3, #4
   1b2aa:	4699      	mov	r9, r3
   1b2ac:	3b03      	subs	r3, #3
   1b2ae:	2600      	movs	r6, #0
   1b2b0:	469b      	mov	fp, r3
   1b2b2:	e79d      	b.n	1b1f0 <__aeabi_fdiv+0x30>
   1b2b4:	3eff      	subs	r6, #255	; 0xff
   1b2b6:	2d00      	cmp	r5, #0
   1b2b8:	d120      	bne.n	1b2fc <__aeabi_fdiv+0x13c>
   1b2ba:	2102      	movs	r1, #2
   1b2bc:	4643      	mov	r3, r8
   1b2be:	464a      	mov	r2, r9
   1b2c0:	407b      	eors	r3, r7
   1b2c2:	430a      	orrs	r2, r1
   1b2c4:	2a0f      	cmp	r2, #15
   1b2c6:	d8d8      	bhi.n	1b27a <__aeabi_fdiv+0xba>
   1b2c8:	4845      	ldr	r0, [pc, #276]	; (1b3e0 <__aeabi_fdiv+0x220>)
   1b2ca:	0092      	lsls	r2, r2, #2
   1b2cc:	5882      	ldr	r2, [r0, r2]
   1b2ce:	4697      	mov	pc, r2
   1b2d0:	2d00      	cmp	r5, #0
   1b2d2:	d119      	bne.n	1b308 <__aeabi_fdiv+0x148>
   1b2d4:	2101      	movs	r1, #1
   1b2d6:	e7f1      	b.n	1b2bc <__aeabi_fdiv+0xfc>
   1b2d8:	230c      	movs	r3, #12
   1b2da:	4699      	mov	r9, r3
   1b2dc:	3b09      	subs	r3, #9
   1b2de:	26ff      	movs	r6, #255	; 0xff
   1b2e0:	469b      	mov	fp, r3
   1b2e2:	e785      	b.n	1b1f0 <__aeabi_fdiv+0x30>
   1b2e4:	0020      	movs	r0, r4
   1b2e6:	f001 f933 	bl	1c550 <__clzsi2>
   1b2ea:	2676      	movs	r6, #118	; 0x76
   1b2ec:	1f43      	subs	r3, r0, #5
   1b2ee:	409c      	lsls	r4, r3
   1b2f0:	2300      	movs	r3, #0
   1b2f2:	4276      	negs	r6, r6
   1b2f4:	1a36      	subs	r6, r6, r0
   1b2f6:	4699      	mov	r9, r3
   1b2f8:	469b      	mov	fp, r3
   1b2fa:	e779      	b.n	1b1f0 <__aeabi_fdiv+0x30>
   1b2fc:	464a      	mov	r2, r9
   1b2fe:	2303      	movs	r3, #3
   1b300:	431a      	orrs	r2, r3
   1b302:	4691      	mov	r9, r2
   1b304:	2103      	movs	r1, #3
   1b306:	e786      	b.n	1b216 <__aeabi_fdiv+0x56>
   1b308:	0028      	movs	r0, r5
   1b30a:	f001 f921 	bl	1c550 <__clzsi2>
   1b30e:	1f43      	subs	r3, r0, #5
   1b310:	1836      	adds	r6, r6, r0
   1b312:	409d      	lsls	r5, r3
   1b314:	3676      	adds	r6, #118	; 0x76
   1b316:	2100      	movs	r1, #0
   1b318:	e77d      	b.n	1b216 <__aeabi_fdiv+0x56>
   1b31a:	2480      	movs	r4, #128	; 0x80
   1b31c:	2300      	movs	r3, #0
   1b31e:	03e4      	lsls	r4, r4, #15
   1b320:	22ff      	movs	r2, #255	; 0xff
   1b322:	e7ac      	b.n	1b27e <__aeabi_fdiv+0xbe>
   1b324:	2500      	movs	r5, #0
   1b326:	2380      	movs	r3, #128	; 0x80
   1b328:	03db      	lsls	r3, r3, #15
   1b32a:	421c      	tst	r4, r3
   1b32c:	d028      	beq.n	1b380 <__aeabi_fdiv+0x1c0>
   1b32e:	421d      	tst	r5, r3
   1b330:	d126      	bne.n	1b380 <__aeabi_fdiv+0x1c0>
   1b332:	432b      	orrs	r3, r5
   1b334:	025c      	lsls	r4, r3, #9
   1b336:	0a64      	lsrs	r4, r4, #9
   1b338:	4643      	mov	r3, r8
   1b33a:	22ff      	movs	r2, #255	; 0xff
   1b33c:	e79f      	b.n	1b27e <__aeabi_fdiv+0xbe>
   1b33e:	0162      	lsls	r2, r4, #5
   1b340:	016c      	lsls	r4, r5, #5
   1b342:	42a2      	cmp	r2, r4
   1b344:	d224      	bcs.n	1b390 <__aeabi_fdiv+0x1d0>
   1b346:	211b      	movs	r1, #27
   1b348:	2500      	movs	r5, #0
   1b34a:	3e01      	subs	r6, #1
   1b34c:	2701      	movs	r7, #1
   1b34e:	0010      	movs	r0, r2
   1b350:	006d      	lsls	r5, r5, #1
   1b352:	0052      	lsls	r2, r2, #1
   1b354:	2800      	cmp	r0, #0
   1b356:	db01      	blt.n	1b35c <__aeabi_fdiv+0x19c>
   1b358:	4294      	cmp	r4, r2
   1b35a:	d801      	bhi.n	1b360 <__aeabi_fdiv+0x1a0>
   1b35c:	1b12      	subs	r2, r2, r4
   1b35e:	433d      	orrs	r5, r7
   1b360:	3901      	subs	r1, #1
   1b362:	2900      	cmp	r1, #0
   1b364:	d1f3      	bne.n	1b34e <__aeabi_fdiv+0x18e>
   1b366:	0014      	movs	r4, r2
   1b368:	1e62      	subs	r2, r4, #1
   1b36a:	4194      	sbcs	r4, r2
   1b36c:	4325      	orrs	r5, r4
   1b36e:	e76d      	b.n	1b24c <__aeabi_fdiv+0x8c>
   1b370:	46ba      	mov	sl, r7
   1b372:	4659      	mov	r1, fp
   1b374:	0025      	movs	r5, r4
   1b376:	4653      	mov	r3, sl
   1b378:	2902      	cmp	r1, #2
   1b37a:	d000      	beq.n	1b37e <__aeabi_fdiv+0x1be>
   1b37c:	e761      	b.n	1b242 <__aeabi_fdiv+0x82>
   1b37e:	e77c      	b.n	1b27a <__aeabi_fdiv+0xba>
   1b380:	2380      	movs	r3, #128	; 0x80
   1b382:	03db      	lsls	r3, r3, #15
   1b384:	431c      	orrs	r4, r3
   1b386:	0264      	lsls	r4, r4, #9
   1b388:	0a64      	lsrs	r4, r4, #9
   1b38a:	003b      	movs	r3, r7
   1b38c:	22ff      	movs	r2, #255	; 0xff
   1b38e:	e776      	b.n	1b27e <__aeabi_fdiv+0xbe>
   1b390:	1b12      	subs	r2, r2, r4
   1b392:	211a      	movs	r1, #26
   1b394:	2501      	movs	r5, #1
   1b396:	e7d9      	b.n	1b34c <__aeabi_fdiv+0x18c>
   1b398:	369e      	adds	r6, #158	; 0x9e
   1b39a:	002a      	movs	r2, r5
   1b39c:	40b5      	lsls	r5, r6
   1b39e:	002c      	movs	r4, r5
   1b3a0:	40c2      	lsrs	r2, r0
   1b3a2:	1e65      	subs	r5, r4, #1
   1b3a4:	41ac      	sbcs	r4, r5
   1b3a6:	4314      	orrs	r4, r2
   1b3a8:	0762      	lsls	r2, r4, #29
   1b3aa:	d004      	beq.n	1b3b6 <__aeabi_fdiv+0x1f6>
   1b3ac:	220f      	movs	r2, #15
   1b3ae:	4022      	ands	r2, r4
   1b3b0:	2a04      	cmp	r2, #4
   1b3b2:	d000      	beq.n	1b3b6 <__aeabi_fdiv+0x1f6>
   1b3b4:	3404      	adds	r4, #4
   1b3b6:	0162      	lsls	r2, r4, #5
   1b3b8:	d403      	bmi.n	1b3c2 <__aeabi_fdiv+0x202>
   1b3ba:	01a4      	lsls	r4, r4, #6
   1b3bc:	0a64      	lsrs	r4, r4, #9
   1b3be:	2200      	movs	r2, #0
   1b3c0:	e75d      	b.n	1b27e <__aeabi_fdiv+0xbe>
   1b3c2:	2201      	movs	r2, #1
   1b3c4:	2400      	movs	r4, #0
   1b3c6:	e75a      	b.n	1b27e <__aeabi_fdiv+0xbe>
   1b3c8:	2480      	movs	r4, #128	; 0x80
   1b3ca:	03e4      	lsls	r4, r4, #15
   1b3cc:	432c      	orrs	r4, r5
   1b3ce:	0264      	lsls	r4, r4, #9
   1b3d0:	0a64      	lsrs	r4, r4, #9
   1b3d2:	22ff      	movs	r2, #255	; 0xff
   1b3d4:	e753      	b.n	1b27e <__aeabi_fdiv+0xbe>
   1b3d6:	46c0      	nop			; (mov r8, r8)
   1b3d8:	f2c4 0001 	movt	r0, #16385	; 0x4001
   1b3dc:	ffff f7ff 	vqshl.u64	<illegal reg q15.5>, <illegal reg q15.5>, #63	; 0x3f
   1b3e0:	f304 0001 	ssat	r0, #2, r4

0001b3e4 <__eqsf2>:
   1b3e4:	b570      	push	{r4, r5, r6, lr}
   1b3e6:	0042      	lsls	r2, r0, #1
   1b3e8:	024e      	lsls	r6, r1, #9
   1b3ea:	004c      	lsls	r4, r1, #1
   1b3ec:	0245      	lsls	r5, r0, #9
   1b3ee:	0a6d      	lsrs	r5, r5, #9
   1b3f0:	0e12      	lsrs	r2, r2, #24
   1b3f2:	0fc3      	lsrs	r3, r0, #31
   1b3f4:	0a76      	lsrs	r6, r6, #9
   1b3f6:	0e24      	lsrs	r4, r4, #24
   1b3f8:	0fc9      	lsrs	r1, r1, #31
   1b3fa:	2aff      	cmp	r2, #255	; 0xff
   1b3fc:	d00f      	beq.n	1b41e <__eqsf2+0x3a>
   1b3fe:	2cff      	cmp	r4, #255	; 0xff
   1b400:	d011      	beq.n	1b426 <__eqsf2+0x42>
   1b402:	2001      	movs	r0, #1
   1b404:	42a2      	cmp	r2, r4
   1b406:	d000      	beq.n	1b40a <__eqsf2+0x26>
   1b408:	bd70      	pop	{r4, r5, r6, pc}
   1b40a:	42b5      	cmp	r5, r6
   1b40c:	d1fc      	bne.n	1b408 <__eqsf2+0x24>
   1b40e:	428b      	cmp	r3, r1
   1b410:	d00d      	beq.n	1b42e <__eqsf2+0x4a>
   1b412:	2a00      	cmp	r2, #0
   1b414:	d1f8      	bne.n	1b408 <__eqsf2+0x24>
   1b416:	0028      	movs	r0, r5
   1b418:	1e45      	subs	r5, r0, #1
   1b41a:	41a8      	sbcs	r0, r5
   1b41c:	e7f4      	b.n	1b408 <__eqsf2+0x24>
   1b41e:	2001      	movs	r0, #1
   1b420:	2d00      	cmp	r5, #0
   1b422:	d1f1      	bne.n	1b408 <__eqsf2+0x24>
   1b424:	e7eb      	b.n	1b3fe <__eqsf2+0x1a>
   1b426:	2001      	movs	r0, #1
   1b428:	2e00      	cmp	r6, #0
   1b42a:	d1ed      	bne.n	1b408 <__eqsf2+0x24>
   1b42c:	e7e9      	b.n	1b402 <__eqsf2+0x1e>
   1b42e:	2000      	movs	r0, #0
   1b430:	e7ea      	b.n	1b408 <__eqsf2+0x24>
   1b432:	46c0      	nop			; (mov r8, r8)

0001b434 <__gesf2>:
   1b434:	b570      	push	{r4, r5, r6, lr}
   1b436:	004a      	lsls	r2, r1, #1
   1b438:	024e      	lsls	r6, r1, #9
   1b43a:	0245      	lsls	r5, r0, #9
   1b43c:	0044      	lsls	r4, r0, #1
   1b43e:	0a6d      	lsrs	r5, r5, #9
   1b440:	0e24      	lsrs	r4, r4, #24
   1b442:	0fc3      	lsrs	r3, r0, #31
   1b444:	0a76      	lsrs	r6, r6, #9
   1b446:	0e12      	lsrs	r2, r2, #24
   1b448:	0fc9      	lsrs	r1, r1, #31
   1b44a:	2cff      	cmp	r4, #255	; 0xff
   1b44c:	d015      	beq.n	1b47a <__gesf2+0x46>
   1b44e:	2aff      	cmp	r2, #255	; 0xff
   1b450:	d00e      	beq.n	1b470 <__gesf2+0x3c>
   1b452:	2c00      	cmp	r4, #0
   1b454:	d115      	bne.n	1b482 <__gesf2+0x4e>
   1b456:	2a00      	cmp	r2, #0
   1b458:	d101      	bne.n	1b45e <__gesf2+0x2a>
   1b45a:	2e00      	cmp	r6, #0
   1b45c:	d01c      	beq.n	1b498 <__gesf2+0x64>
   1b45e:	2d00      	cmp	r5, #0
   1b460:	d014      	beq.n	1b48c <__gesf2+0x58>
   1b462:	428b      	cmp	r3, r1
   1b464:	d027      	beq.n	1b4b6 <__gesf2+0x82>
   1b466:	2002      	movs	r0, #2
   1b468:	3b01      	subs	r3, #1
   1b46a:	4018      	ands	r0, r3
   1b46c:	3801      	subs	r0, #1
   1b46e:	bd70      	pop	{r4, r5, r6, pc}
   1b470:	2e00      	cmp	r6, #0
   1b472:	d0ee      	beq.n	1b452 <__gesf2+0x1e>
   1b474:	2002      	movs	r0, #2
   1b476:	4240      	negs	r0, r0
   1b478:	e7f9      	b.n	1b46e <__gesf2+0x3a>
   1b47a:	2d00      	cmp	r5, #0
   1b47c:	d1fa      	bne.n	1b474 <__gesf2+0x40>
   1b47e:	2aff      	cmp	r2, #255	; 0xff
   1b480:	d00e      	beq.n	1b4a0 <__gesf2+0x6c>
   1b482:	2a00      	cmp	r2, #0
   1b484:	d10e      	bne.n	1b4a4 <__gesf2+0x70>
   1b486:	2e00      	cmp	r6, #0
   1b488:	d0ed      	beq.n	1b466 <__gesf2+0x32>
   1b48a:	e00b      	b.n	1b4a4 <__gesf2+0x70>
   1b48c:	2301      	movs	r3, #1
   1b48e:	3901      	subs	r1, #1
   1b490:	4399      	bics	r1, r3
   1b492:	0008      	movs	r0, r1
   1b494:	3001      	adds	r0, #1
   1b496:	e7ea      	b.n	1b46e <__gesf2+0x3a>
   1b498:	2000      	movs	r0, #0
   1b49a:	2d00      	cmp	r5, #0
   1b49c:	d0e7      	beq.n	1b46e <__gesf2+0x3a>
   1b49e:	e7e2      	b.n	1b466 <__gesf2+0x32>
   1b4a0:	2e00      	cmp	r6, #0
   1b4a2:	d1e7      	bne.n	1b474 <__gesf2+0x40>
   1b4a4:	428b      	cmp	r3, r1
   1b4a6:	d1de      	bne.n	1b466 <__gesf2+0x32>
   1b4a8:	4294      	cmp	r4, r2
   1b4aa:	dd05      	ble.n	1b4b8 <__gesf2+0x84>
   1b4ac:	2102      	movs	r1, #2
   1b4ae:	1e58      	subs	r0, r3, #1
   1b4b0:	4008      	ands	r0, r1
   1b4b2:	3801      	subs	r0, #1
   1b4b4:	e7db      	b.n	1b46e <__gesf2+0x3a>
   1b4b6:	2400      	movs	r4, #0
   1b4b8:	42a2      	cmp	r2, r4
   1b4ba:	dc04      	bgt.n	1b4c6 <__gesf2+0x92>
   1b4bc:	42b5      	cmp	r5, r6
   1b4be:	d8d2      	bhi.n	1b466 <__gesf2+0x32>
   1b4c0:	2000      	movs	r0, #0
   1b4c2:	42b5      	cmp	r5, r6
   1b4c4:	d2d3      	bcs.n	1b46e <__gesf2+0x3a>
   1b4c6:	1e58      	subs	r0, r3, #1
   1b4c8:	2301      	movs	r3, #1
   1b4ca:	4398      	bics	r0, r3
   1b4cc:	3001      	adds	r0, #1
   1b4ce:	e7ce      	b.n	1b46e <__gesf2+0x3a>

0001b4d0 <__lesf2>:
   1b4d0:	b530      	push	{r4, r5, lr}
   1b4d2:	0042      	lsls	r2, r0, #1
   1b4d4:	0244      	lsls	r4, r0, #9
   1b4d6:	024d      	lsls	r5, r1, #9
   1b4d8:	0fc3      	lsrs	r3, r0, #31
   1b4da:	0048      	lsls	r0, r1, #1
   1b4dc:	0a64      	lsrs	r4, r4, #9
   1b4de:	0e12      	lsrs	r2, r2, #24
   1b4e0:	0a6d      	lsrs	r5, r5, #9
   1b4e2:	0e00      	lsrs	r0, r0, #24
   1b4e4:	0fc9      	lsrs	r1, r1, #31
   1b4e6:	2aff      	cmp	r2, #255	; 0xff
   1b4e8:	d012      	beq.n	1b510 <__lesf2+0x40>
   1b4ea:	28ff      	cmp	r0, #255	; 0xff
   1b4ec:	d00c      	beq.n	1b508 <__lesf2+0x38>
   1b4ee:	2a00      	cmp	r2, #0
   1b4f0:	d112      	bne.n	1b518 <__lesf2+0x48>
   1b4f2:	2800      	cmp	r0, #0
   1b4f4:	d119      	bne.n	1b52a <__lesf2+0x5a>
   1b4f6:	2d00      	cmp	r5, #0
   1b4f8:	d117      	bne.n	1b52a <__lesf2+0x5a>
   1b4fa:	2c00      	cmp	r4, #0
   1b4fc:	d02b      	beq.n	1b556 <__lesf2+0x86>
   1b4fe:	2002      	movs	r0, #2
   1b500:	3b01      	subs	r3, #1
   1b502:	4018      	ands	r0, r3
   1b504:	3801      	subs	r0, #1
   1b506:	e026      	b.n	1b556 <__lesf2+0x86>
   1b508:	2d00      	cmp	r5, #0
   1b50a:	d0f0      	beq.n	1b4ee <__lesf2+0x1e>
   1b50c:	2002      	movs	r0, #2
   1b50e:	e022      	b.n	1b556 <__lesf2+0x86>
   1b510:	2c00      	cmp	r4, #0
   1b512:	d1fb      	bne.n	1b50c <__lesf2+0x3c>
   1b514:	28ff      	cmp	r0, #255	; 0xff
   1b516:	d01f      	beq.n	1b558 <__lesf2+0x88>
   1b518:	2800      	cmp	r0, #0
   1b51a:	d11f      	bne.n	1b55c <__lesf2+0x8c>
   1b51c:	2d00      	cmp	r5, #0
   1b51e:	d11d      	bne.n	1b55c <__lesf2+0x8c>
   1b520:	2002      	movs	r0, #2
   1b522:	3b01      	subs	r3, #1
   1b524:	4018      	ands	r0, r3
   1b526:	3801      	subs	r0, #1
   1b528:	e015      	b.n	1b556 <__lesf2+0x86>
   1b52a:	2c00      	cmp	r4, #0
   1b52c:	d00e      	beq.n	1b54c <__lesf2+0x7c>
   1b52e:	428b      	cmp	r3, r1
   1b530:	d1e5      	bne.n	1b4fe <__lesf2+0x2e>
   1b532:	2200      	movs	r2, #0
   1b534:	4290      	cmp	r0, r2
   1b536:	dc04      	bgt.n	1b542 <__lesf2+0x72>
   1b538:	42ac      	cmp	r4, r5
   1b53a:	d8e0      	bhi.n	1b4fe <__lesf2+0x2e>
   1b53c:	2000      	movs	r0, #0
   1b53e:	42ac      	cmp	r4, r5
   1b540:	d209      	bcs.n	1b556 <__lesf2+0x86>
   1b542:	1e58      	subs	r0, r3, #1
   1b544:	2301      	movs	r3, #1
   1b546:	4398      	bics	r0, r3
   1b548:	3001      	adds	r0, #1
   1b54a:	e004      	b.n	1b556 <__lesf2+0x86>
   1b54c:	2301      	movs	r3, #1
   1b54e:	3901      	subs	r1, #1
   1b550:	4399      	bics	r1, r3
   1b552:	0008      	movs	r0, r1
   1b554:	3001      	adds	r0, #1
   1b556:	bd30      	pop	{r4, r5, pc}
   1b558:	2d00      	cmp	r5, #0
   1b55a:	d1d7      	bne.n	1b50c <__lesf2+0x3c>
   1b55c:	428b      	cmp	r3, r1
   1b55e:	d1ce      	bne.n	1b4fe <__lesf2+0x2e>
   1b560:	4282      	cmp	r2, r0
   1b562:	dde7      	ble.n	1b534 <__lesf2+0x64>
   1b564:	2102      	movs	r1, #2
   1b566:	1e58      	subs	r0, r3, #1
   1b568:	4008      	ands	r0, r1
   1b56a:	3801      	subs	r0, #1
   1b56c:	e7f3      	b.n	1b556 <__lesf2+0x86>
   1b56e:	46c0      	nop			; (mov r8, r8)

0001b570 <__aeabi_fmul>:
   1b570:	b5f0      	push	{r4, r5, r6, r7, lr}
   1b572:	464e      	mov	r6, r9
   1b574:	4657      	mov	r7, sl
   1b576:	4645      	mov	r5, r8
   1b578:	46de      	mov	lr, fp
   1b57a:	b5e0      	push	{r5, r6, r7, lr}
   1b57c:	0243      	lsls	r3, r0, #9
   1b57e:	0a5b      	lsrs	r3, r3, #9
   1b580:	0045      	lsls	r5, r0, #1
   1b582:	b083      	sub	sp, #12
   1b584:	1c0f      	adds	r7, r1, #0
   1b586:	4699      	mov	r9, r3
   1b588:	0e2d      	lsrs	r5, r5, #24
   1b58a:	0fc6      	lsrs	r6, r0, #31
   1b58c:	2d00      	cmp	r5, #0
   1b58e:	d057      	beq.n	1b640 <__aeabi_fmul+0xd0>
   1b590:	2dff      	cmp	r5, #255	; 0xff
   1b592:	d024      	beq.n	1b5de <__aeabi_fmul+0x6e>
   1b594:	2080      	movs	r0, #128	; 0x80
   1b596:	00db      	lsls	r3, r3, #3
   1b598:	04c0      	lsls	r0, r0, #19
   1b59a:	4318      	orrs	r0, r3
   1b59c:	2300      	movs	r3, #0
   1b59e:	4681      	mov	r9, r0
   1b5a0:	469a      	mov	sl, r3
   1b5a2:	469b      	mov	fp, r3
   1b5a4:	3d7f      	subs	r5, #127	; 0x7f
   1b5a6:	027c      	lsls	r4, r7, #9
   1b5a8:	007a      	lsls	r2, r7, #1
   1b5aa:	0ffb      	lsrs	r3, r7, #31
   1b5ac:	0a64      	lsrs	r4, r4, #9
   1b5ae:	0e12      	lsrs	r2, r2, #24
   1b5b0:	4698      	mov	r8, r3
   1b5b2:	d023      	beq.n	1b5fc <__aeabi_fmul+0x8c>
   1b5b4:	2aff      	cmp	r2, #255	; 0xff
   1b5b6:	d04b      	beq.n	1b650 <__aeabi_fmul+0xe0>
   1b5b8:	00e3      	lsls	r3, r4, #3
   1b5ba:	2480      	movs	r4, #128	; 0x80
   1b5bc:	2000      	movs	r0, #0
   1b5be:	04e4      	lsls	r4, r4, #19
   1b5c0:	3a7f      	subs	r2, #127	; 0x7f
   1b5c2:	431c      	orrs	r4, r3
   1b5c4:	18ad      	adds	r5, r5, r2
   1b5c6:	1c6b      	adds	r3, r5, #1
   1b5c8:	4647      	mov	r7, r8
   1b5ca:	9301      	str	r3, [sp, #4]
   1b5cc:	4653      	mov	r3, sl
   1b5ce:	4077      	eors	r7, r6
   1b5d0:	003a      	movs	r2, r7
   1b5d2:	2b0f      	cmp	r3, #15
   1b5d4:	d848      	bhi.n	1b668 <__aeabi_fmul+0xf8>
   1b5d6:	497d      	ldr	r1, [pc, #500]	; (1b7cc <__aeabi_fmul+0x25c>)
   1b5d8:	009b      	lsls	r3, r3, #2
   1b5da:	58cb      	ldr	r3, [r1, r3]
   1b5dc:	469f      	mov	pc, r3
   1b5de:	2b00      	cmp	r3, #0
   1b5e0:	d000      	beq.n	1b5e4 <__aeabi_fmul+0x74>
   1b5e2:	e085      	b.n	1b6f0 <__aeabi_fmul+0x180>
   1b5e4:	3308      	adds	r3, #8
   1b5e6:	469a      	mov	sl, r3
   1b5e8:	3b06      	subs	r3, #6
   1b5ea:	469b      	mov	fp, r3
   1b5ec:	027c      	lsls	r4, r7, #9
   1b5ee:	007a      	lsls	r2, r7, #1
   1b5f0:	0ffb      	lsrs	r3, r7, #31
   1b5f2:	25ff      	movs	r5, #255	; 0xff
   1b5f4:	0a64      	lsrs	r4, r4, #9
   1b5f6:	0e12      	lsrs	r2, r2, #24
   1b5f8:	4698      	mov	r8, r3
   1b5fa:	d1db      	bne.n	1b5b4 <__aeabi_fmul+0x44>
   1b5fc:	2c00      	cmp	r4, #0
   1b5fe:	d000      	beq.n	1b602 <__aeabi_fmul+0x92>
   1b600:	e090      	b.n	1b724 <__aeabi_fmul+0x1b4>
   1b602:	4652      	mov	r2, sl
   1b604:	2301      	movs	r3, #1
   1b606:	431a      	orrs	r2, r3
   1b608:	4692      	mov	sl, r2
   1b60a:	2001      	movs	r0, #1
   1b60c:	e7db      	b.n	1b5c6 <__aeabi_fmul+0x56>
   1b60e:	464c      	mov	r4, r9
   1b610:	4658      	mov	r0, fp
   1b612:	0017      	movs	r7, r2
   1b614:	2802      	cmp	r0, #2
   1b616:	d024      	beq.n	1b662 <__aeabi_fmul+0xf2>
   1b618:	2803      	cmp	r0, #3
   1b61a:	d100      	bne.n	1b61e <__aeabi_fmul+0xae>
   1b61c:	e0cf      	b.n	1b7be <__aeabi_fmul+0x24e>
   1b61e:	2200      	movs	r2, #0
   1b620:	2300      	movs	r3, #0
   1b622:	2801      	cmp	r0, #1
   1b624:	d14d      	bne.n	1b6c2 <__aeabi_fmul+0x152>
   1b626:	0258      	lsls	r0, r3, #9
   1b628:	05d2      	lsls	r2, r2, #23
   1b62a:	0a40      	lsrs	r0, r0, #9
   1b62c:	07ff      	lsls	r7, r7, #31
   1b62e:	4310      	orrs	r0, r2
   1b630:	4338      	orrs	r0, r7
   1b632:	b003      	add	sp, #12
   1b634:	bc3c      	pop	{r2, r3, r4, r5}
   1b636:	4690      	mov	r8, r2
   1b638:	4699      	mov	r9, r3
   1b63a:	46a2      	mov	sl, r4
   1b63c:	46ab      	mov	fp, r5
   1b63e:	bdf0      	pop	{r4, r5, r6, r7, pc}
   1b640:	2b00      	cmp	r3, #0
   1b642:	d15b      	bne.n	1b6fc <__aeabi_fmul+0x18c>
   1b644:	2304      	movs	r3, #4
   1b646:	469a      	mov	sl, r3
   1b648:	3b03      	subs	r3, #3
   1b64a:	2500      	movs	r5, #0
   1b64c:	469b      	mov	fp, r3
   1b64e:	e7aa      	b.n	1b5a6 <__aeabi_fmul+0x36>
   1b650:	35ff      	adds	r5, #255	; 0xff
   1b652:	2c00      	cmp	r4, #0
   1b654:	d160      	bne.n	1b718 <__aeabi_fmul+0x1a8>
   1b656:	4652      	mov	r2, sl
   1b658:	2302      	movs	r3, #2
   1b65a:	431a      	orrs	r2, r3
   1b65c:	4692      	mov	sl, r2
   1b65e:	2002      	movs	r0, #2
   1b660:	e7b1      	b.n	1b5c6 <__aeabi_fmul+0x56>
   1b662:	22ff      	movs	r2, #255	; 0xff
   1b664:	2300      	movs	r3, #0
   1b666:	e7de      	b.n	1b626 <__aeabi_fmul+0xb6>
   1b668:	464b      	mov	r3, r9
   1b66a:	0c1b      	lsrs	r3, r3, #16
   1b66c:	469c      	mov	ip, r3
   1b66e:	464b      	mov	r3, r9
   1b670:	0426      	lsls	r6, r4, #16
   1b672:	0c36      	lsrs	r6, r6, #16
   1b674:	0418      	lsls	r0, r3, #16
   1b676:	4661      	mov	r1, ip
   1b678:	0033      	movs	r3, r6
   1b67a:	0c22      	lsrs	r2, r4, #16
   1b67c:	4664      	mov	r4, ip
   1b67e:	0c00      	lsrs	r0, r0, #16
   1b680:	4343      	muls	r3, r0
   1b682:	434e      	muls	r6, r1
   1b684:	4350      	muls	r0, r2
   1b686:	4354      	muls	r4, r2
   1b688:	1980      	adds	r0, r0, r6
   1b68a:	0c1a      	lsrs	r2, r3, #16
   1b68c:	1812      	adds	r2, r2, r0
   1b68e:	4296      	cmp	r6, r2
   1b690:	d903      	bls.n	1b69a <__aeabi_fmul+0x12a>
   1b692:	2180      	movs	r1, #128	; 0x80
   1b694:	0249      	lsls	r1, r1, #9
   1b696:	468c      	mov	ip, r1
   1b698:	4464      	add	r4, ip
   1b69a:	041b      	lsls	r3, r3, #16
   1b69c:	0c1b      	lsrs	r3, r3, #16
   1b69e:	0410      	lsls	r0, r2, #16
   1b6a0:	18c0      	adds	r0, r0, r3
   1b6a2:	0183      	lsls	r3, r0, #6
   1b6a4:	1e5e      	subs	r6, r3, #1
   1b6a6:	41b3      	sbcs	r3, r6
   1b6a8:	0e80      	lsrs	r0, r0, #26
   1b6aa:	4318      	orrs	r0, r3
   1b6ac:	0c13      	lsrs	r3, r2, #16
   1b6ae:	191b      	adds	r3, r3, r4
   1b6b0:	019b      	lsls	r3, r3, #6
   1b6b2:	4303      	orrs	r3, r0
   1b6b4:	001c      	movs	r4, r3
   1b6b6:	0123      	lsls	r3, r4, #4
   1b6b8:	d579      	bpl.n	1b7ae <__aeabi_fmul+0x23e>
   1b6ba:	2301      	movs	r3, #1
   1b6bc:	0862      	lsrs	r2, r4, #1
   1b6be:	401c      	ands	r4, r3
   1b6c0:	4314      	orrs	r4, r2
   1b6c2:	9a01      	ldr	r2, [sp, #4]
   1b6c4:	327f      	adds	r2, #127	; 0x7f
   1b6c6:	2a00      	cmp	r2, #0
   1b6c8:	dd4d      	ble.n	1b766 <__aeabi_fmul+0x1f6>
   1b6ca:	0763      	lsls	r3, r4, #29
   1b6cc:	d004      	beq.n	1b6d8 <__aeabi_fmul+0x168>
   1b6ce:	230f      	movs	r3, #15
   1b6d0:	4023      	ands	r3, r4
   1b6d2:	2b04      	cmp	r3, #4
   1b6d4:	d000      	beq.n	1b6d8 <__aeabi_fmul+0x168>
   1b6d6:	3404      	adds	r4, #4
   1b6d8:	0123      	lsls	r3, r4, #4
   1b6da:	d503      	bpl.n	1b6e4 <__aeabi_fmul+0x174>
   1b6dc:	4b3c      	ldr	r3, [pc, #240]	; (1b7d0 <__aeabi_fmul+0x260>)
   1b6de:	9a01      	ldr	r2, [sp, #4]
   1b6e0:	401c      	ands	r4, r3
   1b6e2:	3280      	adds	r2, #128	; 0x80
   1b6e4:	2afe      	cmp	r2, #254	; 0xfe
   1b6e6:	dcbc      	bgt.n	1b662 <__aeabi_fmul+0xf2>
   1b6e8:	01a3      	lsls	r3, r4, #6
   1b6ea:	0a5b      	lsrs	r3, r3, #9
   1b6ec:	b2d2      	uxtb	r2, r2
   1b6ee:	e79a      	b.n	1b626 <__aeabi_fmul+0xb6>
   1b6f0:	230c      	movs	r3, #12
   1b6f2:	469a      	mov	sl, r3
   1b6f4:	3b09      	subs	r3, #9
   1b6f6:	25ff      	movs	r5, #255	; 0xff
   1b6f8:	469b      	mov	fp, r3
   1b6fa:	e754      	b.n	1b5a6 <__aeabi_fmul+0x36>
   1b6fc:	0018      	movs	r0, r3
   1b6fe:	f000 ff27 	bl	1c550 <__clzsi2>
   1b702:	464a      	mov	r2, r9
   1b704:	1f43      	subs	r3, r0, #5
   1b706:	2576      	movs	r5, #118	; 0x76
   1b708:	409a      	lsls	r2, r3
   1b70a:	2300      	movs	r3, #0
   1b70c:	426d      	negs	r5, r5
   1b70e:	4691      	mov	r9, r2
   1b710:	1a2d      	subs	r5, r5, r0
   1b712:	469a      	mov	sl, r3
   1b714:	469b      	mov	fp, r3
   1b716:	e746      	b.n	1b5a6 <__aeabi_fmul+0x36>
   1b718:	4652      	mov	r2, sl
   1b71a:	2303      	movs	r3, #3
   1b71c:	431a      	orrs	r2, r3
   1b71e:	4692      	mov	sl, r2
   1b720:	2003      	movs	r0, #3
   1b722:	e750      	b.n	1b5c6 <__aeabi_fmul+0x56>
   1b724:	0020      	movs	r0, r4
   1b726:	f000 ff13 	bl	1c550 <__clzsi2>
   1b72a:	1f43      	subs	r3, r0, #5
   1b72c:	1a2d      	subs	r5, r5, r0
   1b72e:	409c      	lsls	r4, r3
   1b730:	3d76      	subs	r5, #118	; 0x76
   1b732:	2000      	movs	r0, #0
   1b734:	e747      	b.n	1b5c6 <__aeabi_fmul+0x56>
   1b736:	2380      	movs	r3, #128	; 0x80
   1b738:	2700      	movs	r7, #0
   1b73a:	03db      	lsls	r3, r3, #15
   1b73c:	22ff      	movs	r2, #255	; 0xff
   1b73e:	e772      	b.n	1b626 <__aeabi_fmul+0xb6>
   1b740:	4642      	mov	r2, r8
   1b742:	e766      	b.n	1b612 <__aeabi_fmul+0xa2>
   1b744:	464c      	mov	r4, r9
   1b746:	0032      	movs	r2, r6
   1b748:	4658      	mov	r0, fp
   1b74a:	e762      	b.n	1b612 <__aeabi_fmul+0xa2>
   1b74c:	2380      	movs	r3, #128	; 0x80
   1b74e:	464a      	mov	r2, r9
   1b750:	03db      	lsls	r3, r3, #15
   1b752:	421a      	tst	r2, r3
   1b754:	d022      	beq.n	1b79c <__aeabi_fmul+0x22c>
   1b756:	421c      	tst	r4, r3
   1b758:	d120      	bne.n	1b79c <__aeabi_fmul+0x22c>
   1b75a:	4323      	orrs	r3, r4
   1b75c:	025b      	lsls	r3, r3, #9
   1b75e:	0a5b      	lsrs	r3, r3, #9
   1b760:	4647      	mov	r7, r8
   1b762:	22ff      	movs	r2, #255	; 0xff
   1b764:	e75f      	b.n	1b626 <__aeabi_fmul+0xb6>
   1b766:	2301      	movs	r3, #1
   1b768:	1a9a      	subs	r2, r3, r2
   1b76a:	2a1b      	cmp	r2, #27
   1b76c:	dc21      	bgt.n	1b7b2 <__aeabi_fmul+0x242>
   1b76e:	0023      	movs	r3, r4
   1b770:	9901      	ldr	r1, [sp, #4]
   1b772:	40d3      	lsrs	r3, r2
   1b774:	319e      	adds	r1, #158	; 0x9e
   1b776:	408c      	lsls	r4, r1
   1b778:	001a      	movs	r2, r3
   1b77a:	0023      	movs	r3, r4
   1b77c:	1e5c      	subs	r4, r3, #1
   1b77e:	41a3      	sbcs	r3, r4
   1b780:	4313      	orrs	r3, r2
   1b782:	075a      	lsls	r2, r3, #29
   1b784:	d004      	beq.n	1b790 <__aeabi_fmul+0x220>
   1b786:	220f      	movs	r2, #15
   1b788:	401a      	ands	r2, r3
   1b78a:	2a04      	cmp	r2, #4
   1b78c:	d000      	beq.n	1b790 <__aeabi_fmul+0x220>
   1b78e:	3304      	adds	r3, #4
   1b790:	015a      	lsls	r2, r3, #5
   1b792:	d411      	bmi.n	1b7b8 <__aeabi_fmul+0x248>
   1b794:	019b      	lsls	r3, r3, #6
   1b796:	0a5b      	lsrs	r3, r3, #9
   1b798:	2200      	movs	r2, #0
   1b79a:	e744      	b.n	1b626 <__aeabi_fmul+0xb6>
   1b79c:	2380      	movs	r3, #128	; 0x80
   1b79e:	464a      	mov	r2, r9
   1b7a0:	03db      	lsls	r3, r3, #15
   1b7a2:	4313      	orrs	r3, r2
   1b7a4:	025b      	lsls	r3, r3, #9
   1b7a6:	0a5b      	lsrs	r3, r3, #9
   1b7a8:	0037      	movs	r7, r6
   1b7aa:	22ff      	movs	r2, #255	; 0xff
   1b7ac:	e73b      	b.n	1b626 <__aeabi_fmul+0xb6>
   1b7ae:	9501      	str	r5, [sp, #4]
   1b7b0:	e787      	b.n	1b6c2 <__aeabi_fmul+0x152>
   1b7b2:	2200      	movs	r2, #0
   1b7b4:	2300      	movs	r3, #0
   1b7b6:	e736      	b.n	1b626 <__aeabi_fmul+0xb6>
   1b7b8:	2201      	movs	r2, #1
   1b7ba:	2300      	movs	r3, #0
   1b7bc:	e733      	b.n	1b626 <__aeabi_fmul+0xb6>
   1b7be:	2380      	movs	r3, #128	; 0x80
   1b7c0:	03db      	lsls	r3, r3, #15
   1b7c2:	4323      	orrs	r3, r4
   1b7c4:	025b      	lsls	r3, r3, #9
   1b7c6:	0a5b      	lsrs	r3, r3, #9
   1b7c8:	22ff      	movs	r2, #255	; 0xff
   1b7ca:	e72c      	b.n	1b626 <__aeabi_fmul+0xb6>
   1b7cc:	f344 0001 	sbfx	r0, r4, #0, #2
   1b7d0:	ffff f7ff 	vqshl.u64	<illegal reg q15.5>, <illegal reg q15.5>, #63	; 0x3f

0001b7d4 <__aeabi_fsub>:
   1b7d4:	b5f8      	push	{r3, r4, r5, r6, r7, lr}
   1b7d6:	4647      	mov	r7, r8
   1b7d8:	46ce      	mov	lr, r9
   1b7da:	0044      	lsls	r4, r0, #1
   1b7dc:	0fc2      	lsrs	r2, r0, #31
   1b7de:	b580      	push	{r7, lr}
   1b7e0:	0247      	lsls	r7, r0, #9
   1b7e2:	0248      	lsls	r0, r1, #9
   1b7e4:	0a40      	lsrs	r0, r0, #9
   1b7e6:	4684      	mov	ip, r0
   1b7e8:	4666      	mov	r6, ip
   1b7ea:	0048      	lsls	r0, r1, #1
   1b7ec:	0a7f      	lsrs	r7, r7, #9
   1b7ee:	0e24      	lsrs	r4, r4, #24
   1b7f0:	00f6      	lsls	r6, r6, #3
   1b7f2:	0025      	movs	r5, r4
   1b7f4:	4690      	mov	r8, r2
   1b7f6:	00fb      	lsls	r3, r7, #3
   1b7f8:	0e00      	lsrs	r0, r0, #24
   1b7fa:	0fc9      	lsrs	r1, r1, #31
   1b7fc:	46b1      	mov	r9, r6
   1b7fe:	28ff      	cmp	r0, #255	; 0xff
   1b800:	d100      	bne.n	1b804 <__aeabi_fsub+0x30>
   1b802:	e085      	b.n	1b910 <__aeabi_fsub+0x13c>
   1b804:	2601      	movs	r6, #1
   1b806:	4071      	eors	r1, r6
   1b808:	1a26      	subs	r6, r4, r0
   1b80a:	4291      	cmp	r1, r2
   1b80c:	d057      	beq.n	1b8be <__aeabi_fsub+0xea>
   1b80e:	2e00      	cmp	r6, #0
   1b810:	dd43      	ble.n	1b89a <__aeabi_fsub+0xc6>
   1b812:	2800      	cmp	r0, #0
   1b814:	d000      	beq.n	1b818 <__aeabi_fsub+0x44>
   1b816:	e07f      	b.n	1b918 <__aeabi_fsub+0x144>
   1b818:	4649      	mov	r1, r9
   1b81a:	2900      	cmp	r1, #0
   1b81c:	d100      	bne.n	1b820 <__aeabi_fsub+0x4c>
   1b81e:	e0aa      	b.n	1b976 <__aeabi_fsub+0x1a2>
   1b820:	3e01      	subs	r6, #1
   1b822:	2e00      	cmp	r6, #0
   1b824:	d000      	beq.n	1b828 <__aeabi_fsub+0x54>
   1b826:	e0f7      	b.n	1ba18 <__aeabi_fsub+0x244>
   1b828:	1a5b      	subs	r3, r3, r1
   1b82a:	015a      	lsls	r2, r3, #5
   1b82c:	d400      	bmi.n	1b830 <__aeabi_fsub+0x5c>
   1b82e:	e08b      	b.n	1b948 <__aeabi_fsub+0x174>
   1b830:	019b      	lsls	r3, r3, #6
   1b832:	099c      	lsrs	r4, r3, #6
   1b834:	0020      	movs	r0, r4
   1b836:	f000 fe8b 	bl	1c550 <__clzsi2>
   1b83a:	3805      	subs	r0, #5
   1b83c:	4084      	lsls	r4, r0
   1b83e:	4285      	cmp	r5, r0
   1b840:	dd00      	ble.n	1b844 <__aeabi_fsub+0x70>
   1b842:	e0d3      	b.n	1b9ec <__aeabi_fsub+0x218>
   1b844:	1b45      	subs	r5, r0, r5
   1b846:	0023      	movs	r3, r4
   1b848:	2020      	movs	r0, #32
   1b84a:	3501      	adds	r5, #1
   1b84c:	40eb      	lsrs	r3, r5
   1b84e:	1b45      	subs	r5, r0, r5
   1b850:	40ac      	lsls	r4, r5
   1b852:	1e62      	subs	r2, r4, #1
   1b854:	4194      	sbcs	r4, r2
   1b856:	4323      	orrs	r3, r4
   1b858:	2407      	movs	r4, #7
   1b85a:	2500      	movs	r5, #0
   1b85c:	401c      	ands	r4, r3
   1b85e:	2201      	movs	r2, #1
   1b860:	4641      	mov	r1, r8
   1b862:	400a      	ands	r2, r1
   1b864:	2c00      	cmp	r4, #0
   1b866:	d004      	beq.n	1b872 <__aeabi_fsub+0x9e>
   1b868:	210f      	movs	r1, #15
   1b86a:	4019      	ands	r1, r3
   1b86c:	2904      	cmp	r1, #4
   1b86e:	d000      	beq.n	1b872 <__aeabi_fsub+0x9e>
   1b870:	3304      	adds	r3, #4
   1b872:	0159      	lsls	r1, r3, #5
   1b874:	d400      	bmi.n	1b878 <__aeabi_fsub+0xa4>
   1b876:	e080      	b.n	1b97a <__aeabi_fsub+0x1a6>
   1b878:	3501      	adds	r5, #1
   1b87a:	b2ec      	uxtb	r4, r5
   1b87c:	2dff      	cmp	r5, #255	; 0xff
   1b87e:	d000      	beq.n	1b882 <__aeabi_fsub+0xae>
   1b880:	e0a3      	b.n	1b9ca <__aeabi_fsub+0x1f6>
   1b882:	24ff      	movs	r4, #255	; 0xff
   1b884:	2300      	movs	r3, #0
   1b886:	025b      	lsls	r3, r3, #9
   1b888:	05e4      	lsls	r4, r4, #23
   1b88a:	0a58      	lsrs	r0, r3, #9
   1b88c:	07d2      	lsls	r2, r2, #31
   1b88e:	4320      	orrs	r0, r4
   1b890:	4310      	orrs	r0, r2
   1b892:	bc0c      	pop	{r2, r3}
   1b894:	4690      	mov	r8, r2
   1b896:	4699      	mov	r9, r3
   1b898:	bdf8      	pop	{r3, r4, r5, r6, r7, pc}
   1b89a:	2e00      	cmp	r6, #0
   1b89c:	d174      	bne.n	1b988 <__aeabi_fsub+0x1b4>
   1b89e:	1c60      	adds	r0, r4, #1
   1b8a0:	b2c0      	uxtb	r0, r0
   1b8a2:	2801      	cmp	r0, #1
   1b8a4:	dc00      	bgt.n	1b8a8 <__aeabi_fsub+0xd4>
   1b8a6:	e0a7      	b.n	1b9f8 <__aeabi_fsub+0x224>
   1b8a8:	464a      	mov	r2, r9
   1b8aa:	1a9c      	subs	r4, r3, r2
   1b8ac:	0162      	lsls	r2, r4, #5
   1b8ae:	d500      	bpl.n	1b8b2 <__aeabi_fsub+0xde>
   1b8b0:	e0b6      	b.n	1ba20 <__aeabi_fsub+0x24c>
   1b8b2:	2c00      	cmp	r4, #0
   1b8b4:	d1be      	bne.n	1b834 <__aeabi_fsub+0x60>
   1b8b6:	2200      	movs	r2, #0
   1b8b8:	2400      	movs	r4, #0
   1b8ba:	2300      	movs	r3, #0
   1b8bc:	e7e3      	b.n	1b886 <__aeabi_fsub+0xb2>
   1b8be:	2e00      	cmp	r6, #0
   1b8c0:	dc00      	bgt.n	1b8c4 <__aeabi_fsub+0xf0>
   1b8c2:	e085      	b.n	1b9d0 <__aeabi_fsub+0x1fc>
   1b8c4:	2800      	cmp	r0, #0
   1b8c6:	d046      	beq.n	1b956 <__aeabi_fsub+0x182>
   1b8c8:	2cff      	cmp	r4, #255	; 0xff
   1b8ca:	d049      	beq.n	1b960 <__aeabi_fsub+0x18c>
   1b8cc:	2280      	movs	r2, #128	; 0x80
   1b8ce:	4648      	mov	r0, r9
   1b8d0:	04d2      	lsls	r2, r2, #19
   1b8d2:	4310      	orrs	r0, r2
   1b8d4:	4681      	mov	r9, r0
   1b8d6:	2201      	movs	r2, #1
   1b8d8:	2e1b      	cmp	r6, #27
   1b8da:	dc09      	bgt.n	1b8f0 <__aeabi_fsub+0x11c>
   1b8dc:	2020      	movs	r0, #32
   1b8de:	464c      	mov	r4, r9
   1b8e0:	1b80      	subs	r0, r0, r6
   1b8e2:	4084      	lsls	r4, r0
   1b8e4:	464a      	mov	r2, r9
   1b8e6:	0020      	movs	r0, r4
   1b8e8:	40f2      	lsrs	r2, r6
   1b8ea:	1e44      	subs	r4, r0, #1
   1b8ec:	41a0      	sbcs	r0, r4
   1b8ee:	4302      	orrs	r2, r0
   1b8f0:	189b      	adds	r3, r3, r2
   1b8f2:	015a      	lsls	r2, r3, #5
   1b8f4:	d528      	bpl.n	1b948 <__aeabi_fsub+0x174>
   1b8f6:	3501      	adds	r5, #1
   1b8f8:	2dff      	cmp	r5, #255	; 0xff
   1b8fa:	d100      	bne.n	1b8fe <__aeabi_fsub+0x12a>
   1b8fc:	e0a8      	b.n	1ba50 <__aeabi_fsub+0x27c>
   1b8fe:	2201      	movs	r2, #1
   1b900:	2407      	movs	r4, #7
   1b902:	4994      	ldr	r1, [pc, #592]	; (1bb54 <__aeabi_fsub+0x380>)
   1b904:	401a      	ands	r2, r3
   1b906:	085b      	lsrs	r3, r3, #1
   1b908:	400b      	ands	r3, r1
   1b90a:	4313      	orrs	r3, r2
   1b90c:	401c      	ands	r4, r3
   1b90e:	e7a6      	b.n	1b85e <__aeabi_fsub+0x8a>
   1b910:	2e00      	cmp	r6, #0
   1b912:	d000      	beq.n	1b916 <__aeabi_fsub+0x142>
   1b914:	e778      	b.n	1b808 <__aeabi_fsub+0x34>
   1b916:	e775      	b.n	1b804 <__aeabi_fsub+0x30>
   1b918:	2cff      	cmp	r4, #255	; 0xff
   1b91a:	d054      	beq.n	1b9c6 <__aeabi_fsub+0x1f2>
   1b91c:	2280      	movs	r2, #128	; 0x80
   1b91e:	4649      	mov	r1, r9
   1b920:	04d2      	lsls	r2, r2, #19
   1b922:	4311      	orrs	r1, r2
   1b924:	4689      	mov	r9, r1
   1b926:	2201      	movs	r2, #1
   1b928:	2e1b      	cmp	r6, #27
   1b92a:	dc09      	bgt.n	1b940 <__aeabi_fsub+0x16c>
   1b92c:	2120      	movs	r1, #32
   1b92e:	4648      	mov	r0, r9
   1b930:	1b89      	subs	r1, r1, r6
   1b932:	4088      	lsls	r0, r1
   1b934:	464a      	mov	r2, r9
   1b936:	0001      	movs	r1, r0
   1b938:	40f2      	lsrs	r2, r6
   1b93a:	1e48      	subs	r0, r1, #1
   1b93c:	4181      	sbcs	r1, r0
   1b93e:	430a      	orrs	r2, r1
   1b940:	1a9b      	subs	r3, r3, r2
   1b942:	015a      	lsls	r2, r3, #5
   1b944:	d500      	bpl.n	1b948 <__aeabi_fsub+0x174>
   1b946:	e773      	b.n	1b830 <__aeabi_fsub+0x5c>
   1b948:	2201      	movs	r2, #1
   1b94a:	4641      	mov	r1, r8
   1b94c:	400a      	ands	r2, r1
   1b94e:	0759      	lsls	r1, r3, #29
   1b950:	d000      	beq.n	1b954 <__aeabi_fsub+0x180>
   1b952:	e789      	b.n	1b868 <__aeabi_fsub+0x94>
   1b954:	e011      	b.n	1b97a <__aeabi_fsub+0x1a6>
   1b956:	4648      	mov	r0, r9
   1b958:	2800      	cmp	r0, #0
   1b95a:	d158      	bne.n	1ba0e <__aeabi_fsub+0x23a>
   1b95c:	2cff      	cmp	r4, #255	; 0xff
   1b95e:	d10c      	bne.n	1b97a <__aeabi_fsub+0x1a6>
   1b960:	08db      	lsrs	r3, r3, #3
   1b962:	2b00      	cmp	r3, #0
   1b964:	d100      	bne.n	1b968 <__aeabi_fsub+0x194>
   1b966:	e78c      	b.n	1b882 <__aeabi_fsub+0xae>
   1b968:	2080      	movs	r0, #128	; 0x80
   1b96a:	03c0      	lsls	r0, r0, #15
   1b96c:	4303      	orrs	r3, r0
   1b96e:	025b      	lsls	r3, r3, #9
   1b970:	0a5b      	lsrs	r3, r3, #9
   1b972:	24ff      	movs	r4, #255	; 0xff
   1b974:	e787      	b.n	1b886 <__aeabi_fsub+0xb2>
   1b976:	2cff      	cmp	r4, #255	; 0xff
   1b978:	d025      	beq.n	1b9c6 <__aeabi_fsub+0x1f2>
   1b97a:	08db      	lsrs	r3, r3, #3
   1b97c:	2dff      	cmp	r5, #255	; 0xff
   1b97e:	d0f0      	beq.n	1b962 <__aeabi_fsub+0x18e>
   1b980:	025b      	lsls	r3, r3, #9
   1b982:	0a5b      	lsrs	r3, r3, #9
   1b984:	b2ec      	uxtb	r4, r5
   1b986:	e77e      	b.n	1b886 <__aeabi_fsub+0xb2>
   1b988:	2c00      	cmp	r4, #0
   1b98a:	d04d      	beq.n	1ba28 <__aeabi_fsub+0x254>
   1b98c:	28ff      	cmp	r0, #255	; 0xff
   1b98e:	d018      	beq.n	1b9c2 <__aeabi_fsub+0x1ee>
   1b990:	2480      	movs	r4, #128	; 0x80
   1b992:	04e4      	lsls	r4, r4, #19
   1b994:	4272      	negs	r2, r6
   1b996:	4323      	orrs	r3, r4
   1b998:	2a1b      	cmp	r2, #27
   1b99a:	dd00      	ble.n	1b99e <__aeabi_fsub+0x1ca>
   1b99c:	e0c4      	b.n	1bb28 <__aeabi_fsub+0x354>
   1b99e:	001c      	movs	r4, r3
   1b9a0:	2520      	movs	r5, #32
   1b9a2:	40d4      	lsrs	r4, r2
   1b9a4:	1aaa      	subs	r2, r5, r2
   1b9a6:	4093      	lsls	r3, r2
   1b9a8:	1e5a      	subs	r2, r3, #1
   1b9aa:	4193      	sbcs	r3, r2
   1b9ac:	4323      	orrs	r3, r4
   1b9ae:	464a      	mov	r2, r9
   1b9b0:	0005      	movs	r5, r0
   1b9b2:	1ad3      	subs	r3, r2, r3
   1b9b4:	4688      	mov	r8, r1
   1b9b6:	e738      	b.n	1b82a <__aeabi_fsub+0x56>
   1b9b8:	1c72      	adds	r2, r6, #1
   1b9ba:	d0f8      	beq.n	1b9ae <__aeabi_fsub+0x1da>
   1b9bc:	43f2      	mvns	r2, r6
   1b9be:	28ff      	cmp	r0, #255	; 0xff
   1b9c0:	d1ea      	bne.n	1b998 <__aeabi_fsub+0x1c4>
   1b9c2:	000a      	movs	r2, r1
   1b9c4:	464b      	mov	r3, r9
   1b9c6:	25ff      	movs	r5, #255	; 0xff
   1b9c8:	e7d7      	b.n	1b97a <__aeabi_fsub+0x1a6>
   1b9ca:	019b      	lsls	r3, r3, #6
   1b9cc:	0a5b      	lsrs	r3, r3, #9
   1b9ce:	e75a      	b.n	1b886 <__aeabi_fsub+0xb2>
   1b9d0:	2e00      	cmp	r6, #0
   1b9d2:	d141      	bne.n	1ba58 <__aeabi_fsub+0x284>
   1b9d4:	1c65      	adds	r5, r4, #1
   1b9d6:	b2e9      	uxtb	r1, r5
   1b9d8:	2901      	cmp	r1, #1
   1b9da:	dd45      	ble.n	1ba68 <__aeabi_fsub+0x294>
   1b9dc:	2dff      	cmp	r5, #255	; 0xff
   1b9de:	d100      	bne.n	1b9e2 <__aeabi_fsub+0x20e>
   1b9e0:	e74f      	b.n	1b882 <__aeabi_fsub+0xae>
   1b9e2:	2407      	movs	r4, #7
   1b9e4:	444b      	add	r3, r9
   1b9e6:	085b      	lsrs	r3, r3, #1
   1b9e8:	401c      	ands	r4, r3
   1b9ea:	e738      	b.n	1b85e <__aeabi_fsub+0x8a>
   1b9ec:	2207      	movs	r2, #7
   1b9ee:	4b5a      	ldr	r3, [pc, #360]	; (1bb58 <__aeabi_fsub+0x384>)
   1b9f0:	1a2d      	subs	r5, r5, r0
   1b9f2:	4023      	ands	r3, r4
   1b9f4:	4014      	ands	r4, r2
   1b9f6:	e732      	b.n	1b85e <__aeabi_fsub+0x8a>
   1b9f8:	2c00      	cmp	r4, #0
   1b9fa:	d11d      	bne.n	1ba38 <__aeabi_fsub+0x264>
   1b9fc:	2b00      	cmp	r3, #0
   1b9fe:	d17a      	bne.n	1baf6 <__aeabi_fsub+0x322>
   1ba00:	464b      	mov	r3, r9
   1ba02:	2b00      	cmp	r3, #0
   1ba04:	d100      	bne.n	1ba08 <__aeabi_fsub+0x234>
   1ba06:	e091      	b.n	1bb2c <__aeabi_fsub+0x358>
   1ba08:	000a      	movs	r2, r1
   1ba0a:	2500      	movs	r5, #0
   1ba0c:	e7b5      	b.n	1b97a <__aeabi_fsub+0x1a6>
   1ba0e:	3e01      	subs	r6, #1
   1ba10:	2e00      	cmp	r6, #0
   1ba12:	d119      	bne.n	1ba48 <__aeabi_fsub+0x274>
   1ba14:	444b      	add	r3, r9
   1ba16:	e76c      	b.n	1b8f2 <__aeabi_fsub+0x11e>
   1ba18:	2cff      	cmp	r4, #255	; 0xff
   1ba1a:	d184      	bne.n	1b926 <__aeabi_fsub+0x152>
   1ba1c:	25ff      	movs	r5, #255	; 0xff
   1ba1e:	e7ac      	b.n	1b97a <__aeabi_fsub+0x1a6>
   1ba20:	464a      	mov	r2, r9
   1ba22:	4688      	mov	r8, r1
   1ba24:	1ad4      	subs	r4, r2, r3
   1ba26:	e705      	b.n	1b834 <__aeabi_fsub+0x60>
   1ba28:	2b00      	cmp	r3, #0
   1ba2a:	d1c5      	bne.n	1b9b8 <__aeabi_fsub+0x1e4>
   1ba2c:	000a      	movs	r2, r1
   1ba2e:	28ff      	cmp	r0, #255	; 0xff
   1ba30:	d0c8      	beq.n	1b9c4 <__aeabi_fsub+0x1f0>
   1ba32:	0005      	movs	r5, r0
   1ba34:	464b      	mov	r3, r9
   1ba36:	e7a0      	b.n	1b97a <__aeabi_fsub+0x1a6>
   1ba38:	2b00      	cmp	r3, #0
   1ba3a:	d149      	bne.n	1bad0 <__aeabi_fsub+0x2fc>
   1ba3c:	464b      	mov	r3, r9
   1ba3e:	2b00      	cmp	r3, #0
   1ba40:	d077      	beq.n	1bb32 <__aeabi_fsub+0x35e>
   1ba42:	000a      	movs	r2, r1
   1ba44:	25ff      	movs	r5, #255	; 0xff
   1ba46:	e798      	b.n	1b97a <__aeabi_fsub+0x1a6>
   1ba48:	2cff      	cmp	r4, #255	; 0xff
   1ba4a:	d000      	beq.n	1ba4e <__aeabi_fsub+0x27a>
   1ba4c:	e743      	b.n	1b8d6 <__aeabi_fsub+0x102>
   1ba4e:	e787      	b.n	1b960 <__aeabi_fsub+0x18c>
   1ba50:	000a      	movs	r2, r1
   1ba52:	24ff      	movs	r4, #255	; 0xff
   1ba54:	2300      	movs	r3, #0
   1ba56:	e716      	b.n	1b886 <__aeabi_fsub+0xb2>
   1ba58:	2c00      	cmp	r4, #0
   1ba5a:	d115      	bne.n	1ba88 <__aeabi_fsub+0x2b4>
   1ba5c:	2b00      	cmp	r3, #0
   1ba5e:	d157      	bne.n	1bb10 <__aeabi_fsub+0x33c>
   1ba60:	28ff      	cmp	r0, #255	; 0xff
   1ba62:	d1e6      	bne.n	1ba32 <__aeabi_fsub+0x25e>
   1ba64:	464b      	mov	r3, r9
   1ba66:	e77b      	b.n	1b960 <__aeabi_fsub+0x18c>
   1ba68:	2c00      	cmp	r4, #0
   1ba6a:	d120      	bne.n	1baae <__aeabi_fsub+0x2da>
   1ba6c:	2b00      	cmp	r3, #0
   1ba6e:	d057      	beq.n	1bb20 <__aeabi_fsub+0x34c>
   1ba70:	4649      	mov	r1, r9
   1ba72:	2900      	cmp	r1, #0
   1ba74:	d053      	beq.n	1bb1e <__aeabi_fsub+0x34a>
   1ba76:	444b      	add	r3, r9
   1ba78:	015a      	lsls	r2, r3, #5
   1ba7a:	d568      	bpl.n	1bb4e <__aeabi_fsub+0x37a>
   1ba7c:	2407      	movs	r4, #7
   1ba7e:	4a36      	ldr	r2, [pc, #216]	; (1bb58 <__aeabi_fsub+0x384>)
   1ba80:	401c      	ands	r4, r3
   1ba82:	2501      	movs	r5, #1
   1ba84:	4013      	ands	r3, r2
   1ba86:	e6ea      	b.n	1b85e <__aeabi_fsub+0x8a>
   1ba88:	28ff      	cmp	r0, #255	; 0xff
   1ba8a:	d0eb      	beq.n	1ba64 <__aeabi_fsub+0x290>
   1ba8c:	2280      	movs	r2, #128	; 0x80
   1ba8e:	04d2      	lsls	r2, r2, #19
   1ba90:	4276      	negs	r6, r6
   1ba92:	4313      	orrs	r3, r2
   1ba94:	2e1b      	cmp	r6, #27
   1ba96:	dc53      	bgt.n	1bb40 <__aeabi_fsub+0x36c>
   1ba98:	2520      	movs	r5, #32
   1ba9a:	1bad      	subs	r5, r5, r6
   1ba9c:	001a      	movs	r2, r3
   1ba9e:	40ab      	lsls	r3, r5
   1baa0:	40f2      	lsrs	r2, r6
   1baa2:	1e5c      	subs	r4, r3, #1
   1baa4:	41a3      	sbcs	r3, r4
   1baa6:	4313      	orrs	r3, r2
   1baa8:	444b      	add	r3, r9
   1baaa:	0005      	movs	r5, r0
   1baac:	e721      	b.n	1b8f2 <__aeabi_fsub+0x11e>
   1baae:	2b00      	cmp	r3, #0
   1bab0:	d0d8      	beq.n	1ba64 <__aeabi_fsub+0x290>
   1bab2:	4649      	mov	r1, r9
   1bab4:	2900      	cmp	r1, #0
   1bab6:	d100      	bne.n	1baba <__aeabi_fsub+0x2e6>
   1bab8:	e752      	b.n	1b960 <__aeabi_fsub+0x18c>
   1baba:	2180      	movs	r1, #128	; 0x80
   1babc:	03c9      	lsls	r1, r1, #15
   1babe:	420f      	tst	r7, r1
   1bac0:	d100      	bne.n	1bac4 <__aeabi_fsub+0x2f0>
   1bac2:	e74d      	b.n	1b960 <__aeabi_fsub+0x18c>
   1bac4:	4660      	mov	r0, ip
   1bac6:	4208      	tst	r0, r1
   1bac8:	d000      	beq.n	1bacc <__aeabi_fsub+0x2f8>
   1baca:	e749      	b.n	1b960 <__aeabi_fsub+0x18c>
   1bacc:	464b      	mov	r3, r9
   1bace:	e747      	b.n	1b960 <__aeabi_fsub+0x18c>
   1bad0:	4648      	mov	r0, r9
   1bad2:	25ff      	movs	r5, #255	; 0xff
   1bad4:	2800      	cmp	r0, #0
   1bad6:	d100      	bne.n	1bada <__aeabi_fsub+0x306>
   1bad8:	e74f      	b.n	1b97a <__aeabi_fsub+0x1a6>
   1bada:	2280      	movs	r2, #128	; 0x80
   1badc:	03d2      	lsls	r2, r2, #15
   1bade:	4217      	tst	r7, r2
   1bae0:	d004      	beq.n	1baec <__aeabi_fsub+0x318>
   1bae2:	4660      	mov	r0, ip
   1bae4:	4210      	tst	r0, r2
   1bae6:	d101      	bne.n	1baec <__aeabi_fsub+0x318>
   1bae8:	464b      	mov	r3, r9
   1baea:	4688      	mov	r8, r1
   1baec:	2201      	movs	r2, #1
   1baee:	4641      	mov	r1, r8
   1baf0:	25ff      	movs	r5, #255	; 0xff
   1baf2:	400a      	ands	r2, r1
   1baf4:	e741      	b.n	1b97a <__aeabi_fsub+0x1a6>
   1baf6:	4648      	mov	r0, r9
   1baf8:	2800      	cmp	r0, #0
   1bafa:	d01f      	beq.n	1bb3c <__aeabi_fsub+0x368>
   1bafc:	1a1a      	subs	r2, r3, r0
   1bafe:	0150      	lsls	r0, r2, #5
   1bb00:	d520      	bpl.n	1bb44 <__aeabi_fsub+0x370>
   1bb02:	464a      	mov	r2, r9
   1bb04:	2407      	movs	r4, #7
   1bb06:	1ad3      	subs	r3, r2, r3
   1bb08:	401c      	ands	r4, r3
   1bb0a:	4688      	mov	r8, r1
   1bb0c:	2500      	movs	r5, #0
   1bb0e:	e6a6      	b.n	1b85e <__aeabi_fsub+0x8a>
   1bb10:	1c74      	adds	r4, r6, #1
   1bb12:	d0c9      	beq.n	1baa8 <__aeabi_fsub+0x2d4>
   1bb14:	43f6      	mvns	r6, r6
   1bb16:	28ff      	cmp	r0, #255	; 0xff
   1bb18:	d1bc      	bne.n	1ba94 <__aeabi_fsub+0x2c0>
   1bb1a:	464b      	mov	r3, r9
   1bb1c:	e720      	b.n	1b960 <__aeabi_fsub+0x18c>
   1bb1e:	4699      	mov	r9, r3
   1bb20:	464b      	mov	r3, r9
   1bb22:	2500      	movs	r5, #0
   1bb24:	08db      	lsrs	r3, r3, #3
   1bb26:	e72b      	b.n	1b980 <__aeabi_fsub+0x1ac>
   1bb28:	2301      	movs	r3, #1
   1bb2a:	e740      	b.n	1b9ae <__aeabi_fsub+0x1da>
   1bb2c:	2200      	movs	r2, #0
   1bb2e:	2300      	movs	r3, #0
   1bb30:	e6a9      	b.n	1b886 <__aeabi_fsub+0xb2>
   1bb32:	2380      	movs	r3, #128	; 0x80
   1bb34:	2200      	movs	r2, #0
   1bb36:	03db      	lsls	r3, r3, #15
   1bb38:	24ff      	movs	r4, #255	; 0xff
   1bb3a:	e6a4      	b.n	1b886 <__aeabi_fsub+0xb2>
   1bb3c:	2500      	movs	r5, #0
   1bb3e:	e71c      	b.n	1b97a <__aeabi_fsub+0x1a6>
   1bb40:	2301      	movs	r3, #1
   1bb42:	e7b1      	b.n	1baa8 <__aeabi_fsub+0x2d4>
   1bb44:	2a00      	cmp	r2, #0
   1bb46:	d0f1      	beq.n	1bb2c <__aeabi_fsub+0x358>
   1bb48:	0013      	movs	r3, r2
   1bb4a:	2500      	movs	r5, #0
   1bb4c:	e6fc      	b.n	1b948 <__aeabi_fsub+0x174>
   1bb4e:	2500      	movs	r5, #0
   1bb50:	e6fa      	b.n	1b948 <__aeabi_fsub+0x174>
   1bb52:	46c0      	nop			; (mov r8, r8)
   1bb54:	ffff 7dff 			; <UNDEFINED> instruction: 0xffff7dff
   1bb58:	ffff fbff 			; <UNDEFINED> instruction: 0xfffffbff

0001bb5c <__aeabi_f2iz>:
   1bb5c:	0241      	lsls	r1, r0, #9
   1bb5e:	0042      	lsls	r2, r0, #1
   1bb60:	0fc3      	lsrs	r3, r0, #31
   1bb62:	0a49      	lsrs	r1, r1, #9
   1bb64:	0e12      	lsrs	r2, r2, #24
   1bb66:	2000      	movs	r0, #0
   1bb68:	2a7e      	cmp	r2, #126	; 0x7e
   1bb6a:	d90d      	bls.n	1bb88 <__aeabi_f2iz+0x2c>
   1bb6c:	2a9d      	cmp	r2, #157	; 0x9d
   1bb6e:	d80c      	bhi.n	1bb8a <__aeabi_f2iz+0x2e>
   1bb70:	2080      	movs	r0, #128	; 0x80
   1bb72:	0400      	lsls	r0, r0, #16
   1bb74:	4301      	orrs	r1, r0
   1bb76:	2a95      	cmp	r2, #149	; 0x95
   1bb78:	dc0a      	bgt.n	1bb90 <__aeabi_f2iz+0x34>
   1bb7a:	2096      	movs	r0, #150	; 0x96
   1bb7c:	1a82      	subs	r2, r0, r2
   1bb7e:	40d1      	lsrs	r1, r2
   1bb80:	4248      	negs	r0, r1
   1bb82:	2b00      	cmp	r3, #0
   1bb84:	d100      	bne.n	1bb88 <__aeabi_f2iz+0x2c>
   1bb86:	0008      	movs	r0, r1
   1bb88:	4770      	bx	lr
   1bb8a:	4a03      	ldr	r2, [pc, #12]	; (1bb98 <__aeabi_f2iz+0x3c>)
   1bb8c:	1898      	adds	r0, r3, r2
   1bb8e:	e7fb      	b.n	1bb88 <__aeabi_f2iz+0x2c>
   1bb90:	3a96      	subs	r2, #150	; 0x96
   1bb92:	4091      	lsls	r1, r2
   1bb94:	e7f4      	b.n	1bb80 <__aeabi_f2iz+0x24>
   1bb96:	46c0      	nop			; (mov r8, r8)
   1bb98:	ffff 7fff 			; <UNDEFINED> instruction: 0xffff7fff

0001bb9c <__aeabi_i2f>:
   1bb9c:	b570      	push	{r4, r5, r6, lr}
   1bb9e:	2800      	cmp	r0, #0
   1bba0:	d03d      	beq.n	1bc1e <__aeabi_i2f+0x82>
   1bba2:	17c3      	asrs	r3, r0, #31
   1bba4:	18c5      	adds	r5, r0, r3
   1bba6:	405d      	eors	r5, r3
   1bba8:	0fc4      	lsrs	r4, r0, #31
   1bbaa:	0028      	movs	r0, r5
   1bbac:	f000 fcd0 	bl	1c550 <__clzsi2>
   1bbb0:	229e      	movs	r2, #158	; 0x9e
   1bbb2:	1a12      	subs	r2, r2, r0
   1bbb4:	2a96      	cmp	r2, #150	; 0x96
   1bbb6:	dc07      	bgt.n	1bbc8 <__aeabi_i2f+0x2c>
   1bbb8:	b2d2      	uxtb	r2, r2
   1bbba:	2808      	cmp	r0, #8
   1bbbc:	dd33      	ble.n	1bc26 <__aeabi_i2f+0x8a>
   1bbbe:	3808      	subs	r0, #8
   1bbc0:	4085      	lsls	r5, r0
   1bbc2:	0268      	lsls	r0, r5, #9
   1bbc4:	0a40      	lsrs	r0, r0, #9
   1bbc6:	e023      	b.n	1bc10 <__aeabi_i2f+0x74>
   1bbc8:	2a99      	cmp	r2, #153	; 0x99
   1bbca:	dd0b      	ble.n	1bbe4 <__aeabi_i2f+0x48>
   1bbcc:	2305      	movs	r3, #5
   1bbce:	0029      	movs	r1, r5
   1bbd0:	1a1b      	subs	r3, r3, r0
   1bbd2:	40d9      	lsrs	r1, r3
   1bbd4:	0003      	movs	r3, r0
   1bbd6:	331b      	adds	r3, #27
   1bbd8:	409d      	lsls	r5, r3
   1bbda:	002b      	movs	r3, r5
   1bbdc:	1e5d      	subs	r5, r3, #1
   1bbde:	41ab      	sbcs	r3, r5
   1bbe0:	4319      	orrs	r1, r3
   1bbe2:	000d      	movs	r5, r1
   1bbe4:	2805      	cmp	r0, #5
   1bbe6:	dd01      	ble.n	1bbec <__aeabi_i2f+0x50>
   1bbe8:	1f43      	subs	r3, r0, #5
   1bbea:	409d      	lsls	r5, r3
   1bbec:	002b      	movs	r3, r5
   1bbee:	490f      	ldr	r1, [pc, #60]	; (1bc2c <__aeabi_i2f+0x90>)
   1bbf0:	400b      	ands	r3, r1
   1bbf2:	076e      	lsls	r6, r5, #29
   1bbf4:	d009      	beq.n	1bc0a <__aeabi_i2f+0x6e>
   1bbf6:	260f      	movs	r6, #15
   1bbf8:	4035      	ands	r5, r6
   1bbfa:	2d04      	cmp	r5, #4
   1bbfc:	d005      	beq.n	1bc0a <__aeabi_i2f+0x6e>
   1bbfe:	3304      	adds	r3, #4
   1bc00:	015d      	lsls	r5, r3, #5
   1bc02:	d502      	bpl.n	1bc0a <__aeabi_i2f+0x6e>
   1bc04:	229f      	movs	r2, #159	; 0x9f
   1bc06:	400b      	ands	r3, r1
   1bc08:	1a12      	subs	r2, r2, r0
   1bc0a:	019b      	lsls	r3, r3, #6
   1bc0c:	0a58      	lsrs	r0, r3, #9
   1bc0e:	b2d2      	uxtb	r2, r2
   1bc10:	0240      	lsls	r0, r0, #9
   1bc12:	05d2      	lsls	r2, r2, #23
   1bc14:	0a40      	lsrs	r0, r0, #9
   1bc16:	07e4      	lsls	r4, r4, #31
   1bc18:	4310      	orrs	r0, r2
   1bc1a:	4320      	orrs	r0, r4
   1bc1c:	bd70      	pop	{r4, r5, r6, pc}
   1bc1e:	2400      	movs	r4, #0
   1bc20:	2200      	movs	r2, #0
   1bc22:	2000      	movs	r0, #0
   1bc24:	e7f4      	b.n	1bc10 <__aeabi_i2f+0x74>
   1bc26:	0268      	lsls	r0, r5, #9
   1bc28:	0a40      	lsrs	r0, r0, #9
   1bc2a:	e7f1      	b.n	1bc10 <__aeabi_i2f+0x74>
   1bc2c:	ffff fbff 			; <UNDEFINED> instruction: 0xfffffbff

0001bc30 <__aeabi_ui2f>:
   1bc30:	b570      	push	{r4, r5, r6, lr}
   1bc32:	1e04      	subs	r4, r0, #0
   1bc34:	d034      	beq.n	1bca0 <__aeabi_ui2f+0x70>
   1bc36:	f000 fc8b 	bl	1c550 <__clzsi2>
   1bc3a:	229e      	movs	r2, #158	; 0x9e
   1bc3c:	1a12      	subs	r2, r2, r0
   1bc3e:	2a96      	cmp	r2, #150	; 0x96
   1bc40:	dc07      	bgt.n	1bc52 <__aeabi_ui2f+0x22>
   1bc42:	b2d2      	uxtb	r2, r2
   1bc44:	2808      	cmp	r0, #8
   1bc46:	dd2e      	ble.n	1bca6 <__aeabi_ui2f+0x76>
   1bc48:	3808      	subs	r0, #8
   1bc4a:	4084      	lsls	r4, r0
   1bc4c:	0260      	lsls	r0, r4, #9
   1bc4e:	0a40      	lsrs	r0, r0, #9
   1bc50:	e021      	b.n	1bc96 <__aeabi_ui2f+0x66>
   1bc52:	2a99      	cmp	r2, #153	; 0x99
   1bc54:	dd09      	ble.n	1bc6a <__aeabi_ui2f+0x3a>
   1bc56:	0003      	movs	r3, r0
   1bc58:	0021      	movs	r1, r4
   1bc5a:	331b      	adds	r3, #27
   1bc5c:	4099      	lsls	r1, r3
   1bc5e:	1e4b      	subs	r3, r1, #1
   1bc60:	4199      	sbcs	r1, r3
   1bc62:	2305      	movs	r3, #5
   1bc64:	1a1b      	subs	r3, r3, r0
   1bc66:	40dc      	lsrs	r4, r3
   1bc68:	430c      	orrs	r4, r1
   1bc6a:	2805      	cmp	r0, #5
   1bc6c:	dd01      	ble.n	1bc72 <__aeabi_ui2f+0x42>
   1bc6e:	1f43      	subs	r3, r0, #5
   1bc70:	409c      	lsls	r4, r3
   1bc72:	0023      	movs	r3, r4
   1bc74:	490d      	ldr	r1, [pc, #52]	; (1bcac <__aeabi_ui2f+0x7c>)
   1bc76:	400b      	ands	r3, r1
   1bc78:	0765      	lsls	r5, r4, #29
   1bc7a:	d009      	beq.n	1bc90 <__aeabi_ui2f+0x60>
   1bc7c:	250f      	movs	r5, #15
   1bc7e:	402c      	ands	r4, r5
   1bc80:	2c04      	cmp	r4, #4
   1bc82:	d005      	beq.n	1bc90 <__aeabi_ui2f+0x60>
   1bc84:	3304      	adds	r3, #4
   1bc86:	015c      	lsls	r4, r3, #5
   1bc88:	d502      	bpl.n	1bc90 <__aeabi_ui2f+0x60>
   1bc8a:	229f      	movs	r2, #159	; 0x9f
   1bc8c:	400b      	ands	r3, r1
   1bc8e:	1a12      	subs	r2, r2, r0
   1bc90:	019b      	lsls	r3, r3, #6
   1bc92:	0a58      	lsrs	r0, r3, #9
   1bc94:	b2d2      	uxtb	r2, r2
   1bc96:	0240      	lsls	r0, r0, #9
   1bc98:	05d2      	lsls	r2, r2, #23
   1bc9a:	0a40      	lsrs	r0, r0, #9
   1bc9c:	4310      	orrs	r0, r2
   1bc9e:	bd70      	pop	{r4, r5, r6, pc}
   1bca0:	2200      	movs	r2, #0
   1bca2:	2000      	movs	r0, #0
   1bca4:	e7f7      	b.n	1bc96 <__aeabi_ui2f+0x66>
   1bca6:	0260      	lsls	r0, r4, #9
   1bca8:	0a40      	lsrs	r0, r0, #9
   1bcaa:	e7f4      	b.n	1bc96 <__aeabi_ui2f+0x66>
   1bcac:	ffff fbff 			; <UNDEFINED> instruction: 0xfffffbff

0001bcb0 <__eqdf2>:
   1bcb0:	b5f0      	push	{r4, r5, r6, r7, lr}
   1bcb2:	464f      	mov	r7, r9
   1bcb4:	4646      	mov	r6, r8
   1bcb6:	46d6      	mov	lr, sl
   1bcb8:	4684      	mov	ip, r0
   1bcba:	b5c0      	push	{r6, r7, lr}
   1bcbc:	4680      	mov	r8, r0
   1bcbe:	4e19      	ldr	r6, [pc, #100]	; (1bd24 <__eqdf2+0x74>)
   1bcc0:	0318      	lsls	r0, r3, #12
   1bcc2:	030f      	lsls	r7, r1, #12
   1bcc4:	004d      	lsls	r5, r1, #1
   1bcc6:	0b00      	lsrs	r0, r0, #12
   1bcc8:	005c      	lsls	r4, r3, #1
   1bcca:	4682      	mov	sl, r0
   1bccc:	0b3f      	lsrs	r7, r7, #12
   1bcce:	0d6d      	lsrs	r5, r5, #21
   1bcd0:	0fc9      	lsrs	r1, r1, #31
   1bcd2:	4691      	mov	r9, r2
   1bcd4:	0d64      	lsrs	r4, r4, #21
   1bcd6:	0fdb      	lsrs	r3, r3, #31
   1bcd8:	2001      	movs	r0, #1
   1bcda:	42b5      	cmp	r5, r6
   1bcdc:	d00a      	beq.n	1bcf4 <__eqdf2+0x44>
   1bcde:	42b4      	cmp	r4, r6
   1bce0:	d003      	beq.n	1bcea <__eqdf2+0x3a>
   1bce2:	42a5      	cmp	r5, r4
   1bce4:	d101      	bne.n	1bcea <__eqdf2+0x3a>
   1bce6:	4557      	cmp	r7, sl
   1bce8:	d00c      	beq.n	1bd04 <__eqdf2+0x54>
   1bcea:	bc1c      	pop	{r2, r3, r4}
   1bcec:	4690      	mov	r8, r2
   1bcee:	4699      	mov	r9, r3
   1bcf0:	46a2      	mov	sl, r4
   1bcf2:	bdf0      	pop	{r4, r5, r6, r7, pc}
   1bcf4:	4666      	mov	r6, ip
   1bcf6:	433e      	orrs	r6, r7
   1bcf8:	d1f7      	bne.n	1bcea <__eqdf2+0x3a>
   1bcfa:	42ac      	cmp	r4, r5
   1bcfc:	d1f5      	bne.n	1bcea <__eqdf2+0x3a>
   1bcfe:	4654      	mov	r4, sl
   1bd00:	4314      	orrs	r4, r2
   1bd02:	d1f2      	bne.n	1bcea <__eqdf2+0x3a>
   1bd04:	2001      	movs	r0, #1
   1bd06:	45c8      	cmp	r8, r9
   1bd08:	d1ef      	bne.n	1bcea <__eqdf2+0x3a>
   1bd0a:	4299      	cmp	r1, r3
   1bd0c:	d007      	beq.n	1bd1e <__eqdf2+0x6e>
   1bd0e:	2d00      	cmp	r5, #0
   1bd10:	d1eb      	bne.n	1bcea <__eqdf2+0x3a>
   1bd12:	4663      	mov	r3, ip
   1bd14:	431f      	orrs	r7, r3
   1bd16:	0038      	movs	r0, r7
   1bd18:	1e47      	subs	r7, r0, #1
   1bd1a:	41b8      	sbcs	r0, r7
   1bd1c:	e7e5      	b.n	1bcea <__eqdf2+0x3a>
   1bd1e:	2000      	movs	r0, #0
   1bd20:	e7e3      	b.n	1bcea <__eqdf2+0x3a>
   1bd22:	46c0      	nop			; (mov r8, r8)
   1bd24:	07ff      	lsls	r7, r7, #31
	...

0001bd28 <__gedf2>:
   1bd28:	b5f0      	push	{r4, r5, r6, r7, lr}
   1bd2a:	464f      	mov	r7, r9
   1bd2c:	4646      	mov	r6, r8
   1bd2e:	46d6      	mov	lr, sl
   1bd30:	004d      	lsls	r5, r1, #1
   1bd32:	b5c0      	push	{r6, r7, lr}
   1bd34:	030e      	lsls	r6, r1, #12
   1bd36:	0fc9      	lsrs	r1, r1, #31
   1bd38:	468a      	mov	sl, r1
   1bd3a:	492c      	ldr	r1, [pc, #176]	; (1bdec <__gedf2+0xc4>)
   1bd3c:	031f      	lsls	r7, r3, #12
   1bd3e:	005c      	lsls	r4, r3, #1
   1bd40:	4680      	mov	r8, r0
   1bd42:	0b36      	lsrs	r6, r6, #12
   1bd44:	0d6d      	lsrs	r5, r5, #21
   1bd46:	4691      	mov	r9, r2
   1bd48:	0b3f      	lsrs	r7, r7, #12
   1bd4a:	0d64      	lsrs	r4, r4, #21
   1bd4c:	0fdb      	lsrs	r3, r3, #31
   1bd4e:	428d      	cmp	r5, r1
   1bd50:	d01e      	beq.n	1bd90 <__gedf2+0x68>
   1bd52:	428c      	cmp	r4, r1
   1bd54:	d016      	beq.n	1bd84 <__gedf2+0x5c>
   1bd56:	2d00      	cmp	r5, #0
   1bd58:	d11e      	bne.n	1bd98 <__gedf2+0x70>
   1bd5a:	4330      	orrs	r0, r6
   1bd5c:	4684      	mov	ip, r0
   1bd5e:	2c00      	cmp	r4, #0
   1bd60:	d101      	bne.n	1bd66 <__gedf2+0x3e>
   1bd62:	433a      	orrs	r2, r7
   1bd64:	d023      	beq.n	1bdae <__gedf2+0x86>
   1bd66:	4662      	mov	r2, ip
   1bd68:	2a00      	cmp	r2, #0
   1bd6a:	d01a      	beq.n	1bda2 <__gedf2+0x7a>
   1bd6c:	459a      	cmp	sl, r3
   1bd6e:	d029      	beq.n	1bdc4 <__gedf2+0x9c>
   1bd70:	4651      	mov	r1, sl
   1bd72:	2002      	movs	r0, #2
   1bd74:	3901      	subs	r1, #1
   1bd76:	4008      	ands	r0, r1
   1bd78:	3801      	subs	r0, #1
   1bd7a:	bc1c      	pop	{r2, r3, r4}
   1bd7c:	4690      	mov	r8, r2
   1bd7e:	4699      	mov	r9, r3
   1bd80:	46a2      	mov	sl, r4
   1bd82:	bdf0      	pop	{r4, r5, r6, r7, pc}
   1bd84:	0039      	movs	r1, r7
   1bd86:	4311      	orrs	r1, r2
   1bd88:	d0e5      	beq.n	1bd56 <__gedf2+0x2e>
   1bd8a:	2002      	movs	r0, #2
   1bd8c:	4240      	negs	r0, r0
   1bd8e:	e7f4      	b.n	1bd7a <__gedf2+0x52>
   1bd90:	4330      	orrs	r0, r6
   1bd92:	d1fa      	bne.n	1bd8a <__gedf2+0x62>
   1bd94:	42ac      	cmp	r4, r5
   1bd96:	d00f      	beq.n	1bdb8 <__gedf2+0x90>
   1bd98:	2c00      	cmp	r4, #0
   1bd9a:	d10f      	bne.n	1bdbc <__gedf2+0x94>
   1bd9c:	433a      	orrs	r2, r7
   1bd9e:	d0e7      	beq.n	1bd70 <__gedf2+0x48>
   1bda0:	e00c      	b.n	1bdbc <__gedf2+0x94>
   1bda2:	2201      	movs	r2, #1
   1bda4:	3b01      	subs	r3, #1
   1bda6:	4393      	bics	r3, r2
   1bda8:	0018      	movs	r0, r3
   1bdaa:	3001      	adds	r0, #1
   1bdac:	e7e5      	b.n	1bd7a <__gedf2+0x52>
   1bdae:	4663      	mov	r3, ip
   1bdb0:	2000      	movs	r0, #0
   1bdb2:	2b00      	cmp	r3, #0
   1bdb4:	d0e1      	beq.n	1bd7a <__gedf2+0x52>
   1bdb6:	e7db      	b.n	1bd70 <__gedf2+0x48>
   1bdb8:	433a      	orrs	r2, r7
   1bdba:	d1e6      	bne.n	1bd8a <__gedf2+0x62>
   1bdbc:	459a      	cmp	sl, r3
   1bdbe:	d1d7      	bne.n	1bd70 <__gedf2+0x48>
   1bdc0:	42a5      	cmp	r5, r4
   1bdc2:	dcd5      	bgt.n	1bd70 <__gedf2+0x48>
   1bdc4:	42a5      	cmp	r5, r4
   1bdc6:	db05      	blt.n	1bdd4 <__gedf2+0xac>
   1bdc8:	42be      	cmp	r6, r7
   1bdca:	d8d1      	bhi.n	1bd70 <__gedf2+0x48>
   1bdcc:	d008      	beq.n	1bde0 <__gedf2+0xb8>
   1bdce:	2000      	movs	r0, #0
   1bdd0:	42be      	cmp	r6, r7
   1bdd2:	d2d2      	bcs.n	1bd7a <__gedf2+0x52>
   1bdd4:	4650      	mov	r0, sl
   1bdd6:	2301      	movs	r3, #1
   1bdd8:	3801      	subs	r0, #1
   1bdda:	4398      	bics	r0, r3
   1bddc:	3001      	adds	r0, #1
   1bdde:	e7cc      	b.n	1bd7a <__gedf2+0x52>
   1bde0:	45c8      	cmp	r8, r9
   1bde2:	d8c5      	bhi.n	1bd70 <__gedf2+0x48>
   1bde4:	2000      	movs	r0, #0
   1bde6:	45c8      	cmp	r8, r9
   1bde8:	d3f4      	bcc.n	1bdd4 <__gedf2+0xac>
   1bdea:	e7c6      	b.n	1bd7a <__gedf2+0x52>
   1bdec:	07ff      	lsls	r7, r7, #31
	...

0001bdf0 <__ledf2>:
   1bdf0:	b5f0      	push	{r4, r5, r6, r7, lr}
   1bdf2:	464f      	mov	r7, r9
   1bdf4:	4646      	mov	r6, r8
   1bdf6:	46d6      	mov	lr, sl
   1bdf8:	004d      	lsls	r5, r1, #1
   1bdfa:	b5c0      	push	{r6, r7, lr}
   1bdfc:	030e      	lsls	r6, r1, #12
   1bdfe:	0fc9      	lsrs	r1, r1, #31
   1be00:	468a      	mov	sl, r1
   1be02:	492e      	ldr	r1, [pc, #184]	; (1bebc <__ledf2+0xcc>)
   1be04:	031f      	lsls	r7, r3, #12
   1be06:	005c      	lsls	r4, r3, #1
   1be08:	4680      	mov	r8, r0
   1be0a:	0b36      	lsrs	r6, r6, #12
   1be0c:	0d6d      	lsrs	r5, r5, #21
   1be0e:	4691      	mov	r9, r2
   1be10:	0b3f      	lsrs	r7, r7, #12
   1be12:	0d64      	lsrs	r4, r4, #21
   1be14:	0fdb      	lsrs	r3, r3, #31
   1be16:	428d      	cmp	r5, r1
   1be18:	d018      	beq.n	1be4c <__ledf2+0x5c>
   1be1a:	428c      	cmp	r4, r1
   1be1c:	d011      	beq.n	1be42 <__ledf2+0x52>
   1be1e:	2d00      	cmp	r5, #0
   1be20:	d118      	bne.n	1be54 <__ledf2+0x64>
   1be22:	4330      	orrs	r0, r6
   1be24:	4684      	mov	ip, r0
   1be26:	2c00      	cmp	r4, #0
   1be28:	d11e      	bne.n	1be68 <__ledf2+0x78>
   1be2a:	433a      	orrs	r2, r7
   1be2c:	d11c      	bne.n	1be68 <__ledf2+0x78>
   1be2e:	4663      	mov	r3, ip
   1be30:	2000      	movs	r0, #0
   1be32:	2b00      	cmp	r3, #0
   1be34:	d030      	beq.n	1be98 <__ledf2+0xa8>
   1be36:	4651      	mov	r1, sl
   1be38:	2002      	movs	r0, #2
   1be3a:	3901      	subs	r1, #1
   1be3c:	4008      	ands	r0, r1
   1be3e:	3801      	subs	r0, #1
   1be40:	e02a      	b.n	1be98 <__ledf2+0xa8>
   1be42:	0039      	movs	r1, r7
   1be44:	4311      	orrs	r1, r2
   1be46:	d0ea      	beq.n	1be1e <__ledf2+0x2e>
   1be48:	2002      	movs	r0, #2
   1be4a:	e025      	b.n	1be98 <__ledf2+0xa8>
   1be4c:	4330      	orrs	r0, r6
   1be4e:	d1fb      	bne.n	1be48 <__ledf2+0x58>
   1be50:	42ac      	cmp	r4, r5
   1be52:	d026      	beq.n	1bea2 <__ledf2+0xb2>
   1be54:	2c00      	cmp	r4, #0
   1be56:	d126      	bne.n	1bea6 <__ledf2+0xb6>
   1be58:	433a      	orrs	r2, r7
   1be5a:	d124      	bne.n	1bea6 <__ledf2+0xb6>
   1be5c:	4651      	mov	r1, sl
   1be5e:	2002      	movs	r0, #2
   1be60:	3901      	subs	r1, #1
   1be62:	4008      	ands	r0, r1
   1be64:	3801      	subs	r0, #1
   1be66:	e017      	b.n	1be98 <__ledf2+0xa8>
   1be68:	4662      	mov	r2, ip
   1be6a:	2a00      	cmp	r2, #0
   1be6c:	d00f      	beq.n	1be8e <__ledf2+0x9e>
   1be6e:	459a      	cmp	sl, r3
   1be70:	d1e1      	bne.n	1be36 <__ledf2+0x46>
   1be72:	42a5      	cmp	r5, r4
   1be74:	db05      	blt.n	1be82 <__ledf2+0x92>
   1be76:	42be      	cmp	r6, r7
   1be78:	d8dd      	bhi.n	1be36 <__ledf2+0x46>
   1be7a:	d019      	beq.n	1beb0 <__ledf2+0xc0>
   1be7c:	2000      	movs	r0, #0
   1be7e:	42be      	cmp	r6, r7
   1be80:	d20a      	bcs.n	1be98 <__ledf2+0xa8>
   1be82:	4650      	mov	r0, sl
   1be84:	2301      	movs	r3, #1
   1be86:	3801      	subs	r0, #1
   1be88:	4398      	bics	r0, r3
   1be8a:	3001      	adds	r0, #1
   1be8c:	e004      	b.n	1be98 <__ledf2+0xa8>
   1be8e:	2201      	movs	r2, #1
   1be90:	3b01      	subs	r3, #1
   1be92:	4393      	bics	r3, r2
   1be94:	0018      	movs	r0, r3
   1be96:	3001      	adds	r0, #1
   1be98:	bc1c      	pop	{r2, r3, r4}
   1be9a:	4690      	mov	r8, r2
   1be9c:	4699      	mov	r9, r3
   1be9e:	46a2      	mov	sl, r4
   1bea0:	bdf0      	pop	{r4, r5, r6, r7, pc}
   1bea2:	433a      	orrs	r2, r7
   1bea4:	d1d0      	bne.n	1be48 <__ledf2+0x58>
   1bea6:	459a      	cmp	sl, r3
   1bea8:	d1c5      	bne.n	1be36 <__ledf2+0x46>
   1beaa:	42a5      	cmp	r5, r4
   1beac:	dcc3      	bgt.n	1be36 <__ledf2+0x46>
   1beae:	e7e0      	b.n	1be72 <__ledf2+0x82>
   1beb0:	45c8      	cmp	r8, r9
   1beb2:	d8c0      	bhi.n	1be36 <__ledf2+0x46>
   1beb4:	2000      	movs	r0, #0
   1beb6:	45c8      	cmp	r8, r9
   1beb8:	d3e3      	bcc.n	1be82 <__ledf2+0x92>
   1beba:	e7ed      	b.n	1be98 <__ledf2+0xa8>
   1bebc:	07ff      	lsls	r7, r7, #31
	...

0001bec0 <__aeabi_dmul>:
   1bec0:	b5f0      	push	{r4, r5, r6, r7, lr}
   1bec2:	4657      	mov	r7, sl
   1bec4:	46de      	mov	lr, fp
   1bec6:	464e      	mov	r6, r9
   1bec8:	4645      	mov	r5, r8
   1beca:	b5e0      	push	{r5, r6, r7, lr}
   1becc:	4683      	mov	fp, r0
   1bece:	0006      	movs	r6, r0
   1bed0:	030f      	lsls	r7, r1, #12
   1bed2:	0048      	lsls	r0, r1, #1
   1bed4:	b087      	sub	sp, #28
   1bed6:	4692      	mov	sl, r2
   1bed8:	001d      	movs	r5, r3
   1beda:	0b3f      	lsrs	r7, r7, #12
   1bedc:	0d40      	lsrs	r0, r0, #21
   1bede:	0fcc      	lsrs	r4, r1, #31
   1bee0:	2800      	cmp	r0, #0
   1bee2:	d100      	bne.n	1bee6 <__aeabi_dmul+0x26>
   1bee4:	e06f      	b.n	1bfc6 <__aeabi_dmul+0x106>
   1bee6:	4bde      	ldr	r3, [pc, #888]	; (1c260 <__aeabi_dmul+0x3a0>)
   1bee8:	4298      	cmp	r0, r3
   1beea:	d038      	beq.n	1bf5e <__aeabi_dmul+0x9e>
   1beec:	2380      	movs	r3, #128	; 0x80
   1beee:	00ff      	lsls	r7, r7, #3
   1bef0:	041b      	lsls	r3, r3, #16
   1bef2:	431f      	orrs	r7, r3
   1bef4:	0f73      	lsrs	r3, r6, #29
   1bef6:	433b      	orrs	r3, r7
   1bef8:	9301      	str	r3, [sp, #4]
   1befa:	4bda      	ldr	r3, [pc, #872]	; (1c264 <__aeabi_dmul+0x3a4>)
   1befc:	2700      	movs	r7, #0
   1befe:	4699      	mov	r9, r3
   1bf00:	2300      	movs	r3, #0
   1bf02:	469b      	mov	fp, r3
   1bf04:	00f6      	lsls	r6, r6, #3
   1bf06:	4481      	add	r9, r0
   1bf08:	032b      	lsls	r3, r5, #12
   1bf0a:	0069      	lsls	r1, r5, #1
   1bf0c:	0b1b      	lsrs	r3, r3, #12
   1bf0e:	4652      	mov	r2, sl
   1bf10:	4698      	mov	r8, r3
   1bf12:	0d49      	lsrs	r1, r1, #21
   1bf14:	0fed      	lsrs	r5, r5, #31
   1bf16:	2900      	cmp	r1, #0
   1bf18:	d100      	bne.n	1bf1c <__aeabi_dmul+0x5c>
   1bf1a:	e085      	b.n	1c028 <__aeabi_dmul+0x168>
   1bf1c:	4bd0      	ldr	r3, [pc, #832]	; (1c260 <__aeabi_dmul+0x3a0>)
   1bf1e:	4299      	cmp	r1, r3
   1bf20:	d100      	bne.n	1bf24 <__aeabi_dmul+0x64>
   1bf22:	e073      	b.n	1c00c <__aeabi_dmul+0x14c>
   1bf24:	4643      	mov	r3, r8
   1bf26:	00da      	lsls	r2, r3, #3
   1bf28:	2380      	movs	r3, #128	; 0x80
   1bf2a:	041b      	lsls	r3, r3, #16
   1bf2c:	4313      	orrs	r3, r2
   1bf2e:	4652      	mov	r2, sl
   1bf30:	48cc      	ldr	r0, [pc, #816]	; (1c264 <__aeabi_dmul+0x3a4>)
   1bf32:	0f52      	lsrs	r2, r2, #29
   1bf34:	4684      	mov	ip, r0
   1bf36:	4313      	orrs	r3, r2
   1bf38:	4652      	mov	r2, sl
   1bf3a:	2000      	movs	r0, #0
   1bf3c:	4461      	add	r1, ip
   1bf3e:	00d2      	lsls	r2, r2, #3
   1bf40:	4489      	add	r9, r1
   1bf42:	0021      	movs	r1, r4
   1bf44:	4069      	eors	r1, r5
   1bf46:	9100      	str	r1, [sp, #0]
   1bf48:	468c      	mov	ip, r1
   1bf4a:	2101      	movs	r1, #1
   1bf4c:	4449      	add	r1, r9
   1bf4e:	468a      	mov	sl, r1
   1bf50:	2f0f      	cmp	r7, #15
   1bf52:	d900      	bls.n	1bf56 <__aeabi_dmul+0x96>
   1bf54:	e090      	b.n	1c078 <__aeabi_dmul+0x1b8>
   1bf56:	49c4      	ldr	r1, [pc, #784]	; (1c268 <__aeabi_dmul+0x3a8>)
   1bf58:	00bf      	lsls	r7, r7, #2
   1bf5a:	59cf      	ldr	r7, [r1, r7]
   1bf5c:	46bf      	mov	pc, r7
   1bf5e:	465b      	mov	r3, fp
   1bf60:	433b      	orrs	r3, r7
   1bf62:	9301      	str	r3, [sp, #4]
   1bf64:	d000      	beq.n	1bf68 <__aeabi_dmul+0xa8>
   1bf66:	e16a      	b.n	1c23e <__aeabi_dmul+0x37e>
   1bf68:	2302      	movs	r3, #2
   1bf6a:	2708      	movs	r7, #8
   1bf6c:	2600      	movs	r6, #0
   1bf6e:	4681      	mov	r9, r0
   1bf70:	469b      	mov	fp, r3
   1bf72:	e7c9      	b.n	1bf08 <__aeabi_dmul+0x48>
   1bf74:	0032      	movs	r2, r6
   1bf76:	4658      	mov	r0, fp
   1bf78:	9b01      	ldr	r3, [sp, #4]
   1bf7a:	4661      	mov	r1, ip
   1bf7c:	9100      	str	r1, [sp, #0]
   1bf7e:	2802      	cmp	r0, #2
   1bf80:	d100      	bne.n	1bf84 <__aeabi_dmul+0xc4>
   1bf82:	e075      	b.n	1c070 <__aeabi_dmul+0x1b0>
   1bf84:	2803      	cmp	r0, #3
   1bf86:	d100      	bne.n	1bf8a <__aeabi_dmul+0xca>
   1bf88:	e1fe      	b.n	1c388 <__aeabi_dmul+0x4c8>
   1bf8a:	2801      	cmp	r0, #1
   1bf8c:	d000      	beq.n	1bf90 <__aeabi_dmul+0xd0>
   1bf8e:	e12c      	b.n	1c1ea <__aeabi_dmul+0x32a>
   1bf90:	2300      	movs	r3, #0
   1bf92:	2700      	movs	r7, #0
   1bf94:	2600      	movs	r6, #0
   1bf96:	2500      	movs	r5, #0
   1bf98:	033f      	lsls	r7, r7, #12
   1bf9a:	0d2a      	lsrs	r2, r5, #20
   1bf9c:	0b3f      	lsrs	r7, r7, #12
   1bf9e:	48b3      	ldr	r0, [pc, #716]	; (1c26c <__aeabi_dmul+0x3ac>)
   1bfa0:	0512      	lsls	r2, r2, #20
   1bfa2:	433a      	orrs	r2, r7
   1bfa4:	4002      	ands	r2, r0
   1bfa6:	051b      	lsls	r3, r3, #20
   1bfa8:	4313      	orrs	r3, r2
   1bfaa:	9a00      	ldr	r2, [sp, #0]
   1bfac:	005b      	lsls	r3, r3, #1
   1bfae:	07d1      	lsls	r1, r2, #31
   1bfb0:	085b      	lsrs	r3, r3, #1
   1bfb2:	430b      	orrs	r3, r1
   1bfb4:	0030      	movs	r0, r6
   1bfb6:	0019      	movs	r1, r3
   1bfb8:	b007      	add	sp, #28
   1bfba:	bc3c      	pop	{r2, r3, r4, r5}
   1bfbc:	4690      	mov	r8, r2
   1bfbe:	4699      	mov	r9, r3
   1bfc0:	46a2      	mov	sl, r4
   1bfc2:	46ab      	mov	fp, r5
   1bfc4:	bdf0      	pop	{r4, r5, r6, r7, pc}
   1bfc6:	465b      	mov	r3, fp
   1bfc8:	433b      	orrs	r3, r7
   1bfca:	9301      	str	r3, [sp, #4]
   1bfcc:	d100      	bne.n	1bfd0 <__aeabi_dmul+0x110>
   1bfce:	e12f      	b.n	1c230 <__aeabi_dmul+0x370>
   1bfd0:	2f00      	cmp	r7, #0
   1bfd2:	d100      	bne.n	1bfd6 <__aeabi_dmul+0x116>
   1bfd4:	e1a5      	b.n	1c322 <__aeabi_dmul+0x462>
   1bfd6:	0038      	movs	r0, r7
   1bfd8:	f000 faba 	bl	1c550 <__clzsi2>
   1bfdc:	0003      	movs	r3, r0
   1bfde:	3b0b      	subs	r3, #11
   1bfe0:	2b1c      	cmp	r3, #28
   1bfe2:	dd00      	ble.n	1bfe6 <__aeabi_dmul+0x126>
   1bfe4:	e196      	b.n	1c314 <__aeabi_dmul+0x454>
   1bfe6:	221d      	movs	r2, #29
   1bfe8:	1ad3      	subs	r3, r2, r3
   1bfea:	465a      	mov	r2, fp
   1bfec:	0001      	movs	r1, r0
   1bfee:	40da      	lsrs	r2, r3
   1bff0:	465e      	mov	r6, fp
   1bff2:	3908      	subs	r1, #8
   1bff4:	408f      	lsls	r7, r1
   1bff6:	0013      	movs	r3, r2
   1bff8:	408e      	lsls	r6, r1
   1bffa:	433b      	orrs	r3, r7
   1bffc:	9301      	str	r3, [sp, #4]
   1bffe:	4b9c      	ldr	r3, [pc, #624]	; (1c270 <__aeabi_dmul+0x3b0>)
   1c000:	2700      	movs	r7, #0
   1c002:	1a1b      	subs	r3, r3, r0
   1c004:	4699      	mov	r9, r3
   1c006:	2300      	movs	r3, #0
   1c008:	469b      	mov	fp, r3
   1c00a:	e77d      	b.n	1bf08 <__aeabi_dmul+0x48>
   1c00c:	4641      	mov	r1, r8
   1c00e:	4653      	mov	r3, sl
   1c010:	430b      	orrs	r3, r1
   1c012:	4993      	ldr	r1, [pc, #588]	; (1c260 <__aeabi_dmul+0x3a0>)
   1c014:	468c      	mov	ip, r1
   1c016:	44e1      	add	r9, ip
   1c018:	2b00      	cmp	r3, #0
   1c01a:	d000      	beq.n	1c01e <__aeabi_dmul+0x15e>
   1c01c:	e11a      	b.n	1c254 <__aeabi_dmul+0x394>
   1c01e:	2202      	movs	r2, #2
   1c020:	2002      	movs	r0, #2
   1c022:	4317      	orrs	r7, r2
   1c024:	2200      	movs	r2, #0
   1c026:	e78c      	b.n	1bf42 <__aeabi_dmul+0x82>
   1c028:	4313      	orrs	r3, r2
   1c02a:	d100      	bne.n	1c02e <__aeabi_dmul+0x16e>
   1c02c:	e10d      	b.n	1c24a <__aeabi_dmul+0x38a>
   1c02e:	4643      	mov	r3, r8
   1c030:	2b00      	cmp	r3, #0
   1c032:	d100      	bne.n	1c036 <__aeabi_dmul+0x176>
   1c034:	e181      	b.n	1c33a <__aeabi_dmul+0x47a>
   1c036:	4640      	mov	r0, r8
   1c038:	f000 fa8a 	bl	1c550 <__clzsi2>
   1c03c:	0002      	movs	r2, r0
   1c03e:	3a0b      	subs	r2, #11
   1c040:	2a1c      	cmp	r2, #28
   1c042:	dd00      	ble.n	1c046 <__aeabi_dmul+0x186>
   1c044:	e172      	b.n	1c32c <__aeabi_dmul+0x46c>
   1c046:	0001      	movs	r1, r0
   1c048:	4643      	mov	r3, r8
   1c04a:	3908      	subs	r1, #8
   1c04c:	408b      	lsls	r3, r1
   1c04e:	4698      	mov	r8, r3
   1c050:	231d      	movs	r3, #29
   1c052:	1a9a      	subs	r2, r3, r2
   1c054:	4653      	mov	r3, sl
   1c056:	40d3      	lsrs	r3, r2
   1c058:	001a      	movs	r2, r3
   1c05a:	4643      	mov	r3, r8
   1c05c:	4313      	orrs	r3, r2
   1c05e:	4652      	mov	r2, sl
   1c060:	408a      	lsls	r2, r1
   1c062:	4649      	mov	r1, r9
   1c064:	1a08      	subs	r0, r1, r0
   1c066:	4982      	ldr	r1, [pc, #520]	; (1c270 <__aeabi_dmul+0x3b0>)
   1c068:	4689      	mov	r9, r1
   1c06a:	4481      	add	r9, r0
   1c06c:	2000      	movs	r0, #0
   1c06e:	e768      	b.n	1bf42 <__aeabi_dmul+0x82>
   1c070:	4b7b      	ldr	r3, [pc, #492]	; (1c260 <__aeabi_dmul+0x3a0>)
   1c072:	2700      	movs	r7, #0
   1c074:	2600      	movs	r6, #0
   1c076:	e78e      	b.n	1bf96 <__aeabi_dmul+0xd6>
   1c078:	0c14      	lsrs	r4, r2, #16
   1c07a:	0412      	lsls	r2, r2, #16
   1c07c:	0c12      	lsrs	r2, r2, #16
   1c07e:	0011      	movs	r1, r2
   1c080:	0c37      	lsrs	r7, r6, #16
   1c082:	0436      	lsls	r6, r6, #16
   1c084:	0c35      	lsrs	r5, r6, #16
   1c086:	4379      	muls	r1, r7
   1c088:	0028      	movs	r0, r5
   1c08a:	468c      	mov	ip, r1
   1c08c:	002e      	movs	r6, r5
   1c08e:	4360      	muls	r0, r4
   1c090:	4460      	add	r0, ip
   1c092:	4683      	mov	fp, r0
   1c094:	4356      	muls	r6, r2
   1c096:	0021      	movs	r1, r4
   1c098:	0c30      	lsrs	r0, r6, #16
   1c09a:	4680      	mov	r8, r0
   1c09c:	4658      	mov	r0, fp
   1c09e:	4379      	muls	r1, r7
   1c0a0:	4440      	add	r0, r8
   1c0a2:	9102      	str	r1, [sp, #8]
   1c0a4:	4584      	cmp	ip, r0
   1c0a6:	d906      	bls.n	1c0b6 <__aeabi_dmul+0x1f6>
   1c0a8:	4688      	mov	r8, r1
   1c0aa:	2180      	movs	r1, #128	; 0x80
   1c0ac:	0249      	lsls	r1, r1, #9
   1c0ae:	468c      	mov	ip, r1
   1c0b0:	44e0      	add	r8, ip
   1c0b2:	4641      	mov	r1, r8
   1c0b4:	9102      	str	r1, [sp, #8]
   1c0b6:	0436      	lsls	r6, r6, #16
   1c0b8:	0c01      	lsrs	r1, r0, #16
   1c0ba:	0c36      	lsrs	r6, r6, #16
   1c0bc:	0400      	lsls	r0, r0, #16
   1c0be:	468b      	mov	fp, r1
   1c0c0:	1981      	adds	r1, r0, r6
   1c0c2:	0c1e      	lsrs	r6, r3, #16
   1c0c4:	041b      	lsls	r3, r3, #16
   1c0c6:	0c1b      	lsrs	r3, r3, #16
   1c0c8:	9103      	str	r1, [sp, #12]
   1c0ca:	0019      	movs	r1, r3
   1c0cc:	4379      	muls	r1, r7
   1c0ce:	468c      	mov	ip, r1
   1c0d0:	0028      	movs	r0, r5
   1c0d2:	4375      	muls	r5, r6
   1c0d4:	4465      	add	r5, ip
   1c0d6:	46a8      	mov	r8, r5
   1c0d8:	4358      	muls	r0, r3
   1c0da:	0c05      	lsrs	r5, r0, #16
   1c0dc:	4445      	add	r5, r8
   1c0de:	4377      	muls	r7, r6
   1c0e0:	42a9      	cmp	r1, r5
   1c0e2:	d903      	bls.n	1c0ec <__aeabi_dmul+0x22c>
   1c0e4:	2180      	movs	r1, #128	; 0x80
   1c0e6:	0249      	lsls	r1, r1, #9
   1c0e8:	468c      	mov	ip, r1
   1c0ea:	4467      	add	r7, ip
   1c0ec:	0c29      	lsrs	r1, r5, #16
   1c0ee:	468c      	mov	ip, r1
   1c0f0:	0039      	movs	r1, r7
   1c0f2:	0400      	lsls	r0, r0, #16
   1c0f4:	0c00      	lsrs	r0, r0, #16
   1c0f6:	042d      	lsls	r5, r5, #16
   1c0f8:	182d      	adds	r5, r5, r0
   1c0fa:	4461      	add	r1, ip
   1c0fc:	44ab      	add	fp, r5
   1c0fe:	9105      	str	r1, [sp, #20]
   1c100:	4659      	mov	r1, fp
   1c102:	9104      	str	r1, [sp, #16]
   1c104:	9901      	ldr	r1, [sp, #4]
   1c106:	040f      	lsls	r7, r1, #16
   1c108:	0c3f      	lsrs	r7, r7, #16
   1c10a:	0c08      	lsrs	r0, r1, #16
   1c10c:	0039      	movs	r1, r7
   1c10e:	4351      	muls	r1, r2
   1c110:	4342      	muls	r2, r0
   1c112:	4690      	mov	r8, r2
   1c114:	0002      	movs	r2, r0
   1c116:	468c      	mov	ip, r1
   1c118:	0c09      	lsrs	r1, r1, #16
   1c11a:	468b      	mov	fp, r1
   1c11c:	4362      	muls	r2, r4
   1c11e:	437c      	muls	r4, r7
   1c120:	4444      	add	r4, r8
   1c122:	445c      	add	r4, fp
   1c124:	45a0      	cmp	r8, r4
   1c126:	d903      	bls.n	1c130 <__aeabi_dmul+0x270>
   1c128:	2180      	movs	r1, #128	; 0x80
   1c12a:	0249      	lsls	r1, r1, #9
   1c12c:	4688      	mov	r8, r1
   1c12e:	4442      	add	r2, r8
   1c130:	0c21      	lsrs	r1, r4, #16
   1c132:	4688      	mov	r8, r1
   1c134:	4661      	mov	r1, ip
   1c136:	0409      	lsls	r1, r1, #16
   1c138:	0c09      	lsrs	r1, r1, #16
   1c13a:	468c      	mov	ip, r1
   1c13c:	0039      	movs	r1, r7
   1c13e:	4359      	muls	r1, r3
   1c140:	4343      	muls	r3, r0
   1c142:	4370      	muls	r0, r6
   1c144:	437e      	muls	r6, r7
   1c146:	0c0f      	lsrs	r7, r1, #16
   1c148:	18f6      	adds	r6, r6, r3
   1c14a:	0424      	lsls	r4, r4, #16
   1c14c:	19be      	adds	r6, r7, r6
   1c14e:	4464      	add	r4, ip
   1c150:	4442      	add	r2, r8
   1c152:	468c      	mov	ip, r1
   1c154:	42b3      	cmp	r3, r6
   1c156:	d903      	bls.n	1c160 <__aeabi_dmul+0x2a0>
   1c158:	2380      	movs	r3, #128	; 0x80
   1c15a:	025b      	lsls	r3, r3, #9
   1c15c:	4698      	mov	r8, r3
   1c15e:	4440      	add	r0, r8
   1c160:	9b02      	ldr	r3, [sp, #8]
   1c162:	4661      	mov	r1, ip
   1c164:	4698      	mov	r8, r3
   1c166:	9b04      	ldr	r3, [sp, #16]
   1c168:	0437      	lsls	r7, r6, #16
   1c16a:	4443      	add	r3, r8
   1c16c:	469b      	mov	fp, r3
   1c16e:	45ab      	cmp	fp, r5
   1c170:	41ad      	sbcs	r5, r5
   1c172:	426b      	negs	r3, r5
   1c174:	040d      	lsls	r5, r1, #16
   1c176:	9905      	ldr	r1, [sp, #20]
   1c178:	0c2d      	lsrs	r5, r5, #16
   1c17a:	468c      	mov	ip, r1
   1c17c:	197f      	adds	r7, r7, r5
   1c17e:	4467      	add	r7, ip
   1c180:	18fd      	adds	r5, r7, r3
   1c182:	46a8      	mov	r8, r5
   1c184:	465d      	mov	r5, fp
   1c186:	192d      	adds	r5, r5, r4
   1c188:	42a5      	cmp	r5, r4
   1c18a:	41a4      	sbcs	r4, r4
   1c18c:	4693      	mov	fp, r2
   1c18e:	4264      	negs	r4, r4
   1c190:	46a4      	mov	ip, r4
   1c192:	44c3      	add	fp, r8
   1c194:	44dc      	add	ip, fp
   1c196:	428f      	cmp	r7, r1
   1c198:	41bf      	sbcs	r7, r7
   1c19a:	4598      	cmp	r8, r3
   1c19c:	419b      	sbcs	r3, r3
   1c19e:	4593      	cmp	fp, r2
   1c1a0:	4192      	sbcs	r2, r2
   1c1a2:	45a4      	cmp	ip, r4
   1c1a4:	41a4      	sbcs	r4, r4
   1c1a6:	425b      	negs	r3, r3
   1c1a8:	427f      	negs	r7, r7
   1c1aa:	431f      	orrs	r7, r3
   1c1ac:	0c36      	lsrs	r6, r6, #16
   1c1ae:	4252      	negs	r2, r2
   1c1b0:	4264      	negs	r4, r4
   1c1b2:	19bf      	adds	r7, r7, r6
   1c1b4:	4322      	orrs	r2, r4
   1c1b6:	18bf      	adds	r7, r7, r2
   1c1b8:	4662      	mov	r2, ip
   1c1ba:	1838      	adds	r0, r7, r0
   1c1bc:	0243      	lsls	r3, r0, #9
   1c1be:	0dd2      	lsrs	r2, r2, #23
   1c1c0:	9903      	ldr	r1, [sp, #12]
   1c1c2:	4313      	orrs	r3, r2
   1c1c4:	026a      	lsls	r2, r5, #9
   1c1c6:	430a      	orrs	r2, r1
   1c1c8:	1e50      	subs	r0, r2, #1
   1c1ca:	4182      	sbcs	r2, r0
   1c1cc:	4661      	mov	r1, ip
   1c1ce:	0ded      	lsrs	r5, r5, #23
   1c1d0:	432a      	orrs	r2, r5
   1c1d2:	024e      	lsls	r6, r1, #9
   1c1d4:	4332      	orrs	r2, r6
   1c1d6:	01d9      	lsls	r1, r3, #7
   1c1d8:	d400      	bmi.n	1c1dc <__aeabi_dmul+0x31c>
   1c1da:	e0b3      	b.n	1c344 <__aeabi_dmul+0x484>
   1c1dc:	2601      	movs	r6, #1
   1c1de:	0850      	lsrs	r0, r2, #1
   1c1e0:	4032      	ands	r2, r6
   1c1e2:	4302      	orrs	r2, r0
   1c1e4:	07de      	lsls	r6, r3, #31
   1c1e6:	4332      	orrs	r2, r6
   1c1e8:	085b      	lsrs	r3, r3, #1
   1c1ea:	4c22      	ldr	r4, [pc, #136]	; (1c274 <__aeabi_dmul+0x3b4>)
   1c1ec:	4454      	add	r4, sl
   1c1ee:	2c00      	cmp	r4, #0
   1c1f0:	dd62      	ble.n	1c2b8 <__aeabi_dmul+0x3f8>
   1c1f2:	0751      	lsls	r1, r2, #29
   1c1f4:	d009      	beq.n	1c20a <__aeabi_dmul+0x34a>
   1c1f6:	200f      	movs	r0, #15
   1c1f8:	4010      	ands	r0, r2
   1c1fa:	2804      	cmp	r0, #4
   1c1fc:	d005      	beq.n	1c20a <__aeabi_dmul+0x34a>
   1c1fe:	1d10      	adds	r0, r2, #4
   1c200:	4290      	cmp	r0, r2
   1c202:	4192      	sbcs	r2, r2
   1c204:	4252      	negs	r2, r2
   1c206:	189b      	adds	r3, r3, r2
   1c208:	0002      	movs	r2, r0
   1c20a:	01d9      	lsls	r1, r3, #7
   1c20c:	d504      	bpl.n	1c218 <__aeabi_dmul+0x358>
   1c20e:	2480      	movs	r4, #128	; 0x80
   1c210:	4819      	ldr	r0, [pc, #100]	; (1c278 <__aeabi_dmul+0x3b8>)
   1c212:	00e4      	lsls	r4, r4, #3
   1c214:	4003      	ands	r3, r0
   1c216:	4454      	add	r4, sl
   1c218:	4818      	ldr	r0, [pc, #96]	; (1c27c <__aeabi_dmul+0x3bc>)
   1c21a:	4284      	cmp	r4, r0
   1c21c:	dd00      	ble.n	1c220 <__aeabi_dmul+0x360>
   1c21e:	e727      	b.n	1c070 <__aeabi_dmul+0x1b0>
   1c220:	075e      	lsls	r6, r3, #29
   1c222:	025b      	lsls	r3, r3, #9
   1c224:	08d2      	lsrs	r2, r2, #3
   1c226:	0b1f      	lsrs	r7, r3, #12
   1c228:	0563      	lsls	r3, r4, #21
   1c22a:	4316      	orrs	r6, r2
   1c22c:	0d5b      	lsrs	r3, r3, #21
   1c22e:	e6b2      	b.n	1bf96 <__aeabi_dmul+0xd6>
   1c230:	2300      	movs	r3, #0
   1c232:	4699      	mov	r9, r3
   1c234:	3301      	adds	r3, #1
   1c236:	2704      	movs	r7, #4
   1c238:	2600      	movs	r6, #0
   1c23a:	469b      	mov	fp, r3
   1c23c:	e664      	b.n	1bf08 <__aeabi_dmul+0x48>
   1c23e:	2303      	movs	r3, #3
   1c240:	9701      	str	r7, [sp, #4]
   1c242:	4681      	mov	r9, r0
   1c244:	270c      	movs	r7, #12
   1c246:	469b      	mov	fp, r3
   1c248:	e65e      	b.n	1bf08 <__aeabi_dmul+0x48>
   1c24a:	2201      	movs	r2, #1
   1c24c:	2001      	movs	r0, #1
   1c24e:	4317      	orrs	r7, r2
   1c250:	2200      	movs	r2, #0
   1c252:	e676      	b.n	1bf42 <__aeabi_dmul+0x82>
   1c254:	2303      	movs	r3, #3
   1c256:	2003      	movs	r0, #3
   1c258:	431f      	orrs	r7, r3
   1c25a:	4643      	mov	r3, r8
   1c25c:	e671      	b.n	1bf42 <__aeabi_dmul+0x82>
   1c25e:	46c0      	nop			; (mov r8, r8)
   1c260:	07ff      	lsls	r7, r7, #31
   1c262:	0000      	movs	r0, r0
   1c264:	fc01 ffff 	stc2	15, cr15, [r1], {255}	; 0xff
   1c268:	f384 0001 	usat	r0, #1, r4
   1c26c:	ffff 800f 	vaddl.u<illegal width 64>	q12, d15, d15
   1c270:	fc0d ffff 	stc2	15, cr15, [sp], {255}	; 0xff
   1c274:	03ff      	lsls	r7, r7, #15
   1c276:	0000      	movs	r0, r0
   1c278:	ffff feff 			; <UNDEFINED> instruction: 0xfffffeff
   1c27c:	07fe      	lsls	r6, r7, #31
   1c27e:	0000      	movs	r0, r0
   1c280:	2300      	movs	r3, #0
   1c282:	2780      	movs	r7, #128	; 0x80
   1c284:	9300      	str	r3, [sp, #0]
   1c286:	033f      	lsls	r7, r7, #12
   1c288:	2600      	movs	r6, #0
   1c28a:	4b43      	ldr	r3, [pc, #268]	; (1c398 <__aeabi_dmul+0x4d8>)
   1c28c:	e683      	b.n	1bf96 <__aeabi_dmul+0xd6>
   1c28e:	9b01      	ldr	r3, [sp, #4]
   1c290:	0032      	movs	r2, r6
   1c292:	46a4      	mov	ip, r4
   1c294:	4658      	mov	r0, fp
   1c296:	e670      	b.n	1bf7a <__aeabi_dmul+0xba>
   1c298:	46ac      	mov	ip, r5
   1c29a:	e66e      	b.n	1bf7a <__aeabi_dmul+0xba>
   1c29c:	2780      	movs	r7, #128	; 0x80
   1c29e:	9901      	ldr	r1, [sp, #4]
   1c2a0:	033f      	lsls	r7, r7, #12
   1c2a2:	4239      	tst	r1, r7
   1c2a4:	d02d      	beq.n	1c302 <__aeabi_dmul+0x442>
   1c2a6:	423b      	tst	r3, r7
   1c2a8:	d12b      	bne.n	1c302 <__aeabi_dmul+0x442>
   1c2aa:	431f      	orrs	r7, r3
   1c2ac:	033f      	lsls	r7, r7, #12
   1c2ae:	0b3f      	lsrs	r7, r7, #12
   1c2b0:	9500      	str	r5, [sp, #0]
   1c2b2:	0016      	movs	r6, r2
   1c2b4:	4b38      	ldr	r3, [pc, #224]	; (1c398 <__aeabi_dmul+0x4d8>)
   1c2b6:	e66e      	b.n	1bf96 <__aeabi_dmul+0xd6>
   1c2b8:	2501      	movs	r5, #1
   1c2ba:	1b2d      	subs	r5, r5, r4
   1c2bc:	2d38      	cmp	r5, #56	; 0x38
   1c2be:	dd00      	ble.n	1c2c2 <__aeabi_dmul+0x402>
   1c2c0:	e666      	b.n	1bf90 <__aeabi_dmul+0xd0>
   1c2c2:	2d1f      	cmp	r5, #31
   1c2c4:	dc40      	bgt.n	1c348 <__aeabi_dmul+0x488>
   1c2c6:	4835      	ldr	r0, [pc, #212]	; (1c39c <__aeabi_dmul+0x4dc>)
   1c2c8:	001c      	movs	r4, r3
   1c2ca:	4450      	add	r0, sl
   1c2cc:	0016      	movs	r6, r2
   1c2ce:	4082      	lsls	r2, r0
   1c2d0:	4084      	lsls	r4, r0
   1c2d2:	40ee      	lsrs	r6, r5
   1c2d4:	1e50      	subs	r0, r2, #1
   1c2d6:	4182      	sbcs	r2, r0
   1c2d8:	4334      	orrs	r4, r6
   1c2da:	4314      	orrs	r4, r2
   1c2dc:	40eb      	lsrs	r3, r5
   1c2de:	0762      	lsls	r2, r4, #29
   1c2e0:	d009      	beq.n	1c2f6 <__aeabi_dmul+0x436>
   1c2e2:	220f      	movs	r2, #15
   1c2e4:	4022      	ands	r2, r4
   1c2e6:	2a04      	cmp	r2, #4
   1c2e8:	d005      	beq.n	1c2f6 <__aeabi_dmul+0x436>
   1c2ea:	0022      	movs	r2, r4
   1c2ec:	1d14      	adds	r4, r2, #4
   1c2ee:	4294      	cmp	r4, r2
   1c2f0:	4180      	sbcs	r0, r0
   1c2f2:	4240      	negs	r0, r0
   1c2f4:	181b      	adds	r3, r3, r0
   1c2f6:	021a      	lsls	r2, r3, #8
   1c2f8:	d53e      	bpl.n	1c378 <__aeabi_dmul+0x4b8>
   1c2fa:	2301      	movs	r3, #1
   1c2fc:	2700      	movs	r7, #0
   1c2fe:	2600      	movs	r6, #0
   1c300:	e649      	b.n	1bf96 <__aeabi_dmul+0xd6>
   1c302:	2780      	movs	r7, #128	; 0x80
   1c304:	9b01      	ldr	r3, [sp, #4]
   1c306:	033f      	lsls	r7, r7, #12
   1c308:	431f      	orrs	r7, r3
   1c30a:	033f      	lsls	r7, r7, #12
   1c30c:	0b3f      	lsrs	r7, r7, #12
   1c30e:	9400      	str	r4, [sp, #0]
   1c310:	4b21      	ldr	r3, [pc, #132]	; (1c398 <__aeabi_dmul+0x4d8>)
   1c312:	e640      	b.n	1bf96 <__aeabi_dmul+0xd6>
   1c314:	0003      	movs	r3, r0
   1c316:	465a      	mov	r2, fp
   1c318:	3b28      	subs	r3, #40	; 0x28
   1c31a:	409a      	lsls	r2, r3
   1c31c:	2600      	movs	r6, #0
   1c31e:	9201      	str	r2, [sp, #4]
   1c320:	e66d      	b.n	1bffe <__aeabi_dmul+0x13e>
   1c322:	4658      	mov	r0, fp
   1c324:	f000 f914 	bl	1c550 <__clzsi2>
   1c328:	3020      	adds	r0, #32
   1c32a:	e657      	b.n	1bfdc <__aeabi_dmul+0x11c>
   1c32c:	0003      	movs	r3, r0
   1c32e:	4652      	mov	r2, sl
   1c330:	3b28      	subs	r3, #40	; 0x28
   1c332:	409a      	lsls	r2, r3
   1c334:	0013      	movs	r3, r2
   1c336:	2200      	movs	r2, #0
   1c338:	e693      	b.n	1c062 <__aeabi_dmul+0x1a2>
   1c33a:	4650      	mov	r0, sl
   1c33c:	f000 f908 	bl	1c550 <__clzsi2>
   1c340:	3020      	adds	r0, #32
   1c342:	e67b      	b.n	1c03c <__aeabi_dmul+0x17c>
   1c344:	46ca      	mov	sl, r9
   1c346:	e750      	b.n	1c1ea <__aeabi_dmul+0x32a>
   1c348:	201f      	movs	r0, #31
   1c34a:	001e      	movs	r6, r3
   1c34c:	4240      	negs	r0, r0
   1c34e:	1b04      	subs	r4, r0, r4
   1c350:	40e6      	lsrs	r6, r4
   1c352:	2d20      	cmp	r5, #32
   1c354:	d003      	beq.n	1c35e <__aeabi_dmul+0x49e>
   1c356:	4c12      	ldr	r4, [pc, #72]	; (1c3a0 <__aeabi_dmul+0x4e0>)
   1c358:	4454      	add	r4, sl
   1c35a:	40a3      	lsls	r3, r4
   1c35c:	431a      	orrs	r2, r3
   1c35e:	1e50      	subs	r0, r2, #1
   1c360:	4182      	sbcs	r2, r0
   1c362:	4332      	orrs	r2, r6
   1c364:	2607      	movs	r6, #7
   1c366:	2700      	movs	r7, #0
   1c368:	4016      	ands	r6, r2
   1c36a:	d009      	beq.n	1c380 <__aeabi_dmul+0x4c0>
   1c36c:	200f      	movs	r0, #15
   1c36e:	2300      	movs	r3, #0
   1c370:	4010      	ands	r0, r2
   1c372:	0014      	movs	r4, r2
   1c374:	2804      	cmp	r0, #4
   1c376:	d1b9      	bne.n	1c2ec <__aeabi_dmul+0x42c>
   1c378:	0022      	movs	r2, r4
   1c37a:	075e      	lsls	r6, r3, #29
   1c37c:	025b      	lsls	r3, r3, #9
   1c37e:	0b1f      	lsrs	r7, r3, #12
   1c380:	08d2      	lsrs	r2, r2, #3
   1c382:	4316      	orrs	r6, r2
   1c384:	2300      	movs	r3, #0
   1c386:	e606      	b.n	1bf96 <__aeabi_dmul+0xd6>
   1c388:	2780      	movs	r7, #128	; 0x80
   1c38a:	033f      	lsls	r7, r7, #12
   1c38c:	431f      	orrs	r7, r3
   1c38e:	033f      	lsls	r7, r7, #12
   1c390:	0b3f      	lsrs	r7, r7, #12
   1c392:	0016      	movs	r6, r2
   1c394:	4b00      	ldr	r3, [pc, #0]	; (1c398 <__aeabi_dmul+0x4d8>)
   1c396:	e5fe      	b.n	1bf96 <__aeabi_dmul+0xd6>
   1c398:	07ff      	lsls	r7, r7, #31
   1c39a:	0000      	movs	r0, r0
   1c39c:	041e      	lsls	r6, r3, #16
   1c39e:	0000      	movs	r0, r0
   1c3a0:	043e      	lsls	r6, r7, #16
	...

0001c3a4 <__aeabi_f2d>:
   1c3a4:	0041      	lsls	r1, r0, #1
   1c3a6:	0e09      	lsrs	r1, r1, #24
   1c3a8:	1c4b      	adds	r3, r1, #1
   1c3aa:	b570      	push	{r4, r5, r6, lr}
   1c3ac:	b2db      	uxtb	r3, r3
   1c3ae:	0246      	lsls	r6, r0, #9
   1c3b0:	0a75      	lsrs	r5, r6, #9
   1c3b2:	0fc4      	lsrs	r4, r0, #31
   1c3b4:	2b01      	cmp	r3, #1
   1c3b6:	dd14      	ble.n	1c3e2 <__aeabi_f2d+0x3e>
   1c3b8:	23e0      	movs	r3, #224	; 0xe0
   1c3ba:	009b      	lsls	r3, r3, #2
   1c3bc:	076d      	lsls	r5, r5, #29
   1c3be:	0b36      	lsrs	r6, r6, #12
   1c3c0:	18cb      	adds	r3, r1, r3
   1c3c2:	2100      	movs	r1, #0
   1c3c4:	0d0a      	lsrs	r2, r1, #20
   1c3c6:	0028      	movs	r0, r5
   1c3c8:	0512      	lsls	r2, r2, #20
   1c3ca:	4d1c      	ldr	r5, [pc, #112]	; (1c43c <__aeabi_f2d+0x98>)
   1c3cc:	4332      	orrs	r2, r6
   1c3ce:	055b      	lsls	r3, r3, #21
   1c3d0:	402a      	ands	r2, r5
   1c3d2:	085b      	lsrs	r3, r3, #1
   1c3d4:	4313      	orrs	r3, r2
   1c3d6:	005b      	lsls	r3, r3, #1
   1c3d8:	07e4      	lsls	r4, r4, #31
   1c3da:	085b      	lsrs	r3, r3, #1
   1c3dc:	4323      	orrs	r3, r4
   1c3de:	0019      	movs	r1, r3
   1c3e0:	bd70      	pop	{r4, r5, r6, pc}
   1c3e2:	2900      	cmp	r1, #0
   1c3e4:	d114      	bne.n	1c410 <__aeabi_f2d+0x6c>
   1c3e6:	2d00      	cmp	r5, #0
   1c3e8:	d01e      	beq.n	1c428 <__aeabi_f2d+0x84>
   1c3ea:	0028      	movs	r0, r5
   1c3ec:	f000 f8b0 	bl	1c550 <__clzsi2>
   1c3f0:	280a      	cmp	r0, #10
   1c3f2:	dc1c      	bgt.n	1c42e <__aeabi_f2d+0x8a>
   1c3f4:	230b      	movs	r3, #11
   1c3f6:	002a      	movs	r2, r5
   1c3f8:	1a1b      	subs	r3, r3, r0
   1c3fa:	40da      	lsrs	r2, r3
   1c3fc:	0003      	movs	r3, r0
   1c3fe:	3315      	adds	r3, #21
   1c400:	409d      	lsls	r5, r3
   1c402:	4b0f      	ldr	r3, [pc, #60]	; (1c440 <__aeabi_f2d+0x9c>)
   1c404:	0312      	lsls	r2, r2, #12
   1c406:	1a1b      	subs	r3, r3, r0
   1c408:	055b      	lsls	r3, r3, #21
   1c40a:	0b16      	lsrs	r6, r2, #12
   1c40c:	0d5b      	lsrs	r3, r3, #21
   1c40e:	e7d8      	b.n	1c3c2 <__aeabi_f2d+0x1e>
   1c410:	2d00      	cmp	r5, #0
   1c412:	d006      	beq.n	1c422 <__aeabi_f2d+0x7e>
   1c414:	0b32      	lsrs	r2, r6, #12
   1c416:	2680      	movs	r6, #128	; 0x80
   1c418:	0336      	lsls	r6, r6, #12
   1c41a:	076d      	lsls	r5, r5, #29
   1c41c:	4316      	orrs	r6, r2
   1c41e:	4b09      	ldr	r3, [pc, #36]	; (1c444 <__aeabi_f2d+0xa0>)
   1c420:	e7cf      	b.n	1c3c2 <__aeabi_f2d+0x1e>
   1c422:	4b08      	ldr	r3, [pc, #32]	; (1c444 <__aeabi_f2d+0xa0>)
   1c424:	2600      	movs	r6, #0
   1c426:	e7cc      	b.n	1c3c2 <__aeabi_f2d+0x1e>
   1c428:	2300      	movs	r3, #0
   1c42a:	2600      	movs	r6, #0
   1c42c:	e7c9      	b.n	1c3c2 <__aeabi_f2d+0x1e>
   1c42e:	0003      	movs	r3, r0
   1c430:	002a      	movs	r2, r5
   1c432:	3b0b      	subs	r3, #11
   1c434:	409a      	lsls	r2, r3
   1c436:	2500      	movs	r5, #0
   1c438:	e7e3      	b.n	1c402 <__aeabi_f2d+0x5e>
   1c43a:	46c0      	nop			; (mov r8, r8)
   1c43c:	ffff 800f 	vaddl.u<illegal width 64>	q12, d15, d15
   1c440:	0389      	lsls	r1, r1, #14
   1c442:	0000      	movs	r0, r0
   1c444:	07ff      	lsls	r7, r7, #31
	...

0001c448 <__aeabi_d2f>:
   1c448:	b5f0      	push	{r4, r5, r6, r7, lr}
   1c44a:	004c      	lsls	r4, r1, #1
   1c44c:	0d64      	lsrs	r4, r4, #21
   1c44e:	030b      	lsls	r3, r1, #12
   1c450:	1c62      	adds	r2, r4, #1
   1c452:	0a5b      	lsrs	r3, r3, #9
   1c454:	0f46      	lsrs	r6, r0, #29
   1c456:	0552      	lsls	r2, r2, #21
   1c458:	0fc9      	lsrs	r1, r1, #31
   1c45a:	431e      	orrs	r6, r3
   1c45c:	00c5      	lsls	r5, r0, #3
   1c45e:	0d52      	lsrs	r2, r2, #21
   1c460:	2a01      	cmp	r2, #1
   1c462:	dd29      	ble.n	1c4b8 <__aeabi_d2f+0x70>
   1c464:	4b37      	ldr	r3, [pc, #220]	; (1c544 <__aeabi_d2f+0xfc>)
   1c466:	18e7      	adds	r7, r4, r3
   1c468:	2ffe      	cmp	r7, #254	; 0xfe
   1c46a:	dc1c      	bgt.n	1c4a6 <__aeabi_d2f+0x5e>
   1c46c:	2f00      	cmp	r7, #0
   1c46e:	dd3b      	ble.n	1c4e8 <__aeabi_d2f+0xa0>
   1c470:	0180      	lsls	r0, r0, #6
   1c472:	1e43      	subs	r3, r0, #1
   1c474:	4198      	sbcs	r0, r3
   1c476:	2207      	movs	r2, #7
   1c478:	00f3      	lsls	r3, r6, #3
   1c47a:	0f6d      	lsrs	r5, r5, #29
   1c47c:	4303      	orrs	r3, r0
   1c47e:	432b      	orrs	r3, r5
   1c480:	401a      	ands	r2, r3
   1c482:	2a00      	cmp	r2, #0
   1c484:	d004      	beq.n	1c490 <__aeabi_d2f+0x48>
   1c486:	220f      	movs	r2, #15
   1c488:	401a      	ands	r2, r3
   1c48a:	2a04      	cmp	r2, #4
   1c48c:	d000      	beq.n	1c490 <__aeabi_d2f+0x48>
   1c48e:	3304      	adds	r3, #4
   1c490:	2280      	movs	r2, #128	; 0x80
   1c492:	04d2      	lsls	r2, r2, #19
   1c494:	401a      	ands	r2, r3
   1c496:	d024      	beq.n	1c4e2 <__aeabi_d2f+0x9a>
   1c498:	3701      	adds	r7, #1
   1c49a:	b2fa      	uxtb	r2, r7
   1c49c:	2fff      	cmp	r7, #255	; 0xff
   1c49e:	d002      	beq.n	1c4a6 <__aeabi_d2f+0x5e>
   1c4a0:	019b      	lsls	r3, r3, #6
   1c4a2:	0a58      	lsrs	r0, r3, #9
   1c4a4:	e001      	b.n	1c4aa <__aeabi_d2f+0x62>
   1c4a6:	22ff      	movs	r2, #255	; 0xff
   1c4a8:	2000      	movs	r0, #0
   1c4aa:	0240      	lsls	r0, r0, #9
   1c4ac:	05d2      	lsls	r2, r2, #23
   1c4ae:	0a40      	lsrs	r0, r0, #9
   1c4b0:	07c9      	lsls	r1, r1, #31
   1c4b2:	4310      	orrs	r0, r2
   1c4b4:	4308      	orrs	r0, r1
   1c4b6:	bdf0      	pop	{r4, r5, r6, r7, pc}
   1c4b8:	4335      	orrs	r5, r6
   1c4ba:	2c00      	cmp	r4, #0
   1c4bc:	d104      	bne.n	1c4c8 <__aeabi_d2f+0x80>
   1c4be:	2d00      	cmp	r5, #0
   1c4c0:	d10a      	bne.n	1c4d8 <__aeabi_d2f+0x90>
   1c4c2:	2200      	movs	r2, #0
   1c4c4:	2000      	movs	r0, #0
   1c4c6:	e7f0      	b.n	1c4aa <__aeabi_d2f+0x62>
   1c4c8:	2d00      	cmp	r5, #0
   1c4ca:	d0ec      	beq.n	1c4a6 <__aeabi_d2f+0x5e>
   1c4cc:	2080      	movs	r0, #128	; 0x80
   1c4ce:	03c0      	lsls	r0, r0, #15
   1c4d0:	4330      	orrs	r0, r6
   1c4d2:	22ff      	movs	r2, #255	; 0xff
   1c4d4:	e7e9      	b.n	1c4aa <__aeabi_d2f+0x62>
   1c4d6:	2400      	movs	r4, #0
   1c4d8:	2300      	movs	r3, #0
   1c4da:	025b      	lsls	r3, r3, #9
   1c4dc:	0a58      	lsrs	r0, r3, #9
   1c4de:	b2e2      	uxtb	r2, r4
   1c4e0:	e7e3      	b.n	1c4aa <__aeabi_d2f+0x62>
   1c4e2:	08db      	lsrs	r3, r3, #3
   1c4e4:	003c      	movs	r4, r7
   1c4e6:	e7f8      	b.n	1c4da <__aeabi_d2f+0x92>
   1c4e8:	003b      	movs	r3, r7
   1c4ea:	3317      	adds	r3, #23
   1c4ec:	dbf3      	blt.n	1c4d6 <__aeabi_d2f+0x8e>
   1c4ee:	2380      	movs	r3, #128	; 0x80
   1c4f0:	041b      	lsls	r3, r3, #16
   1c4f2:	4333      	orrs	r3, r6
   1c4f4:	261e      	movs	r6, #30
   1c4f6:	1bf6      	subs	r6, r6, r7
   1c4f8:	2e1f      	cmp	r6, #31
   1c4fa:	dd14      	ble.n	1c526 <__aeabi_d2f+0xde>
   1c4fc:	2202      	movs	r2, #2
   1c4fe:	4252      	negs	r2, r2
   1c500:	1bd7      	subs	r7, r2, r7
   1c502:	001a      	movs	r2, r3
   1c504:	40fa      	lsrs	r2, r7
   1c506:	0017      	movs	r7, r2
   1c508:	2e20      	cmp	r6, #32
   1c50a:	d004      	beq.n	1c516 <__aeabi_d2f+0xce>
   1c50c:	4a0e      	ldr	r2, [pc, #56]	; (1c548 <__aeabi_d2f+0x100>)
   1c50e:	4694      	mov	ip, r2
   1c510:	4464      	add	r4, ip
   1c512:	40a3      	lsls	r3, r4
   1c514:	431d      	orrs	r5, r3
   1c516:	002b      	movs	r3, r5
   1c518:	1e5d      	subs	r5, r3, #1
   1c51a:	41ab      	sbcs	r3, r5
   1c51c:	2207      	movs	r2, #7
   1c51e:	433b      	orrs	r3, r7
   1c520:	401a      	ands	r2, r3
   1c522:	2700      	movs	r7, #0
   1c524:	e7ad      	b.n	1c482 <__aeabi_d2f+0x3a>
   1c526:	4a09      	ldr	r2, [pc, #36]	; (1c54c <__aeabi_d2f+0x104>)
   1c528:	0028      	movs	r0, r5
   1c52a:	18a2      	adds	r2, r4, r2
   1c52c:	4095      	lsls	r5, r2
   1c52e:	4093      	lsls	r3, r2
   1c530:	1e6c      	subs	r4, r5, #1
   1c532:	41a5      	sbcs	r5, r4
   1c534:	40f0      	lsrs	r0, r6
   1c536:	2207      	movs	r2, #7
   1c538:	432b      	orrs	r3, r5
   1c53a:	4303      	orrs	r3, r0
   1c53c:	401a      	ands	r2, r3
   1c53e:	2700      	movs	r7, #0
   1c540:	e79f      	b.n	1c482 <__aeabi_d2f+0x3a>
   1c542:	46c0      	nop			; (mov r8, r8)
   1c544:	fc80 ffff 	stc2	15, cr15, [r0], {255}	; 0xff
   1c548:	fca2 ffff 	stc2	15, cr15, [r2], #1020	; 0x3fc
   1c54c:	fc82 ffff 	stc2	15, cr15, [r2], {255}	; 0xff

0001c550 <__clzsi2>:
   1c550:	211c      	movs	r1, #28
   1c552:	2301      	movs	r3, #1
   1c554:	041b      	lsls	r3, r3, #16
   1c556:	4298      	cmp	r0, r3
   1c558:	d301      	bcc.n	1c55e <__clzsi2+0xe>
   1c55a:	0c00      	lsrs	r0, r0, #16
   1c55c:	3910      	subs	r1, #16
   1c55e:	0a1b      	lsrs	r3, r3, #8
   1c560:	4298      	cmp	r0, r3
   1c562:	d301      	bcc.n	1c568 <__clzsi2+0x18>
   1c564:	0a00      	lsrs	r0, r0, #8
   1c566:	3908      	subs	r1, #8
   1c568:	091b      	lsrs	r3, r3, #4
   1c56a:	4298      	cmp	r0, r3
   1c56c:	d301      	bcc.n	1c572 <__clzsi2+0x22>
   1c56e:	0900      	lsrs	r0, r0, #4
   1c570:	3904      	subs	r1, #4
   1c572:	a202      	add	r2, pc, #8	; (adr r2, 1c57c <__clzsi2+0x2c>)
   1c574:	5c10      	ldrb	r0, [r2, r0]
   1c576:	1840      	adds	r0, r0, r1
   1c578:	4770      	bx	lr
   1c57a:	46c0      	nop			; (mov r8, r8)
   1c57c:	0304      	lsls	r4, r0, #12
   1c57e:	0202      	lsls	r2, r0, #8
   1c580:	0101      	lsls	r1, r0, #4
   1c582:	0101      	lsls	r1, r0, #4
	...

0001c58c <exit>:
   1c58c:	b510      	push	{r4, lr}
   1c58e:	2100      	movs	r1, #0
   1c590:	0004      	movs	r4, r0
   1c592:	f000 f8f3 	bl	1c77c <__call_exitprocs>
   1c596:	4b04      	ldr	r3, [pc, #16]	; (1c5a8 <exit+0x1c>)
   1c598:	6818      	ldr	r0, [r3, #0]
   1c59a:	6bc3      	ldr	r3, [r0, #60]	; 0x3c
   1c59c:	2b00      	cmp	r3, #0
   1c59e:	d000      	beq.n	1c5a2 <exit+0x16>
   1c5a0:	4798      	blx	r3
   1c5a2:	0020      	movs	r0, r4
   1c5a4:	f001 fb24 	bl	1dbf0 <_exit>
   1c5a8:	f3c4 0001 	ubfx	r0, r4, #0, #2

0001c5ac <__libc_init_array>:
   1c5ac:	b570      	push	{r4, r5, r6, lr}
   1c5ae:	4e0d      	ldr	r6, [pc, #52]	; (1c5e4 <__libc_init_array+0x38>)
   1c5b0:	4d0d      	ldr	r5, [pc, #52]	; (1c5e8 <__libc_init_array+0x3c>)
   1c5b2:	1bad      	subs	r5, r5, r6
   1c5b4:	10ad      	asrs	r5, r5, #2
   1c5b6:	d006      	beq.n	1c5c6 <__libc_init_array+0x1a>
   1c5b8:	2400      	movs	r4, #0
   1c5ba:	00a3      	lsls	r3, r4, #2
   1c5bc:	58f3      	ldr	r3, [r6, r3]
   1c5be:	3401      	adds	r4, #1
   1c5c0:	4798      	blx	r3
   1c5c2:	42a5      	cmp	r5, r4
   1c5c4:	d1f9      	bne.n	1c5ba <__libc_init_array+0xe>
   1c5c6:	f002 fd63 	bl	1f090 <_init>
   1c5ca:	4e08      	ldr	r6, [pc, #32]	; (1c5ec <__libc_init_array+0x40>)
   1c5cc:	4d08      	ldr	r5, [pc, #32]	; (1c5f0 <__libc_init_array+0x44>)
   1c5ce:	1bad      	subs	r5, r5, r6
   1c5d0:	10ad      	asrs	r5, r5, #2
   1c5d2:	d006      	beq.n	1c5e2 <__libc_init_array+0x36>
   1c5d4:	2400      	movs	r4, #0
   1c5d6:	00a3      	lsls	r3, r4, #2
   1c5d8:	58f3      	ldr	r3, [r6, r3]
   1c5da:	3401      	adds	r4, #1
   1c5dc:	4798      	blx	r3
   1c5de:	42a5      	cmp	r5, r4
   1c5e0:	d1f9      	bne.n	1c5d6 <__libc_init_array+0x2a>
   1c5e2:	bd70      	pop	{r4, r5, r6, pc}
   1c5e4:	2468      	movs	r4, #104	; 0x68
   1c5e6:	2000      	movs	r0, #0
   1c5e8:	2468      	movs	r4, #104	; 0x68
   1c5ea:	2000      	movs	r0, #0
   1c5ec:	2468      	movs	r4, #104	; 0x68
   1c5ee:	2000      	movs	r0, #0
   1c5f0:	2468      	movs	r4, #104	; 0x68
   1c5f2:	2000      	movs	r0, #0

0001c5f4 <memcpy>:
   1c5f4:	b5f0      	push	{r4, r5, r6, r7, lr}
   1c5f6:	2a0f      	cmp	r2, #15
   1c5f8:	d937      	bls.n	1c66a <memcpy+0x76>
   1c5fa:	000d      	movs	r5, r1
   1c5fc:	4305      	orrs	r5, r0
   1c5fe:	000c      	movs	r4, r1
   1c600:	0003      	movs	r3, r0
   1c602:	07ad      	lsls	r5, r5, #30
   1c604:	d135      	bne.n	1c672 <memcpy+0x7e>
   1c606:	0015      	movs	r5, r2
   1c608:	3d10      	subs	r5, #16
   1c60a:	092d      	lsrs	r5, r5, #4
   1c60c:	012e      	lsls	r6, r5, #4
   1c60e:	1836      	adds	r6, r6, r0
   1c610:	3610      	adds	r6, #16
   1c612:	6827      	ldr	r7, [r4, #0]
   1c614:	601f      	str	r7, [r3, #0]
   1c616:	6867      	ldr	r7, [r4, #4]
   1c618:	605f      	str	r7, [r3, #4]
   1c61a:	68a7      	ldr	r7, [r4, #8]
   1c61c:	609f      	str	r7, [r3, #8]
   1c61e:	68e7      	ldr	r7, [r4, #12]
   1c620:	3410      	adds	r4, #16
   1c622:	60df      	str	r7, [r3, #12]
   1c624:	3310      	adds	r3, #16
   1c626:	42b3      	cmp	r3, r6
   1c628:	d1f3      	bne.n	1c612 <memcpy+0x1e>
   1c62a:	240f      	movs	r4, #15
   1c62c:	3501      	adds	r5, #1
   1c62e:	012d      	lsls	r5, r5, #4
   1c630:	1949      	adds	r1, r1, r5
   1c632:	4014      	ands	r4, r2
   1c634:	1945      	adds	r5, r0, r5
   1c636:	2c03      	cmp	r4, #3
   1c638:	d91d      	bls.n	1c676 <memcpy+0x82>
   1c63a:	2300      	movs	r3, #0
   1c63c:	58ce      	ldr	r6, [r1, r3]
   1c63e:	50ee      	str	r6, [r5, r3]
   1c640:	3304      	adds	r3, #4
   1c642:	1ae6      	subs	r6, r4, r3
   1c644:	2e03      	cmp	r6, #3
   1c646:	d8f9      	bhi.n	1c63c <memcpy+0x48>
   1c648:	2303      	movs	r3, #3
   1c64a:	3c04      	subs	r4, #4
   1c64c:	08a4      	lsrs	r4, r4, #2
   1c64e:	3401      	adds	r4, #1
   1c650:	00a4      	lsls	r4, r4, #2
   1c652:	401a      	ands	r2, r3
   1c654:	192d      	adds	r5, r5, r4
   1c656:	1909      	adds	r1, r1, r4
   1c658:	2a00      	cmp	r2, #0
   1c65a:	d005      	beq.n	1c668 <memcpy+0x74>
   1c65c:	2300      	movs	r3, #0
   1c65e:	5ccc      	ldrb	r4, [r1, r3]
   1c660:	54ec      	strb	r4, [r5, r3]
   1c662:	3301      	adds	r3, #1
   1c664:	4293      	cmp	r3, r2
   1c666:	d1fa      	bne.n	1c65e <memcpy+0x6a>
   1c668:	bdf0      	pop	{r4, r5, r6, r7, pc}
   1c66a:	0005      	movs	r5, r0
   1c66c:	2a00      	cmp	r2, #0
   1c66e:	d1f5      	bne.n	1c65c <memcpy+0x68>
   1c670:	e7fa      	b.n	1c668 <memcpy+0x74>
   1c672:	0005      	movs	r5, r0
   1c674:	e7f2      	b.n	1c65c <memcpy+0x68>
   1c676:	0022      	movs	r2, r4
   1c678:	e7f8      	b.n	1c66c <memcpy+0x78>
   1c67a:	46c0      	nop			; (mov r8, r8)

0001c67c <memset>:
   1c67c:	b5f0      	push	{r4, r5, r6, r7, lr}
   1c67e:	0783      	lsls	r3, r0, #30
   1c680:	d046      	beq.n	1c710 <memset+0x94>
   1c682:	1e54      	subs	r4, r2, #1
   1c684:	2a00      	cmp	r2, #0
   1c686:	d042      	beq.n	1c70e <memset+0x92>
   1c688:	b2ce      	uxtb	r6, r1
   1c68a:	0002      	movs	r2, r0
   1c68c:	2503      	movs	r5, #3
   1c68e:	e002      	b.n	1c696 <memset+0x1a>
   1c690:	001a      	movs	r2, r3
   1c692:	3c01      	subs	r4, #1
   1c694:	d33b      	bcc.n	1c70e <memset+0x92>
   1c696:	1c53      	adds	r3, r2, #1
   1c698:	7016      	strb	r6, [r2, #0]
   1c69a:	422b      	tst	r3, r5
   1c69c:	d1f8      	bne.n	1c690 <memset+0x14>
   1c69e:	2c03      	cmp	r4, #3
   1c6a0:	d92d      	bls.n	1c6fe <memset+0x82>
   1c6a2:	22ff      	movs	r2, #255	; 0xff
   1c6a4:	400a      	ands	r2, r1
   1c6a6:	0215      	lsls	r5, r2, #8
   1c6a8:	4315      	orrs	r5, r2
   1c6aa:	042a      	lsls	r2, r5, #16
   1c6ac:	4315      	orrs	r5, r2
   1c6ae:	2c0f      	cmp	r4, #15
   1c6b0:	d916      	bls.n	1c6e0 <memset+0x64>
   1c6b2:	0027      	movs	r7, r4
   1c6b4:	3f10      	subs	r7, #16
   1c6b6:	093f      	lsrs	r7, r7, #4
   1c6b8:	013e      	lsls	r6, r7, #4
   1c6ba:	46b4      	mov	ip, r6
   1c6bc:	001e      	movs	r6, r3
   1c6be:	001a      	movs	r2, r3
   1c6c0:	3610      	adds	r6, #16
   1c6c2:	4466      	add	r6, ip
   1c6c4:	6015      	str	r5, [r2, #0]
   1c6c6:	6055      	str	r5, [r2, #4]
   1c6c8:	6095      	str	r5, [r2, #8]
   1c6ca:	60d5      	str	r5, [r2, #12]
   1c6cc:	3210      	adds	r2, #16
   1c6ce:	42b2      	cmp	r2, r6
   1c6d0:	d1f8      	bne.n	1c6c4 <memset+0x48>
   1c6d2:	220f      	movs	r2, #15
   1c6d4:	3701      	adds	r7, #1
   1c6d6:	013f      	lsls	r7, r7, #4
   1c6d8:	19db      	adds	r3, r3, r7
   1c6da:	4014      	ands	r4, r2
   1c6dc:	2c03      	cmp	r4, #3
   1c6de:	d90e      	bls.n	1c6fe <memset+0x82>
   1c6e0:	1f26      	subs	r6, r4, #4
   1c6e2:	08b6      	lsrs	r6, r6, #2
   1c6e4:	00b7      	lsls	r7, r6, #2
   1c6e6:	46bc      	mov	ip, r7
   1c6e8:	001a      	movs	r2, r3
   1c6ea:	1d1f      	adds	r7, r3, #4
   1c6ec:	4467      	add	r7, ip
   1c6ee:	c220      	stmia	r2!, {r5}
   1c6f0:	42ba      	cmp	r2, r7
   1c6f2:	d1fc      	bne.n	1c6ee <memset+0x72>
   1c6f4:	2203      	movs	r2, #3
   1c6f6:	3601      	adds	r6, #1
   1c6f8:	00b6      	lsls	r6, r6, #2
   1c6fa:	199b      	adds	r3, r3, r6
   1c6fc:	4014      	ands	r4, r2
   1c6fe:	2c00      	cmp	r4, #0
   1c700:	d005      	beq.n	1c70e <memset+0x92>
   1c702:	b2c9      	uxtb	r1, r1
   1c704:	191c      	adds	r4, r3, r4
   1c706:	7019      	strb	r1, [r3, #0]
   1c708:	3301      	adds	r3, #1
   1c70a:	429c      	cmp	r4, r3
   1c70c:	d1fb      	bne.n	1c706 <memset+0x8a>
   1c70e:	bdf0      	pop	{r4, r5, r6, r7, pc}
   1c710:	0014      	movs	r4, r2
   1c712:	0003      	movs	r3, r0
   1c714:	e7c3      	b.n	1c69e <memset+0x22>
   1c716:	46c0      	nop			; (mov r8, r8)

0001c718 <strlen>:
   1c718:	b510      	push	{r4, lr}
   1c71a:	0004      	movs	r4, r0
   1c71c:	0783      	lsls	r3, r0, #30
   1c71e:	d00a      	beq.n	1c736 <strlen+0x1e>
   1c720:	7803      	ldrb	r3, [r0, #0]
   1c722:	2b00      	cmp	r3, #0
   1c724:	d023      	beq.n	1c76e <strlen+0x56>
   1c726:	2203      	movs	r2, #3
   1c728:	e002      	b.n	1c730 <strlen+0x18>
   1c72a:	7803      	ldrb	r3, [r0, #0]
   1c72c:	2b00      	cmp	r3, #0
   1c72e:	d01c      	beq.n	1c76a <strlen+0x52>
   1c730:	3001      	adds	r0, #1
   1c732:	4210      	tst	r0, r2
   1c734:	d1f9      	bne.n	1c72a <strlen+0x12>
   1c736:	6802      	ldr	r2, [r0, #0]
   1c738:	4b0e      	ldr	r3, [pc, #56]	; (1c774 <strlen+0x5c>)
   1c73a:	490f      	ldr	r1, [pc, #60]	; (1c778 <strlen+0x60>)
   1c73c:	18d3      	adds	r3, r2, r3
   1c73e:	4393      	bics	r3, r2
   1c740:	420b      	tst	r3, r1
   1c742:	d10f      	bne.n	1c764 <strlen+0x4c>
   1c744:	3004      	adds	r0, #4
   1c746:	6802      	ldr	r2, [r0, #0]
   1c748:	4b0a      	ldr	r3, [pc, #40]	; (1c774 <strlen+0x5c>)
   1c74a:	18d3      	adds	r3, r2, r3
   1c74c:	4393      	bics	r3, r2
   1c74e:	420b      	tst	r3, r1
   1c750:	d108      	bne.n	1c764 <strlen+0x4c>
   1c752:	3004      	adds	r0, #4
   1c754:	6802      	ldr	r2, [r0, #0]
   1c756:	4b07      	ldr	r3, [pc, #28]	; (1c774 <strlen+0x5c>)
   1c758:	18d3      	adds	r3, r2, r3
   1c75a:	4393      	bics	r3, r2
   1c75c:	420b      	tst	r3, r1
   1c75e:	d0f1      	beq.n	1c744 <strlen+0x2c>
   1c760:	e000      	b.n	1c764 <strlen+0x4c>
   1c762:	3001      	adds	r0, #1
   1c764:	7803      	ldrb	r3, [r0, #0]
   1c766:	2b00      	cmp	r3, #0
   1c768:	d1fb      	bne.n	1c762 <strlen+0x4a>
   1c76a:	1b00      	subs	r0, r0, r4
   1c76c:	bd10      	pop	{r4, pc}
   1c76e:	2000      	movs	r0, #0
   1c770:	e7fc      	b.n	1c76c <strlen+0x54>
   1c772:	46c0      	nop			; (mov r8, r8)
   1c774:	feff fefe 	mrc2	14, 7, pc, cr15, cr14, {7}
   1c778:	8080      	strh	r0, [r0, #4]
   1c77a:	8080      	strh	r0, [r0, #4]

0001c77c <__call_exitprocs>:
   1c77c:	b5f0      	push	{r4, r5, r6, r7, lr}
   1c77e:	46de      	mov	lr, fp
   1c780:	4657      	mov	r7, sl
   1c782:	464e      	mov	r6, r9
   1c784:	4645      	mov	r5, r8
   1c786:	b5e0      	push	{r5, r6, r7, lr}
   1c788:	4b3f      	ldr	r3, [pc, #252]	; (1c888 <__call_exitprocs+0x10c>)
   1c78a:	b087      	sub	sp, #28
   1c78c:	681b      	ldr	r3, [r3, #0]
   1c78e:	9005      	str	r0, [sp, #20]
   1c790:	0018      	movs	r0, r3
   1c792:	9301      	str	r3, [sp, #4]
   1c794:	000f      	movs	r7, r1
   1c796:	f000 f89f 	bl	1c8d8 <__retarget_lock_acquire_recursive>
   1c79a:	4b3c      	ldr	r3, [pc, #240]	; (1c88c <__call_exitprocs+0x110>)
   1c79c:	681b      	ldr	r3, [r3, #0]
   1c79e:	9303      	str	r3, [sp, #12]
   1c7a0:	3349      	adds	r3, #73	; 0x49
   1c7a2:	33ff      	adds	r3, #255	; 0xff
   1c7a4:	9304      	str	r3, [sp, #16]
   1c7a6:	22a4      	movs	r2, #164	; 0xa4
   1c7a8:	9b03      	ldr	r3, [sp, #12]
   1c7aa:	0052      	lsls	r2, r2, #1
   1c7ac:	589e      	ldr	r6, [r3, r2]
   1c7ae:	2e00      	cmp	r6, #0
   1c7b0:	d04b      	beq.n	1c84a <__call_exitprocs+0xce>
   1c7b2:	9b04      	ldr	r3, [sp, #16]
   1c7b4:	469a      	mov	sl, r3
   1c7b6:	2301      	movs	r3, #1
   1c7b8:	469b      	mov	fp, r3
   1c7ba:	6874      	ldr	r4, [r6, #4]
   1c7bc:	1e65      	subs	r5, r4, #1
   1c7be:	d432      	bmi.n	1c826 <__call_exitprocs+0xaa>
   1c7c0:	23c4      	movs	r3, #196	; 0xc4
   1c7c2:	005b      	lsls	r3, r3, #1
   1c7c4:	4699      	mov	r9, r3
   1c7c6:	3304      	adds	r3, #4
   1c7c8:	469c      	mov	ip, r3
   1c7ca:	44b4      	add	ip, r6
   1c7cc:	4663      	mov	r3, ip
   1c7ce:	3401      	adds	r4, #1
   1c7d0:	00a4      	lsls	r4, r4, #2
   1c7d2:	1934      	adds	r4, r6, r4
   1c7d4:	44b1      	add	r9, r6
   1c7d6:	9301      	str	r3, [sp, #4]
   1c7d8:	e002      	b.n	1c7e0 <__call_exitprocs+0x64>
   1c7da:	3c04      	subs	r4, #4
   1c7dc:	3d01      	subs	r5, #1
   1c7de:	d322      	bcc.n	1c826 <__call_exitprocs+0xaa>
   1c7e0:	2f00      	cmp	r7, #0
   1c7e2:	d004      	beq.n	1c7ee <__call_exitprocs+0x72>
   1c7e4:	1c63      	adds	r3, r4, #1
   1c7e6:	33ff      	adds	r3, #255	; 0xff
   1c7e8:	681b      	ldr	r3, [r3, #0]
   1c7ea:	42bb      	cmp	r3, r7
   1c7ec:	d1f5      	bne.n	1c7da <__call_exitprocs+0x5e>
   1c7ee:	6873      	ldr	r3, [r6, #4]
   1c7f0:	6822      	ldr	r2, [r4, #0]
   1c7f2:	3b01      	subs	r3, #1
   1c7f4:	42ab      	cmp	r3, r5
   1c7f6:	d033      	beq.n	1c860 <__call_exitprocs+0xe4>
   1c7f8:	2300      	movs	r3, #0
   1c7fa:	6023      	str	r3, [r4, #0]
   1c7fc:	2a00      	cmp	r2, #0
   1c7fe:	d0ec      	beq.n	1c7da <__call_exitprocs+0x5e>
   1c800:	6873      	ldr	r3, [r6, #4]
   1c802:	4649      	mov	r1, r9
   1c804:	4698      	mov	r8, r3
   1c806:	465b      	mov	r3, fp
   1c808:	40ab      	lsls	r3, r5
   1c80a:	6809      	ldr	r1, [r1, #0]
   1c80c:	4219      	tst	r1, r3
   1c80e:	d129      	bne.n	1c864 <__call_exitprocs+0xe8>
   1c810:	4790      	blx	r2
   1c812:	6873      	ldr	r3, [r6, #4]
   1c814:	4543      	cmp	r3, r8
   1c816:	d1c6      	bne.n	1c7a6 <__call_exitprocs+0x2a>
   1c818:	4653      	mov	r3, sl
   1c81a:	681b      	ldr	r3, [r3, #0]
   1c81c:	42b3      	cmp	r3, r6
   1c81e:	d1c2      	bne.n	1c7a6 <__call_exitprocs+0x2a>
   1c820:	3c04      	subs	r4, #4
   1c822:	3d01      	subs	r5, #1
   1c824:	d2dc      	bcs.n	1c7e0 <__call_exitprocs+0x64>
   1c826:	4b1a      	ldr	r3, [pc, #104]	; (1c890 <__call_exitprocs+0x114>)
   1c828:	2b00      	cmp	r3, #0
   1c82a:	d00e      	beq.n	1c84a <__call_exitprocs+0xce>
   1c82c:	6872      	ldr	r2, [r6, #4]
   1c82e:	6833      	ldr	r3, [r6, #0]
   1c830:	2a00      	cmp	r2, #0
   1c832:	d122      	bne.n	1c87a <__call_exitprocs+0xfe>
   1c834:	2b00      	cmp	r3, #0
   1c836:	d020      	beq.n	1c87a <__call_exitprocs+0xfe>
   1c838:	4652      	mov	r2, sl
   1c83a:	0030      	movs	r0, r6
   1c83c:	6013      	str	r3, [r2, #0]
   1c83e:	e000      	b.n	1c842 <__call_exitprocs+0xc6>
   1c840:	bf00      	nop
   1c842:	4653      	mov	r3, sl
   1c844:	681e      	ldr	r6, [r3, #0]
   1c846:	2e00      	cmp	r6, #0
   1c848:	d1b7      	bne.n	1c7ba <__call_exitprocs+0x3e>
   1c84a:	4b0f      	ldr	r3, [pc, #60]	; (1c888 <__call_exitprocs+0x10c>)
   1c84c:	6818      	ldr	r0, [r3, #0]
   1c84e:	f000 f845 	bl	1c8dc <__retarget_lock_release_recursive>
   1c852:	b007      	add	sp, #28
   1c854:	bc3c      	pop	{r2, r3, r4, r5}
   1c856:	4690      	mov	r8, r2
   1c858:	4699      	mov	r9, r3
   1c85a:	46a2      	mov	sl, r4
   1c85c:	46ab      	mov	fp, r5
   1c85e:	bdf0      	pop	{r4, r5, r6, r7, pc}
   1c860:	6075      	str	r5, [r6, #4]
   1c862:	e7cb      	b.n	1c7fc <__call_exitprocs+0x80>
   1c864:	0021      	movs	r1, r4
   1c866:	9801      	ldr	r0, [sp, #4]
   1c868:	3180      	adds	r1, #128	; 0x80
   1c86a:	6800      	ldr	r0, [r0, #0]
   1c86c:	6809      	ldr	r1, [r1, #0]
   1c86e:	9002      	str	r0, [sp, #8]
   1c870:	4218      	tst	r0, r3
   1c872:	d105      	bne.n	1c880 <__call_exitprocs+0x104>
   1c874:	9805      	ldr	r0, [sp, #20]
   1c876:	4790      	blx	r2
   1c878:	e7cb      	b.n	1c812 <__call_exitprocs+0x96>
   1c87a:	46b2      	mov	sl, r6
   1c87c:	001e      	movs	r6, r3
   1c87e:	e7e2      	b.n	1c846 <__call_exitprocs+0xca>
   1c880:	0008      	movs	r0, r1
   1c882:	4790      	blx	r2
   1c884:	e7c5      	b.n	1c812 <__call_exitprocs+0x96>
   1c886:	46c0      	nop			; (mov r8, r8)
   1c888:	2460      	movs	r4, #96	; 0x60
   1c88a:	2000      	movs	r0, #0
   1c88c:	f3c4 0001 	ubfx	r0, r4, #0, #2
   1c890:	0000      	movs	r0, r0
	...

0001c894 <atexit>:
   1c894:	b510      	push	{r4, lr}
   1c896:	0001      	movs	r1, r0
   1c898:	2300      	movs	r3, #0
   1c89a:	2200      	movs	r2, #0
   1c89c:	2000      	movs	r0, #0
   1c89e:	f000 f81f 	bl	1c8e0 <__register_exitproc>
   1c8a2:	bd10      	pop	{r4, pc}

0001c8a4 <__libc_fini_array>:
   1c8a4:	b570      	push	{r4, r5, r6, lr}
   1c8a6:	4b09      	ldr	r3, [pc, #36]	; (1c8cc <__libc_fini_array+0x28>)
   1c8a8:	4c09      	ldr	r4, [pc, #36]	; (1c8d0 <__libc_fini_array+0x2c>)
   1c8aa:	1ae4      	subs	r4, r4, r3
   1c8ac:	10a4      	asrs	r4, r4, #2
   1c8ae:	d009      	beq.n	1c8c4 <__libc_fini_array+0x20>
   1c8b0:	4a08      	ldr	r2, [pc, #32]	; (1c8d4 <__libc_fini_array+0x30>)
   1c8b2:	18a5      	adds	r5, r4, r2
   1c8b4:	00ad      	lsls	r5, r5, #2
   1c8b6:	18ed      	adds	r5, r5, r3
   1c8b8:	682b      	ldr	r3, [r5, #0]
   1c8ba:	3c01      	subs	r4, #1
   1c8bc:	4798      	blx	r3
   1c8be:	3d04      	subs	r5, #4
   1c8c0:	2c00      	cmp	r4, #0
   1c8c2:	d1f9      	bne.n	1c8b8 <__libc_fini_array+0x14>
   1c8c4:	f002 fbea 	bl	1f09c <_fini>
   1c8c8:	bd70      	pop	{r4, r5, r6, pc}
   1c8ca:	46c0      	nop			; (mov r8, r8)
   1c8cc:	2468      	movs	r4, #104	; 0x68
   1c8ce:	2000      	movs	r0, #0
   1c8d0:	2468      	movs	r4, #104	; 0x68
   1c8d2:	2000      	movs	r0, #0
   1c8d4:	ffff 3fff 			; <UNDEFINED> instruction: 0xffff3fff

0001c8d8 <__retarget_lock_acquire_recursive>:
   1c8d8:	4770      	bx	lr
   1c8da:	46c0      	nop			; (mov r8, r8)

0001c8dc <__retarget_lock_release_recursive>:
   1c8dc:	4770      	bx	lr
   1c8de:	46c0      	nop			; (mov r8, r8)

0001c8e0 <__register_exitproc>:
   1c8e0:	b5f0      	push	{r4, r5, r6, r7, lr}
   1c8e2:	464e      	mov	r6, r9
   1c8e4:	4645      	mov	r5, r8
   1c8e6:	46de      	mov	lr, fp
   1c8e8:	4657      	mov	r7, sl
   1c8ea:	b5e0      	push	{r5, r6, r7, lr}
   1c8ec:	4d36      	ldr	r5, [pc, #216]	; (1c9c8 <__register_exitproc+0xe8>)
   1c8ee:	b083      	sub	sp, #12
   1c8f0:	0006      	movs	r6, r0
   1c8f2:	6828      	ldr	r0, [r5, #0]
   1c8f4:	4698      	mov	r8, r3
   1c8f6:	000f      	movs	r7, r1
   1c8f8:	4691      	mov	r9, r2
   1c8fa:	f7ff ffed 	bl	1c8d8 <__retarget_lock_acquire_recursive>
   1c8fe:	4b33      	ldr	r3, [pc, #204]	; (1c9cc <__register_exitproc+0xec>)
   1c900:	681c      	ldr	r4, [r3, #0]
   1c902:	23a4      	movs	r3, #164	; 0xa4
   1c904:	005b      	lsls	r3, r3, #1
   1c906:	58e0      	ldr	r0, [r4, r3]
   1c908:	2800      	cmp	r0, #0
   1c90a:	d052      	beq.n	1c9b2 <__register_exitproc+0xd2>
   1c90c:	6843      	ldr	r3, [r0, #4]
   1c90e:	2b1f      	cmp	r3, #31
   1c910:	dc13      	bgt.n	1c93a <__register_exitproc+0x5a>
   1c912:	1c5a      	adds	r2, r3, #1
   1c914:	9201      	str	r2, [sp, #4]
   1c916:	2e00      	cmp	r6, #0
   1c918:	d128      	bne.n	1c96c <__register_exitproc+0x8c>
   1c91a:	9a01      	ldr	r2, [sp, #4]
   1c91c:	3302      	adds	r3, #2
   1c91e:	009b      	lsls	r3, r3, #2
   1c920:	6042      	str	r2, [r0, #4]
   1c922:	501f      	str	r7, [r3, r0]
   1c924:	6828      	ldr	r0, [r5, #0]
   1c926:	f7ff ffd9 	bl	1c8dc <__retarget_lock_release_recursive>
   1c92a:	2000      	movs	r0, #0
   1c92c:	b003      	add	sp, #12
   1c92e:	bc3c      	pop	{r2, r3, r4, r5}
   1c930:	4690      	mov	r8, r2
   1c932:	4699      	mov	r9, r3
   1c934:	46a2      	mov	sl, r4
   1c936:	46ab      	mov	fp, r5
   1c938:	bdf0      	pop	{r4, r5, r6, r7, pc}
   1c93a:	4b25      	ldr	r3, [pc, #148]	; (1c9d0 <__register_exitproc+0xf0>)
   1c93c:	2b00      	cmp	r3, #0
   1c93e:	d03d      	beq.n	1c9bc <__register_exitproc+0xdc>
   1c940:	20c8      	movs	r0, #200	; 0xc8
   1c942:	0040      	lsls	r0, r0, #1
   1c944:	e000      	b.n	1c948 <__register_exitproc+0x68>
   1c946:	bf00      	nop
   1c948:	2800      	cmp	r0, #0
   1c94a:	d037      	beq.n	1c9bc <__register_exitproc+0xdc>
   1c94c:	22a4      	movs	r2, #164	; 0xa4
   1c94e:	2300      	movs	r3, #0
   1c950:	0052      	lsls	r2, r2, #1
   1c952:	58a1      	ldr	r1, [r4, r2]
   1c954:	6043      	str	r3, [r0, #4]
   1c956:	6001      	str	r1, [r0, #0]
   1c958:	50a0      	str	r0, [r4, r2]
   1c95a:	3240      	adds	r2, #64	; 0x40
   1c95c:	5083      	str	r3, [r0, r2]
   1c95e:	3204      	adds	r2, #4
   1c960:	5083      	str	r3, [r0, r2]
   1c962:	3301      	adds	r3, #1
   1c964:	9301      	str	r3, [sp, #4]
   1c966:	2300      	movs	r3, #0
   1c968:	2e00      	cmp	r6, #0
   1c96a:	d0d6      	beq.n	1c91a <__register_exitproc+0x3a>
   1c96c:	009a      	lsls	r2, r3, #2
   1c96e:	4692      	mov	sl, r2
   1c970:	4482      	add	sl, r0
   1c972:	464a      	mov	r2, r9
   1c974:	2188      	movs	r1, #136	; 0x88
   1c976:	4654      	mov	r4, sl
   1c978:	5062      	str	r2, [r4, r1]
   1c97a:	22c4      	movs	r2, #196	; 0xc4
   1c97c:	0052      	lsls	r2, r2, #1
   1c97e:	4691      	mov	r9, r2
   1c980:	4481      	add	r9, r0
   1c982:	464a      	mov	r2, r9
   1c984:	3987      	subs	r1, #135	; 0x87
   1c986:	4099      	lsls	r1, r3
   1c988:	6812      	ldr	r2, [r2, #0]
   1c98a:	468b      	mov	fp, r1
   1c98c:	430a      	orrs	r2, r1
   1c98e:	4694      	mov	ip, r2
   1c990:	464a      	mov	r2, r9
   1c992:	4661      	mov	r1, ip
   1c994:	6011      	str	r1, [r2, #0]
   1c996:	2284      	movs	r2, #132	; 0x84
   1c998:	4641      	mov	r1, r8
   1c99a:	0052      	lsls	r2, r2, #1
   1c99c:	50a1      	str	r1, [r4, r2]
   1c99e:	2e02      	cmp	r6, #2
   1c9a0:	d1bb      	bne.n	1c91a <__register_exitproc+0x3a>
   1c9a2:	0002      	movs	r2, r0
   1c9a4:	465c      	mov	r4, fp
   1c9a6:	328d      	adds	r2, #141	; 0x8d
   1c9a8:	32ff      	adds	r2, #255	; 0xff
   1c9aa:	6811      	ldr	r1, [r2, #0]
   1c9ac:	430c      	orrs	r4, r1
   1c9ae:	6014      	str	r4, [r2, #0]
   1c9b0:	e7b3      	b.n	1c91a <__register_exitproc+0x3a>
   1c9b2:	0020      	movs	r0, r4
   1c9b4:	304d      	adds	r0, #77	; 0x4d
   1c9b6:	30ff      	adds	r0, #255	; 0xff
   1c9b8:	50e0      	str	r0, [r4, r3]
   1c9ba:	e7a7      	b.n	1c90c <__register_exitproc+0x2c>
   1c9bc:	6828      	ldr	r0, [r5, #0]
   1c9be:	f7ff ff8d 	bl	1c8dc <__retarget_lock_release_recursive>
   1c9c2:	2001      	movs	r0, #1
   1c9c4:	4240      	negs	r0, r0
   1c9c6:	e7b1      	b.n	1c92c <__register_exitproc+0x4c>
   1c9c8:	2460      	movs	r4, #96	; 0x60
   1c9ca:	2000      	movs	r0, #0
   1c9cc:	f3c4 0001 	ubfx	r0, r4, #0, #2
   1c9d0:	0000      	movs	r0, r0
	...

0001c9d4 <pow>:
   1c9d4:	b5f0      	push	{r4, r5, r6, r7, lr}
   1c9d6:	4657      	mov	r7, sl
   1c9d8:	464e      	mov	r6, r9
   1c9da:	46de      	mov	lr, fp
   1c9dc:	4645      	mov	r5, r8
   1c9de:	b5e0      	push	{r5, r6, r7, lr}
   1c9e0:	b08f      	sub	sp, #60	; 0x3c
   1c9e2:	001d      	movs	r5, r3
   1c9e4:	0006      	movs	r6, r0
   1c9e6:	000f      	movs	r7, r1
   1c9e8:	0014      	movs	r4, r2
   1c9ea:	f000 f9ad 	bl	1cd48 <__ieee754_pow>
   1c9ee:	4bce      	ldr	r3, [pc, #824]	; (1cd28 <pow+0x354>)
   1c9f0:	9000      	str	r0, [sp, #0]
   1c9f2:	9101      	str	r1, [sp, #4]
   1c9f4:	469a      	mov	sl, r3
   1c9f6:	781b      	ldrb	r3, [r3, #0]
   1c9f8:	b25b      	sxtb	r3, r3
   1c9fa:	4699      	mov	r9, r3
   1c9fc:	3301      	adds	r3, #1
   1c9fe:	d03e      	beq.n	1ca7e <pow+0xaa>
   1ca00:	0022      	movs	r2, r4
   1ca02:	002b      	movs	r3, r5
   1ca04:	0020      	movs	r0, r4
   1ca06:	0029      	movs	r1, r5
   1ca08:	f002 fa5a 	bl	1eec0 <__aeabi_dcmpun>
   1ca0c:	4683      	mov	fp, r0
   1ca0e:	2800      	cmp	r0, #0
   1ca10:	d135      	bne.n	1ca7e <pow+0xaa>
   1ca12:	0032      	movs	r2, r6
   1ca14:	003b      	movs	r3, r7
   1ca16:	0030      	movs	r0, r6
   1ca18:	0039      	movs	r1, r7
   1ca1a:	f002 fa51 	bl	1eec0 <__aeabi_dcmpun>
   1ca1e:	2200      	movs	r2, #0
   1ca20:	9003      	str	r0, [sp, #12]
   1ca22:	2800      	cmp	r0, #0
   1ca24:	d000      	beq.n	1ca28 <pow+0x54>
   1ca26:	e06f      	b.n	1cb08 <pow+0x134>
   1ca28:	2300      	movs	r3, #0
   1ca2a:	0030      	movs	r0, r6
   1ca2c:	0039      	movs	r1, r7
   1ca2e:	f7fe f9ad 	bl	1ad8c <__aeabi_dcmpeq>
   1ca32:	2800      	cmp	r0, #0
   1ca34:	d02c      	beq.n	1ca90 <pow+0xbc>
   1ca36:	2200      	movs	r2, #0
   1ca38:	2300      	movs	r3, #0
   1ca3a:	0020      	movs	r0, r4
   1ca3c:	0029      	movs	r1, r5
   1ca3e:	f7fe f9a5 	bl	1ad8c <__aeabi_dcmpeq>
   1ca42:	4683      	mov	fp, r0
   1ca44:	2800      	cmp	r0, #0
   1ca46:	d100      	bne.n	1ca4a <pow+0x76>
   1ca48:	e092      	b.n	1cb70 <pow+0x19c>
   1ca4a:	ab04      	add	r3, sp, #16
   1ca4c:	4698      	mov	r8, r3
   1ca4e:	2301      	movs	r3, #1
   1ca50:	4642      	mov	r2, r8
   1ca52:	9304      	str	r3, [sp, #16]
   1ca54:	4bb5      	ldr	r3, [pc, #724]	; (1cd2c <pow+0x358>)
   1ca56:	6053      	str	r3, [r2, #4]
   1ca58:	4643      	mov	r3, r8
   1ca5a:	9a03      	ldr	r2, [sp, #12]
   1ca5c:	611c      	str	r4, [r3, #16]
   1ca5e:	615d      	str	r5, [r3, #20]
   1ca60:	621a      	str	r2, [r3, #32]
   1ca62:	609e      	str	r6, [r3, #8]
   1ca64:	60df      	str	r7, [r3, #12]
   1ca66:	4642      	mov	r2, r8
   1ca68:	2300      	movs	r3, #0
   1ca6a:	2400      	movs	r4, #0
   1ca6c:	6193      	str	r3, [r2, #24]
   1ca6e:	61d4      	str	r4, [r2, #28]
   1ca70:	464b      	mov	r3, r9
   1ca72:	2b00      	cmp	r3, #0
   1ca74:	d067      	beq.n	1cb46 <pow+0x172>
   1ca76:	2300      	movs	r3, #0
   1ca78:	4cad      	ldr	r4, [pc, #692]	; (1cd30 <pow+0x35c>)
   1ca7a:	9300      	str	r3, [sp, #0]
   1ca7c:	9401      	str	r4, [sp, #4]
   1ca7e:	9800      	ldr	r0, [sp, #0]
   1ca80:	9901      	ldr	r1, [sp, #4]
   1ca82:	b00f      	add	sp, #60	; 0x3c
   1ca84:	bc3c      	pop	{r2, r3, r4, r5}
   1ca86:	4690      	mov	r8, r2
   1ca88:	4699      	mov	r9, r3
   1ca8a:	46a2      	mov	sl, r4
   1ca8c:	46ab      	mov	fp, r5
   1ca8e:	bdf0      	pop	{r4, r5, r6, r7, pc}
   1ca90:	9800      	ldr	r0, [sp, #0]
   1ca92:	9901      	ldr	r1, [sp, #4]
   1ca94:	f000 ff9a 	bl	1d9cc <finite>
   1ca98:	4681      	mov	r9, r0
   1ca9a:	2800      	cmp	r0, #0
   1ca9c:	d100      	bne.n	1caa0 <pow+0xcc>
   1ca9e:	e09a      	b.n	1cbd6 <pow+0x202>
   1caa0:	9800      	ldr	r0, [sp, #0]
   1caa2:	9901      	ldr	r1, [sp, #4]
   1caa4:	2200      	movs	r2, #0
   1caa6:	2300      	movs	r3, #0
   1caa8:	f7fe f970 	bl	1ad8c <__aeabi_dcmpeq>
   1caac:	2800      	cmp	r0, #0
   1caae:	d0e6      	beq.n	1ca7e <pow+0xaa>
   1cab0:	0030      	movs	r0, r6
   1cab2:	0039      	movs	r1, r7
   1cab4:	f000 ff8a 	bl	1d9cc <finite>
   1cab8:	2800      	cmp	r0, #0
   1caba:	d0e0      	beq.n	1ca7e <pow+0xaa>
   1cabc:	0020      	movs	r0, r4
   1cabe:	0029      	movs	r1, r5
   1cac0:	f000 ff84 	bl	1d9cc <finite>
   1cac4:	2800      	cmp	r0, #0
   1cac6:	d0da      	beq.n	1ca7e <pow+0xaa>
   1cac8:	ab04      	add	r3, sp, #16
   1caca:	4698      	mov	r8, r3
   1cacc:	2304      	movs	r3, #4
   1cace:	4642      	mov	r2, r8
   1cad0:	9304      	str	r3, [sp, #16]
   1cad2:	4b96      	ldr	r3, [pc, #600]	; (1cd2c <pow+0x358>)
   1cad4:	6114      	str	r4, [r2, #16]
   1cad6:	6155      	str	r5, [r2, #20]
   1cad8:	6053      	str	r3, [r2, #4]
   1cada:	2300      	movs	r3, #0
   1cadc:	2400      	movs	r4, #0
   1cade:	6213      	str	r3, [r2, #32]
   1cae0:	2300      	movs	r3, #0
   1cae2:	6193      	str	r3, [r2, #24]
   1cae4:	61d4      	str	r4, [r2, #28]
   1cae6:	4653      	mov	r3, sl
   1cae8:	781b      	ldrb	r3, [r3, #0]
   1caea:	6096      	str	r6, [r2, #8]
   1caec:	60d7      	str	r7, [r2, #12]
   1caee:	b25b      	sxtb	r3, r3
   1caf0:	2b02      	cmp	r3, #2
   1caf2:	d004      	beq.n	1cafe <pow+0x12a>
   1caf4:	4640      	mov	r0, r8
   1caf6:	f000 ff73 	bl	1d9e0 <matherr>
   1cafa:	2800      	cmp	r0, #0
   1cafc:	d129      	bne.n	1cb52 <pow+0x17e>
   1cafe:	f002 fac1 	bl	1f084 <__errno>
   1cb02:	2322      	movs	r3, #34	; 0x22
   1cb04:	6003      	str	r3, [r0, #0]
   1cb06:	e024      	b.n	1cb52 <pow+0x17e>
   1cb08:	2300      	movs	r3, #0
   1cb0a:	0020      	movs	r0, r4
   1cb0c:	0029      	movs	r1, r5
   1cb0e:	f7fe f93d 	bl	1ad8c <__aeabi_dcmpeq>
   1cb12:	2800      	cmp	r0, #0
   1cb14:	d0b3      	beq.n	1ca7e <pow+0xaa>
   1cb16:	ab04      	add	r3, sp, #16
   1cb18:	4698      	mov	r8, r3
   1cb1a:	2301      	movs	r3, #1
   1cb1c:	4642      	mov	r2, r8
   1cb1e:	9304      	str	r3, [sp, #16]
   1cb20:	4b82      	ldr	r3, [pc, #520]	; (1cd2c <pow+0x358>)
   1cb22:	4641      	mov	r1, r8
   1cb24:	6053      	str	r3, [r2, #4]
   1cb26:	4643      	mov	r3, r8
   1cb28:	465a      	mov	r2, fp
   1cb2a:	621a      	str	r2, [r3, #32]
   1cb2c:	2200      	movs	r2, #0
   1cb2e:	609e      	str	r6, [r3, #8]
   1cb30:	60df      	str	r7, [r3, #12]
   1cb32:	611c      	str	r4, [r3, #16]
   1cb34:	615d      	str	r5, [r3, #20]
   1cb36:	4b7e      	ldr	r3, [pc, #504]	; (1cd30 <pow+0x35c>)
   1cb38:	618a      	str	r2, [r1, #24]
   1cb3a:	61cb      	str	r3, [r1, #28]
   1cb3c:	9200      	str	r2, [sp, #0]
   1cb3e:	9301      	str	r3, [sp, #4]
   1cb40:	464b      	mov	r3, r9
   1cb42:	2b02      	cmp	r3, #2
   1cb44:	d09b      	beq.n	1ca7e <pow+0xaa>
   1cb46:	4640      	mov	r0, r8
   1cb48:	f000 ff4a 	bl	1d9e0 <matherr>
   1cb4c:	2800      	cmp	r0, #0
   1cb4e:	d100      	bne.n	1cb52 <pow+0x17e>
   1cb50:	e08a      	b.n	1cc68 <pow+0x294>
   1cb52:	4643      	mov	r3, r8
   1cb54:	6a1b      	ldr	r3, [r3, #32]
   1cb56:	2b00      	cmp	r3, #0
   1cb58:	d004      	beq.n	1cb64 <pow+0x190>
   1cb5a:	f002 fa93 	bl	1f084 <__errno>
   1cb5e:	4643      	mov	r3, r8
   1cb60:	6a1b      	ldr	r3, [r3, #32]
   1cb62:	6003      	str	r3, [r0, #0]
   1cb64:	4643      	mov	r3, r8
   1cb66:	69dc      	ldr	r4, [r3, #28]
   1cb68:	699b      	ldr	r3, [r3, #24]
   1cb6a:	9300      	str	r3, [sp, #0]
   1cb6c:	9401      	str	r4, [sp, #4]
   1cb6e:	e786      	b.n	1ca7e <pow+0xaa>
   1cb70:	0020      	movs	r0, r4
   1cb72:	0029      	movs	r1, r5
   1cb74:	f000 ff2a 	bl	1d9cc <finite>
   1cb78:	2800      	cmp	r0, #0
   1cb7a:	d100      	bne.n	1cb7e <pow+0x1aa>
   1cb7c:	e77f      	b.n	1ca7e <pow+0xaa>
   1cb7e:	2200      	movs	r2, #0
   1cb80:	2300      	movs	r3, #0
   1cb82:	0020      	movs	r0, r4
   1cb84:	0029      	movs	r1, r5
   1cb86:	f7fe f907 	bl	1ad98 <__aeabi_dcmplt>
   1cb8a:	2800      	cmp	r0, #0
   1cb8c:	d100      	bne.n	1cb90 <pow+0x1bc>
   1cb8e:	e776      	b.n	1ca7e <pow+0xaa>
   1cb90:	ab04      	add	r3, sp, #16
   1cb92:	4698      	mov	r8, r3
   1cb94:	2301      	movs	r3, #1
   1cb96:	4642      	mov	r2, r8
   1cb98:	9304      	str	r3, [sp, #16]
   1cb9a:	4b64      	ldr	r3, [pc, #400]	; (1cd2c <pow+0x358>)
   1cb9c:	6053      	str	r3, [r2, #4]
   1cb9e:	4643      	mov	r3, r8
   1cba0:	465a      	mov	r2, fp
   1cba2:	609e      	str	r6, [r3, #8]
   1cba4:	60df      	str	r7, [r3, #12]
   1cba6:	621a      	str	r2, [r3, #32]
   1cba8:	611c      	str	r4, [r3, #16]
   1cbaa:	615d      	str	r5, [r3, #20]
   1cbac:	4653      	mov	r3, sl
   1cbae:	781b      	ldrb	r3, [r3, #0]
   1cbb0:	b25b      	sxtb	r3, r3
   1cbb2:	2b00      	cmp	r3, #0
   1cbb4:	d05d      	beq.n	1cc72 <pow+0x29e>
   1cbb6:	2000      	movs	r0, #0
   1cbb8:	4642      	mov	r2, r8
   1cbba:	495e      	ldr	r1, [pc, #376]	; (1cd34 <pow+0x360>)
   1cbbc:	6190      	str	r0, [r2, #24]
   1cbbe:	61d1      	str	r1, [r2, #28]
   1cbc0:	2b02      	cmp	r3, #2
   1cbc2:	d15b      	bne.n	1cc7c <pow+0x2a8>
   1cbc4:	f002 fa5e 	bl	1f084 <__errno>
   1cbc8:	2321      	movs	r3, #33	; 0x21
   1cbca:	6003      	str	r3, [r0, #0]
   1cbcc:	4643      	mov	r3, r8
   1cbce:	6a1b      	ldr	r3, [r3, #32]
   1cbd0:	2b00      	cmp	r3, #0
   1cbd2:	d0c7      	beq.n	1cb64 <pow+0x190>
   1cbd4:	e7c1      	b.n	1cb5a <pow+0x186>
   1cbd6:	0030      	movs	r0, r6
   1cbd8:	0039      	movs	r1, r7
   1cbda:	f000 fef7 	bl	1d9cc <finite>
   1cbde:	2800      	cmp	r0, #0
   1cbe0:	d100      	bne.n	1cbe4 <pow+0x210>
   1cbe2:	e75d      	b.n	1caa0 <pow+0xcc>
   1cbe4:	0020      	movs	r0, r4
   1cbe6:	0029      	movs	r1, r5
   1cbe8:	f000 fef0 	bl	1d9cc <finite>
   1cbec:	2800      	cmp	r0, #0
   1cbee:	d100      	bne.n	1cbf2 <pow+0x21e>
   1cbf0:	e756      	b.n	1caa0 <pow+0xcc>
   1cbf2:	9800      	ldr	r0, [sp, #0]
   1cbf4:	9901      	ldr	r1, [sp, #4]
   1cbf6:	4653      	mov	r3, sl
   1cbf8:	781b      	ldrb	r3, [r3, #0]
   1cbfa:	0002      	movs	r2, r0
   1cbfc:	b25b      	sxtb	r3, r3
   1cbfe:	469b      	mov	fp, r3
   1cc00:	000b      	movs	r3, r1
   1cc02:	f002 f95d 	bl	1eec0 <__aeabi_dcmpun>
   1cc06:	ab04      	add	r3, sp, #16
   1cc08:	4698      	mov	r8, r3
   1cc0a:	2800      	cmp	r0, #0
   1cc0c:	d162      	bne.n	1ccd4 <pow+0x300>
   1cc0e:	2303      	movs	r3, #3
   1cc10:	4642      	mov	r2, r8
   1cc12:	9304      	str	r3, [sp, #16]
   1cc14:	4b45      	ldr	r3, [pc, #276]	; (1cd2c <pow+0x358>)
   1cc16:	6114      	str	r4, [r2, #16]
   1cc18:	6155      	str	r5, [r2, #20]
   1cc1a:	6053      	str	r3, [r2, #4]
   1cc1c:	6210      	str	r0, [r2, #32]
   1cc1e:	6096      	str	r6, [r2, #8]
   1cc20:	60d7      	str	r7, [r2, #12]
   1cc22:	4b45      	ldr	r3, [pc, #276]	; (1cd38 <pow+0x364>)
   1cc24:	0020      	movs	r0, r4
   1cc26:	0029      	movs	r1, r5
   1cc28:	2200      	movs	r2, #0
   1cc2a:	f7ff f949 	bl	1bec0 <__aeabi_dmul>
   1cc2e:	465b      	mov	r3, fp
   1cc30:	0004      	movs	r4, r0
   1cc32:	000d      	movs	r5, r1
   1cc34:	2b00      	cmp	r3, #0
   1cc36:	d127      	bne.n	1cc88 <pow+0x2b4>
   1cc38:	22e0      	movs	r2, #224	; 0xe0
   1cc3a:	4641      	mov	r1, r8
   1cc3c:	4b3f      	ldr	r3, [pc, #252]	; (1cd3c <pow+0x368>)
   1cc3e:	0612      	lsls	r2, r2, #24
   1cc40:	618a      	str	r2, [r1, #24]
   1cc42:	61cb      	str	r3, [r1, #28]
   1cc44:	0030      	movs	r0, r6
   1cc46:	2200      	movs	r2, #0
   1cc48:	2300      	movs	r3, #0
   1cc4a:	0039      	movs	r1, r7
   1cc4c:	f7fe f8a4 	bl	1ad98 <__aeabi_dcmplt>
   1cc50:	2800      	cmp	r0, #0
   1cc52:	d12a      	bne.n	1ccaa <pow+0x2d6>
   1cc54:	4640      	mov	r0, r8
   1cc56:	f000 fec3 	bl	1d9e0 <matherr>
   1cc5a:	2800      	cmp	r0, #0
   1cc5c:	d1b6      	bne.n	1cbcc <pow+0x1f8>
   1cc5e:	f002 fa11 	bl	1f084 <__errno>
   1cc62:	2322      	movs	r3, #34	; 0x22
   1cc64:	6003      	str	r3, [r0, #0]
   1cc66:	e7b1      	b.n	1cbcc <pow+0x1f8>
   1cc68:	f002 fa0c 	bl	1f084 <__errno>
   1cc6c:	2321      	movs	r3, #33	; 0x21
   1cc6e:	6003      	str	r3, [r0, #0]
   1cc70:	e76f      	b.n	1cb52 <pow+0x17e>
   1cc72:	4642      	mov	r2, r8
   1cc74:	2300      	movs	r3, #0
   1cc76:	2400      	movs	r4, #0
   1cc78:	6193      	str	r3, [r2, #24]
   1cc7a:	61d4      	str	r4, [r2, #28]
   1cc7c:	4640      	mov	r0, r8
   1cc7e:	f000 feaf 	bl	1d9e0 <matherr>
   1cc82:	2800      	cmp	r0, #0
   1cc84:	d1a2      	bne.n	1cbcc <pow+0x1f8>
   1cc86:	e79d      	b.n	1cbc4 <pow+0x1f0>
   1cc88:	2200      	movs	r2, #0
   1cc8a:	4641      	mov	r1, r8
   1cc8c:	4b2c      	ldr	r3, [pc, #176]	; (1cd40 <pow+0x36c>)
   1cc8e:	0030      	movs	r0, r6
   1cc90:	618a      	str	r2, [r1, #24]
   1cc92:	61cb      	str	r3, [r1, #28]
   1cc94:	2200      	movs	r2, #0
   1cc96:	2300      	movs	r3, #0
   1cc98:	0039      	movs	r1, r7
   1cc9a:	f7fe f87d 	bl	1ad98 <__aeabi_dcmplt>
   1cc9e:	2800      	cmp	r0, #0
   1cca0:	d135      	bne.n	1cd0e <pow+0x33a>
   1cca2:	465b      	mov	r3, fp
   1cca4:	2b02      	cmp	r3, #2
   1cca6:	d0da      	beq.n	1cc5e <pow+0x28a>
   1cca8:	e7d4      	b.n	1cc54 <pow+0x280>
   1ccaa:	0020      	movs	r0, r4
   1ccac:	0029      	movs	r1, r5
   1ccae:	f000 fe9f 	bl	1d9f0 <rint>
   1ccb2:	0022      	movs	r2, r4
   1ccb4:	002b      	movs	r3, r5
   1ccb6:	f7fe f869 	bl	1ad8c <__aeabi_dcmpeq>
   1ccba:	2800      	cmp	r0, #0
   1ccbc:	d105      	bne.n	1ccca <pow+0x2f6>
   1ccbe:	22e0      	movs	r2, #224	; 0xe0
   1ccc0:	4b20      	ldr	r3, [pc, #128]	; (1cd44 <pow+0x370>)
   1ccc2:	0612      	lsls	r2, r2, #24
   1ccc4:	4641      	mov	r1, r8
   1ccc6:	618a      	str	r2, [r1, #24]
   1ccc8:	61cb      	str	r3, [r1, #28]
   1ccca:	4653      	mov	r3, sl
   1cccc:	781b      	ldrb	r3, [r3, #0]
   1ccce:	b25b      	sxtb	r3, r3
   1ccd0:	469b      	mov	fp, r3
   1ccd2:	e7e6      	b.n	1cca2 <pow+0x2ce>
   1ccd4:	2301      	movs	r3, #1
   1ccd6:	4642      	mov	r2, r8
   1ccd8:	9304      	str	r3, [sp, #16]
   1ccda:	4b14      	ldr	r3, [pc, #80]	; (1cd2c <pow+0x358>)
   1ccdc:	6053      	str	r3, [r2, #4]
   1ccde:	4643      	mov	r3, r8
   1cce0:	464a      	mov	r2, r9
   1cce2:	609e      	str	r6, [r3, #8]
   1cce4:	60df      	str	r7, [r3, #12]
   1cce6:	621a      	str	r2, [r3, #32]
   1cce8:	611c      	str	r4, [r3, #16]
   1ccea:	615d      	str	r5, [r3, #20]
   1ccec:	465b      	mov	r3, fp
   1ccee:	2b00      	cmp	r3, #0
   1ccf0:	d0bf      	beq.n	1cc72 <pow+0x29e>
   1ccf2:	2300      	movs	r3, #0
   1ccf4:	2200      	movs	r2, #0
   1ccf6:	0019      	movs	r1, r3
   1ccf8:	0010      	movs	r0, r2
   1ccfa:	f001 fa97 	bl	1e22c <__aeabi_ddiv>
   1ccfe:	4643      	mov	r3, r8
   1cd00:	6198      	str	r0, [r3, #24]
   1cd02:	61d9      	str	r1, [r3, #28]
   1cd04:	465b      	mov	r3, fp
   1cd06:	2b02      	cmp	r3, #2
   1cd08:	d100      	bne.n	1cd0c <pow+0x338>
   1cd0a:	e75b      	b.n	1cbc4 <pow+0x1f0>
   1cd0c:	e7b6      	b.n	1cc7c <pow+0x2a8>
   1cd0e:	0020      	movs	r0, r4
   1cd10:	0029      	movs	r1, r5
   1cd12:	f000 fe6d 	bl	1d9f0 <rint>
   1cd16:	0022      	movs	r2, r4
   1cd18:	002b      	movs	r3, r5
   1cd1a:	f7fe f837 	bl	1ad8c <__aeabi_dcmpeq>
   1cd1e:	2800      	cmp	r0, #0
   1cd20:	d1d3      	bne.n	1ccca <pow+0x2f6>
   1cd22:	2200      	movs	r2, #0
   1cd24:	4b03      	ldr	r3, [pc, #12]	; (1cd34 <pow+0x360>)
   1cd26:	e7cd      	b.n	1ccc4 <pow+0x2f0>
   1cd28:	2464      	movs	r4, #100	; 0x64
   1cd2a:	2000      	movs	r0, #0
   1cd2c:	f3c8 0001 	ubfx	r0, r8, #0, #2
   1cd30:	0000      	movs	r0, r0
   1cd32:	3ff0      	subs	r7, #240	; 0xf0
   1cd34:	0000      	movs	r0, r0
   1cd36:	fff0 0000 	vrev64.8	d16, d0
   1cd3a:	3fe0      	subs	r7, #224	; 0xe0
   1cd3c:	ffff 47ef 			; <UNDEFINED> instruction: 0xffff47ef
   1cd40:	0000      	movs	r0, r0
   1cd42:	7ff0      	ldrb	r0, [r6, #31]
   1cd44:	ffff c7ef 			; <UNDEFINED> instruction: 0xffffc7ef

0001cd48 <__ieee754_pow>:
   1cd48:	b5f0      	push	{r4, r5, r6, r7, lr}
   1cd4a:	4657      	mov	r7, sl
   1cd4c:	46de      	mov	lr, fp
   1cd4e:	464e      	mov	r6, r9
   1cd50:	4645      	mov	r5, r8
   1cd52:	005c      	lsls	r4, r3, #1
   1cd54:	0864      	lsrs	r4, r4, #1
   1cd56:	b5e0      	push	{r5, r6, r7, lr}
   1cd58:	4698      	mov	r8, r3
   1cd5a:	001f      	movs	r7, r3
   1cd5c:	0023      	movs	r3, r4
   1cd5e:	b093      	sub	sp, #76	; 0x4c
   1cd60:	4683      	mov	fp, r0
   1cd62:	468a      	mov	sl, r1
   1cd64:	0016      	movs	r6, r2
   1cd66:	4313      	orrs	r3, r2
   1cd68:	d00c      	beq.n	1cd84 <__ieee754_pow+0x3c>
   1cd6a:	4b7d      	ldr	r3, [pc, #500]	; (1cf60 <__ieee754_pow+0x218>)
   1cd6c:	004d      	lsls	r5, r1, #1
   1cd6e:	9102      	str	r1, [sp, #8]
   1cd70:	4681      	mov	r9, r0
   1cd72:	086d      	lsrs	r5, r5, #1
   1cd74:	429d      	cmp	r5, r3
   1cd76:	dd12      	ble.n	1cd9e <__ieee754_pow+0x56>
   1cd78:	4b7a      	ldr	r3, [pc, #488]	; (1cf64 <__ieee754_pow+0x21c>)
   1cd7a:	469c      	mov	ip, r3
   1cd7c:	465b      	mov	r3, fp
   1cd7e:	4465      	add	r5, ip
   1cd80:	431d      	orrs	r5, r3
   1cd82:	d161      	bne.n	1ce48 <__ieee754_pow+0x100>
   1cd84:	2300      	movs	r3, #0
   1cd86:	4c78      	ldr	r4, [pc, #480]	; (1cf68 <__ieee754_pow+0x220>)
   1cd88:	9300      	str	r3, [sp, #0]
   1cd8a:	9401      	str	r4, [sp, #4]
   1cd8c:	9800      	ldr	r0, [sp, #0]
   1cd8e:	9901      	ldr	r1, [sp, #4]
   1cd90:	b013      	add	sp, #76	; 0x4c
   1cd92:	bc3c      	pop	{r2, r3, r4, r5}
   1cd94:	4690      	mov	r8, r2
   1cd96:	4699      	mov	r9, r3
   1cd98:	46a2      	mov	sl, r4
   1cd9a:	46ab      	mov	fp, r5
   1cd9c:	bdf0      	pop	{r4, r5, r6, r7, pc}
   1cd9e:	429d      	cmp	r5, r3
   1cda0:	d050      	beq.n	1ce44 <__ieee754_pow+0xfc>
   1cda2:	429c      	cmp	r4, r3
   1cda4:	dce8      	bgt.n	1cd78 <__ieee754_pow+0x30>
   1cda6:	4b6e      	ldr	r3, [pc, #440]	; (1cf60 <__ieee754_pow+0x218>)
   1cda8:	429c      	cmp	r4, r3
   1cdaa:	d06b      	beq.n	1ce84 <__ieee754_pow+0x13c>
   1cdac:	2300      	movs	r3, #0
   1cdae:	9304      	str	r3, [sp, #16]
   1cdb0:	4653      	mov	r3, sl
   1cdb2:	2b00      	cmp	r3, #0
   1cdb4:	db69      	blt.n	1ce8a <__ieee754_pow+0x142>
   1cdb6:	2a00      	cmp	r2, #0
   1cdb8:	d110      	bne.n	1cddc <__ieee754_pow+0x94>
   1cdba:	4b69      	ldr	r3, [pc, #420]	; (1cf60 <__ieee754_pow+0x218>)
   1cdbc:	429c      	cmp	r4, r3
   1cdbe:	d04c      	beq.n	1ce5a <__ieee754_pow+0x112>
   1cdc0:	4b69      	ldr	r3, [pc, #420]	; (1cf68 <__ieee754_pow+0x220>)
   1cdc2:	429c      	cmp	r4, r3
   1cdc4:	d100      	bne.n	1cdc8 <__ieee754_pow+0x80>
   1cdc6:	e0a3      	b.n	1cf10 <__ieee754_pow+0x1c8>
   1cdc8:	2380      	movs	r3, #128	; 0x80
   1cdca:	05db      	lsls	r3, r3, #23
   1cdcc:	4598      	cmp	r8, r3
   1cdce:	d100      	bne.n	1cdd2 <__ieee754_pow+0x8a>
   1cdd0:	e0bc      	b.n	1cf4c <__ieee754_pow+0x204>
   1cdd2:	4b66      	ldr	r3, [pc, #408]	; (1cf6c <__ieee754_pow+0x224>)
   1cdd4:	4598      	cmp	r8, r3
   1cdd6:	d101      	bne.n	1cddc <__ieee754_pow+0x94>
   1cdd8:	f000 fbd6 	bl	1d588 <__ieee754_pow+0x840>
   1cddc:	4658      	mov	r0, fp
   1cdde:	4651      	mov	r1, sl
   1cde0:	f000 fdf0 	bl	1d9c4 <fabs>
   1cde4:	464b      	mov	r3, r9
   1cde6:	9000      	str	r0, [sp, #0]
   1cde8:	9101      	str	r1, [sp, #4]
   1cdea:	2b00      	cmp	r3, #0
   1cdec:	d107      	bne.n	1cdfe <__ieee754_pow+0xb6>
   1cdee:	2d00      	cmp	r5, #0
   1cdf0:	d067      	beq.n	1cec2 <__ieee754_pow+0x17a>
   1cdf2:	4653      	mov	r3, sl
   1cdf4:	4a5c      	ldr	r2, [pc, #368]	; (1cf68 <__ieee754_pow+0x220>)
   1cdf6:	009b      	lsls	r3, r3, #2
   1cdf8:	089b      	lsrs	r3, r3, #2
   1cdfa:	4293      	cmp	r3, r2
   1cdfc:	d061      	beq.n	1cec2 <__ieee754_pow+0x17a>
   1cdfe:	4653      	mov	r3, sl
   1ce00:	0fdb      	lsrs	r3, r3, #31
   1ce02:	3b01      	subs	r3, #1
   1ce04:	4699      	mov	r9, r3
   1ce06:	464a      	mov	r2, r9
   1ce08:	9b04      	ldr	r3, [sp, #16]
   1ce0a:	4313      	orrs	r3, r2
   1ce0c:	d100      	bne.n	1ce10 <__ieee754_pow+0xc8>
   1ce0e:	e090      	b.n	1cf32 <__ieee754_pow+0x1ea>
   1ce10:	4b57      	ldr	r3, [pc, #348]	; (1cf70 <__ieee754_pow+0x228>)
   1ce12:	429c      	cmp	r4, r3
   1ce14:	dc00      	bgt.n	1ce18 <__ieee754_pow+0xd0>
   1ce16:	e0bb      	b.n	1cf90 <__ieee754_pow+0x248>
   1ce18:	4b56      	ldr	r3, [pc, #344]	; (1cf74 <__ieee754_pow+0x22c>)
   1ce1a:	429c      	cmp	r4, r3
   1ce1c:	dc01      	bgt.n	1ce22 <__ieee754_pow+0xda>
   1ce1e:	f000 fc10 	bl	1d642 <__ieee754_pow+0x8fa>
   1ce22:	4b55      	ldr	r3, [pc, #340]	; (1cf78 <__ieee754_pow+0x230>)
   1ce24:	429d      	cmp	r5, r3
   1ce26:	dc01      	bgt.n	1ce2c <__ieee754_pow+0xe4>
   1ce28:	f000 fc04 	bl	1d634 <__ieee754_pow+0x8ec>
   1ce2c:	4643      	mov	r3, r8
   1ce2e:	2b00      	cmp	r3, #0
   1ce30:	dd23      	ble.n	1ce7a <__ieee754_pow+0x132>
   1ce32:	4a52      	ldr	r2, [pc, #328]	; (1cf7c <__ieee754_pow+0x234>)
   1ce34:	4b52      	ldr	r3, [pc, #328]	; (1cf80 <__ieee754_pow+0x238>)
   1ce36:	0010      	movs	r0, r2
   1ce38:	0019      	movs	r1, r3
   1ce3a:	f7ff f841 	bl	1bec0 <__aeabi_dmul>
   1ce3e:	9000      	str	r0, [sp, #0]
   1ce40:	9101      	str	r1, [sp, #4]
   1ce42:	e7a3      	b.n	1cd8c <__ieee754_pow+0x44>
   1ce44:	2800      	cmp	r0, #0
   1ce46:	d005      	beq.n	1ce54 <__ieee754_pow+0x10c>
   1ce48:	484e      	ldr	r0, [pc, #312]	; (1cf84 <__ieee754_pow+0x23c>)
   1ce4a:	f000 fdcb 	bl	1d9e4 <nan>
   1ce4e:	9000      	str	r0, [sp, #0]
   1ce50:	9101      	str	r1, [sp, #4]
   1ce52:	e79b      	b.n	1cd8c <__ieee754_pow+0x44>
   1ce54:	42ac      	cmp	r4, r5
   1ce56:	dcf7      	bgt.n	1ce48 <__ieee754_pow+0x100>
   1ce58:	e7a5      	b.n	1cda6 <__ieee754_pow+0x5e>
   1ce5a:	465a      	mov	r2, fp
   1ce5c:	4b41      	ldr	r3, [pc, #260]	; (1cf64 <__ieee754_pow+0x21c>)
   1ce5e:	18eb      	adds	r3, r5, r3
   1ce60:	4313      	orrs	r3, r2
   1ce62:	d100      	bne.n	1ce66 <__ieee754_pow+0x11e>
   1ce64:	e78e      	b.n	1cd84 <__ieee754_pow+0x3c>
   1ce66:	4b44      	ldr	r3, [pc, #272]	; (1cf78 <__ieee754_pow+0x230>)
   1ce68:	429d      	cmp	r5, r3
   1ce6a:	dc00      	bgt.n	1ce6e <__ieee754_pow+0x126>
   1ce6c:	e399      	b.n	1d5a2 <__ieee754_pow+0x85a>
   1ce6e:	4643      	mov	r3, r8
   1ce70:	9600      	str	r6, [sp, #0]
   1ce72:	9701      	str	r7, [sp, #4]
   1ce74:	2b00      	cmp	r3, #0
   1ce76:	db00      	blt.n	1ce7a <__ieee754_pow+0x132>
   1ce78:	e788      	b.n	1cd8c <__ieee754_pow+0x44>
   1ce7a:	2300      	movs	r3, #0
   1ce7c:	2400      	movs	r4, #0
   1ce7e:	9300      	str	r3, [sp, #0]
   1ce80:	9401      	str	r4, [sp, #4]
   1ce82:	e783      	b.n	1cd8c <__ieee754_pow+0x44>
   1ce84:	2a00      	cmp	r2, #0
   1ce86:	d091      	beq.n	1cdac <__ieee754_pow+0x64>
   1ce88:	e776      	b.n	1cd78 <__ieee754_pow+0x30>
   1ce8a:	4b3f      	ldr	r3, [pc, #252]	; (1cf88 <__ieee754_pow+0x240>)
   1ce8c:	429c      	cmp	r4, r3
   1ce8e:	dc3c      	bgt.n	1cf0a <__ieee754_pow+0x1c2>
   1ce90:	4b39      	ldr	r3, [pc, #228]	; (1cf78 <__ieee754_pow+0x230>)
   1ce92:	429c      	cmp	r4, r3
   1ce94:	dd8f      	ble.n	1cdb6 <__ieee754_pow+0x6e>
   1ce96:	493d      	ldr	r1, [pc, #244]	; (1cf8c <__ieee754_pow+0x244>)
   1ce98:	1523      	asrs	r3, r4, #20
   1ce9a:	468c      	mov	ip, r1
   1ce9c:	4463      	add	r3, ip
   1ce9e:	2b14      	cmp	r3, #20
   1cea0:	dc00      	bgt.n	1cea4 <__ieee754_pow+0x15c>
   1cea2:	e3b2      	b.n	1d60a <__ieee754_pow+0x8c2>
   1cea4:	2134      	movs	r1, #52	; 0x34
   1cea6:	1acb      	subs	r3, r1, r3
   1cea8:	0031      	movs	r1, r6
   1ceaa:	40d9      	lsrs	r1, r3
   1ceac:	0008      	movs	r0, r1
   1ceae:	4098      	lsls	r0, r3
   1ceb0:	4290      	cmp	r0, r2
   1ceb2:	d000      	beq.n	1ceb6 <__ieee754_pow+0x16e>
   1ceb4:	e77f      	b.n	1cdb6 <__ieee754_pow+0x6e>
   1ceb6:	2301      	movs	r3, #1
   1ceb8:	4019      	ands	r1, r3
   1ceba:	3301      	adds	r3, #1
   1cebc:	1a5b      	subs	r3, r3, r1
   1cebe:	9304      	str	r3, [sp, #16]
   1cec0:	e779      	b.n	1cdb6 <__ieee754_pow+0x6e>
   1cec2:	4643      	mov	r3, r8
   1cec4:	2b00      	cmp	r3, #0
   1cec6:	da07      	bge.n	1ced8 <__ieee754_pow+0x190>
   1cec8:	9a00      	ldr	r2, [sp, #0]
   1ceca:	9b01      	ldr	r3, [sp, #4]
   1cecc:	2000      	movs	r0, #0
   1cece:	4926      	ldr	r1, [pc, #152]	; (1cf68 <__ieee754_pow+0x220>)
   1ced0:	f001 f9ac 	bl	1e22c <__aeabi_ddiv>
   1ced4:	9000      	str	r0, [sp, #0]
   1ced6:	9101      	str	r1, [sp, #4]
   1ced8:	9b02      	ldr	r3, [sp, #8]
   1ceda:	2b00      	cmp	r3, #0
   1cedc:	db00      	blt.n	1cee0 <__ieee754_pow+0x198>
   1cede:	e755      	b.n	1cd8c <__ieee754_pow+0x44>
   1cee0:	4b20      	ldr	r3, [pc, #128]	; (1cf64 <__ieee754_pow+0x21c>)
   1cee2:	469c      	mov	ip, r3
   1cee4:	9b04      	ldr	r3, [sp, #16]
   1cee6:	4465      	add	r5, ip
   1cee8:	431d      	orrs	r5, r3
   1ceea:	d101      	bne.n	1cef0 <__ieee754_pow+0x1a8>
   1ceec:	f000 fc0e 	bl	1d70c <__ieee754_pow+0x9c4>
   1cef0:	9b04      	ldr	r3, [sp, #16]
   1cef2:	2b01      	cmp	r3, #1
   1cef4:	d000      	beq.n	1cef8 <__ieee754_pow+0x1b0>
   1cef6:	e749      	b.n	1cd8c <__ieee754_pow+0x44>
   1cef8:	9c00      	ldr	r4, [sp, #0]
   1cefa:	9d01      	ldr	r5, [sp, #4]
   1cefc:	2180      	movs	r1, #128	; 0x80
   1cefe:	0022      	movs	r2, r4
   1cf00:	0609      	lsls	r1, r1, #24
   1cf02:	186b      	adds	r3, r5, r1
   1cf04:	9200      	str	r2, [sp, #0]
   1cf06:	9301      	str	r3, [sp, #4]
   1cf08:	e740      	b.n	1cd8c <__ieee754_pow+0x44>
   1cf0a:	2302      	movs	r3, #2
   1cf0c:	9304      	str	r3, [sp, #16]
   1cf0e:	e752      	b.n	1cdb6 <__ieee754_pow+0x6e>
   1cf10:	4658      	mov	r0, fp
   1cf12:	4651      	mov	r1, sl
   1cf14:	4643      	mov	r3, r8
   1cf16:	9000      	str	r0, [sp, #0]
   1cf18:	9101      	str	r1, [sp, #4]
   1cf1a:	2b00      	cmp	r3, #0
   1cf1c:	db00      	blt.n	1cf20 <__ieee754_pow+0x1d8>
   1cf1e:	e735      	b.n	1cd8c <__ieee754_pow+0x44>
   1cf20:	465a      	mov	r2, fp
   1cf22:	4653      	mov	r3, sl
   1cf24:	2000      	movs	r0, #0
   1cf26:	4910      	ldr	r1, [pc, #64]	; (1cf68 <__ieee754_pow+0x220>)
   1cf28:	f001 f980 	bl	1e22c <__aeabi_ddiv>
   1cf2c:	9000      	str	r0, [sp, #0]
   1cf2e:	9101      	str	r1, [sp, #4]
   1cf30:	e72c      	b.n	1cd8c <__ieee754_pow+0x44>
   1cf32:	465a      	mov	r2, fp
   1cf34:	4653      	mov	r3, sl
   1cf36:	4658      	mov	r0, fp
   1cf38:	4651      	mov	r1, sl
   1cf3a:	f001 fc79 	bl	1e830 <__aeabi_dsub>
   1cf3e:	0002      	movs	r2, r0
   1cf40:	000b      	movs	r3, r1
   1cf42:	f001 f973 	bl	1e22c <__aeabi_ddiv>
   1cf46:	9000      	str	r0, [sp, #0]
   1cf48:	9101      	str	r1, [sp, #4]
   1cf4a:	e71f      	b.n	1cd8c <__ieee754_pow+0x44>
   1cf4c:	465a      	mov	r2, fp
   1cf4e:	4653      	mov	r3, sl
   1cf50:	4658      	mov	r0, fp
   1cf52:	4651      	mov	r1, sl
   1cf54:	f7fe ffb4 	bl	1bec0 <__aeabi_dmul>
   1cf58:	9000      	str	r0, [sp, #0]
   1cf5a:	9101      	str	r1, [sp, #4]
   1cf5c:	e716      	b.n	1cd8c <__ieee754_pow+0x44>
   1cf5e:	46c0      	nop			; (mov r8, r8)
   1cf60:	0000      	movs	r0, r0
   1cf62:	7ff0      	ldrb	r0, [r6, #31]
   1cf64:	0000      	movs	r0, r0
   1cf66:	c010      	stmia	r0!, {r4}
   1cf68:	0000      	movs	r0, r0
   1cf6a:	3ff0      	subs	r7, #240	; 0xf0
   1cf6c:	0000      	movs	r0, r0
   1cf6e:	3fe0      	subs	r7, #224	; 0xe0
   1cf70:	0000      	movs	r0, r0
   1cf72:	41e0      	rors	r0, r4
   1cf74:	0000      	movs	r0, r0
   1cf76:	43f0      	mvns	r0, r6
   1cf78:	ffff 3fef 	vqrdmlsh.s<illegal width 64>	<illegal reg q9.5>, <illegal reg q15.5>, d31[0]
   1cf7c:	759c      	strb	r4, [r3, #22]
   1cf7e:	8800      	ldrh	r0, [r0, #0]
   1cf80:	e43c      	b.n	1c7fc <__call_exitprocs+0x80>
   1cf82:	7e37      	ldrb	r7, [r6, #24]
   1cf84:	f3cc 0001 	ubfx	r0, ip, #0, #2
   1cf88:	ffff 433f 	vrsra.u32	d20, d31, #1
   1cf8c:	fc01 ffff 	stc2	15, cr15, [r1], {255}	; 0xff
   1cf90:	4be4      	ldr	r3, [pc, #912]	; (1d324 <__ieee754_pow+0x5dc>)
   1cf92:	2200      	movs	r2, #0
   1cf94:	429d      	cmp	r5, r3
   1cf96:	dc0a      	bgt.n	1cfae <__ieee754_pow+0x266>
   1cf98:	9800      	ldr	r0, [sp, #0]
   1cf9a:	9901      	ldr	r1, [sp, #4]
   1cf9c:	2200      	movs	r2, #0
   1cf9e:	4be2      	ldr	r3, [pc, #904]	; (1d328 <__ieee754_pow+0x5e0>)
   1cfa0:	f7fe ff8e 	bl	1bec0 <__aeabi_dmul>
   1cfa4:	2235      	movs	r2, #53	; 0x35
   1cfa6:	000d      	movs	r5, r1
   1cfa8:	9000      	str	r0, [sp, #0]
   1cfaa:	9101      	str	r1, [sp, #4]
   1cfac:	4252      	negs	r2, r2
   1cfae:	49df      	ldr	r1, [pc, #892]	; (1d32c <__ieee754_pow+0x5e4>)
   1cfb0:	152b      	asrs	r3, r5, #20
   1cfb2:	468c      	mov	ip, r1
   1cfb4:	4463      	add	r3, ip
   1cfb6:	4698      	mov	r8, r3
   1cfb8:	032d      	lsls	r5, r5, #12
   1cfba:	4cdd      	ldr	r4, [pc, #884]	; (1d330 <__ieee754_pow+0x5e8>)
   1cfbc:	4bdd      	ldr	r3, [pc, #884]	; (1d334 <__ieee754_pow+0x5ec>)
   1cfbe:	0b2d      	lsrs	r5, r5, #12
   1cfc0:	4490      	add	r8, r2
   1cfc2:	432c      	orrs	r4, r5
   1cfc4:	429d      	cmp	r5, r3
   1cfc6:	dd0a      	ble.n	1cfde <__ieee754_pow+0x296>
   1cfc8:	4bdb      	ldr	r3, [pc, #876]	; (1d338 <__ieee754_pow+0x5f0>)
   1cfca:	429d      	cmp	r5, r3
   1cfcc:	dc01      	bgt.n	1cfd2 <__ieee754_pow+0x28a>
   1cfce:	f000 fc01 	bl	1d7d4 <__ieee754_pow+0xa8c>
   1cfd2:	2301      	movs	r3, #1
   1cfd4:	469c      	mov	ip, r3
   1cfd6:	4bd9      	ldr	r3, [pc, #868]	; (1d33c <__ieee754_pow+0x5f4>)
   1cfd8:	44e0      	add	r8, ip
   1cfda:	469c      	mov	ip, r3
   1cfdc:	4464      	add	r4, ip
   1cfde:	2200      	movs	r2, #0
   1cfe0:	2300      	movs	r3, #0
   1cfe2:	920e      	str	r2, [sp, #56]	; 0x38
   1cfe4:	930f      	str	r3, [sp, #60]	; 0x3c
   1cfe6:	9210      	str	r2, [sp, #64]	; 0x40
   1cfe8:	9311      	str	r3, [sp, #68]	; 0x44
   1cfea:	2200      	movs	r2, #0
   1cfec:	2500      	movs	r5, #0
   1cfee:	4bd0      	ldr	r3, [pc, #832]	; (1d330 <__ieee754_pow+0x5e8>)
   1cff0:	9206      	str	r2, [sp, #24]
   1cff2:	9307      	str	r3, [sp, #28]
   1cff4:	9800      	ldr	r0, [sp, #0]
   1cff6:	9901      	ldr	r1, [sp, #4]
   1cff8:	9a06      	ldr	r2, [sp, #24]
   1cffa:	9b07      	ldr	r3, [sp, #28]
   1cffc:	0021      	movs	r1, r4
   1cffe:	9008      	str	r0, [sp, #32]
   1d000:	9109      	str	r1, [sp, #36]	; 0x24
   1d002:	f001 fc15 	bl	1e830 <__aeabi_dsub>
   1d006:	9a06      	ldr	r2, [sp, #24]
   1d008:	9b07      	ldr	r3, [sp, #28]
   1d00a:	900a      	str	r0, [sp, #40]	; 0x28
   1d00c:	910b      	str	r1, [sp, #44]	; 0x2c
   1d00e:	9808      	ldr	r0, [sp, #32]
   1d010:	9909      	ldr	r1, [sp, #36]	; 0x24
   1d012:	f000 fdef 	bl	1dbf4 <__aeabi_dadd>
   1d016:	0002      	movs	r2, r0
   1d018:	000b      	movs	r3, r1
   1d01a:	2000      	movs	r0, #0
   1d01c:	49c4      	ldr	r1, [pc, #784]	; (1d330 <__ieee754_pow+0x5e8>)
   1d01e:	f001 f905 	bl	1e22c <__aeabi_ddiv>
   1d022:	000a      	movs	r2, r1
   1d024:	0001      	movs	r1, r0
   1d026:	0013      	movs	r3, r2
   1d028:	910c      	str	r1, [sp, #48]	; 0x30
   1d02a:	920d      	str	r2, [sp, #52]	; 0x34
   1d02c:	0002      	movs	r2, r0
   1d02e:	980a      	ldr	r0, [sp, #40]	; 0x28
   1d030:	990b      	ldr	r1, [sp, #44]	; 0x2c
   1d032:	f7fe ff45 	bl	1bec0 <__aeabi_dmul>
   1d036:	000a      	movs	r2, r1
   1d038:	0001      	movs	r1, r0
   1d03a:	0013      	movs	r3, r2
   1d03c:	9102      	str	r1, [sp, #8]
   1d03e:	9203      	str	r2, [sp, #12]
   1d040:	2200      	movs	r2, #0
   1d042:	9200      	str	r2, [sp, #0]
   1d044:	9301      	str	r3, [sp, #4]
   1d046:	2380      	movs	r3, #128	; 0x80
   1d048:	1064      	asrs	r4, r4, #1
   1d04a:	059b      	lsls	r3, r3, #22
   1d04c:	4323      	orrs	r3, r4
   1d04e:	2480      	movs	r4, #128	; 0x80
   1d050:	0324      	lsls	r4, r4, #12
   1d052:	46a4      	mov	ip, r4
   1d054:	2000      	movs	r0, #0
   1d056:	4463      	add	r3, ip
   1d058:	1959      	adds	r1, r3, r5
   1d05a:	0004      	movs	r4, r0
   1d05c:	000d      	movs	r5, r1
   1d05e:	0002      	movs	r2, r0
   1d060:	000b      	movs	r3, r1
   1d062:	9800      	ldr	r0, [sp, #0]
   1d064:	9901      	ldr	r1, [sp, #4]
   1d066:	f7fe ff2b 	bl	1bec0 <__aeabi_dmul>
   1d06a:	0002      	movs	r2, r0
   1d06c:	000b      	movs	r3, r1
   1d06e:	980a      	ldr	r0, [sp, #40]	; 0x28
   1d070:	990b      	ldr	r1, [sp, #44]	; 0x2c
   1d072:	f001 fbdd 	bl	1e830 <__aeabi_dsub>
   1d076:	9a06      	ldr	r2, [sp, #24]
   1d078:	9b07      	ldr	r3, [sp, #28]
   1d07a:	900a      	str	r0, [sp, #40]	; 0x28
   1d07c:	910b      	str	r1, [sp, #44]	; 0x2c
   1d07e:	0020      	movs	r0, r4
   1d080:	0029      	movs	r1, r5
   1d082:	f001 fbd5 	bl	1e830 <__aeabi_dsub>
   1d086:	0002      	movs	r2, r0
   1d088:	000b      	movs	r3, r1
   1d08a:	9808      	ldr	r0, [sp, #32]
   1d08c:	9909      	ldr	r1, [sp, #36]	; 0x24
   1d08e:	f001 fbcf 	bl	1e830 <__aeabi_dsub>
   1d092:	9a00      	ldr	r2, [sp, #0]
   1d094:	9b01      	ldr	r3, [sp, #4]
   1d096:	f7fe ff13 	bl	1bec0 <__aeabi_dmul>
   1d09a:	0002      	movs	r2, r0
   1d09c:	000b      	movs	r3, r1
   1d09e:	980a      	ldr	r0, [sp, #40]	; 0x28
   1d0a0:	990b      	ldr	r1, [sp, #44]	; 0x2c
   1d0a2:	f001 fbc5 	bl	1e830 <__aeabi_dsub>
   1d0a6:	9a0c      	ldr	r2, [sp, #48]	; 0x30
   1d0a8:	9b0d      	ldr	r3, [sp, #52]	; 0x34
   1d0aa:	f7fe ff09 	bl	1bec0 <__aeabi_dmul>
   1d0ae:	9c02      	ldr	r4, [sp, #8]
   1d0b0:	9d03      	ldr	r5, [sp, #12]
   1d0b2:	9008      	str	r0, [sp, #32]
   1d0b4:	9109      	str	r1, [sp, #36]	; 0x24
   1d0b6:	0022      	movs	r2, r4
   1d0b8:	002b      	movs	r3, r5
   1d0ba:	0020      	movs	r0, r4
   1d0bc:	0029      	movs	r1, r5
   1d0be:	f7fe feff 	bl	1bec0 <__aeabi_dmul>
   1d0c2:	0004      	movs	r4, r0
   1d0c4:	000d      	movs	r5, r1
   1d0c6:	4a9e      	ldr	r2, [pc, #632]	; (1d340 <__ieee754_pow+0x5f8>)
   1d0c8:	4b9e      	ldr	r3, [pc, #632]	; (1d344 <__ieee754_pow+0x5fc>)
   1d0ca:	f7fe fef9 	bl	1bec0 <__aeabi_dmul>
   1d0ce:	4a9e      	ldr	r2, [pc, #632]	; (1d348 <__ieee754_pow+0x600>)
   1d0d0:	4b9e      	ldr	r3, [pc, #632]	; (1d34c <__ieee754_pow+0x604>)
   1d0d2:	f000 fd8f 	bl	1dbf4 <__aeabi_dadd>
   1d0d6:	0022      	movs	r2, r4
   1d0d8:	002b      	movs	r3, r5
   1d0da:	f7fe fef1 	bl	1bec0 <__aeabi_dmul>
   1d0de:	4a9c      	ldr	r2, [pc, #624]	; (1d350 <__ieee754_pow+0x608>)
   1d0e0:	4b9c      	ldr	r3, [pc, #624]	; (1d354 <__ieee754_pow+0x60c>)
   1d0e2:	f000 fd87 	bl	1dbf4 <__aeabi_dadd>
   1d0e6:	0022      	movs	r2, r4
   1d0e8:	002b      	movs	r3, r5
   1d0ea:	f7fe fee9 	bl	1bec0 <__aeabi_dmul>
   1d0ee:	4a9a      	ldr	r2, [pc, #616]	; (1d358 <__ieee754_pow+0x610>)
   1d0f0:	4b9a      	ldr	r3, [pc, #616]	; (1d35c <__ieee754_pow+0x614>)
   1d0f2:	f000 fd7f 	bl	1dbf4 <__aeabi_dadd>
   1d0f6:	0022      	movs	r2, r4
   1d0f8:	002b      	movs	r3, r5
   1d0fa:	f7fe fee1 	bl	1bec0 <__aeabi_dmul>
   1d0fe:	4a98      	ldr	r2, [pc, #608]	; (1d360 <__ieee754_pow+0x618>)
   1d100:	4b98      	ldr	r3, [pc, #608]	; (1d364 <__ieee754_pow+0x61c>)
   1d102:	f000 fd77 	bl	1dbf4 <__aeabi_dadd>
   1d106:	0022      	movs	r2, r4
   1d108:	002b      	movs	r3, r5
   1d10a:	f7fe fed9 	bl	1bec0 <__aeabi_dmul>
   1d10e:	4a96      	ldr	r2, [pc, #600]	; (1d368 <__ieee754_pow+0x620>)
   1d110:	4b96      	ldr	r3, [pc, #600]	; (1d36c <__ieee754_pow+0x624>)
   1d112:	f000 fd6f 	bl	1dbf4 <__aeabi_dadd>
   1d116:	0022      	movs	r2, r4
   1d118:	9006      	str	r0, [sp, #24]
   1d11a:	9107      	str	r1, [sp, #28]
   1d11c:	002b      	movs	r3, r5
   1d11e:	0020      	movs	r0, r4
   1d120:	0029      	movs	r1, r5
   1d122:	f7fe fecd 	bl	1bec0 <__aeabi_dmul>
   1d126:	0002      	movs	r2, r0
   1d128:	000b      	movs	r3, r1
   1d12a:	9806      	ldr	r0, [sp, #24]
   1d12c:	9907      	ldr	r1, [sp, #28]
   1d12e:	f7fe fec7 	bl	1bec0 <__aeabi_dmul>
   1d132:	9a00      	ldr	r2, [sp, #0]
   1d134:	9b01      	ldr	r3, [sp, #4]
   1d136:	0004      	movs	r4, r0
   1d138:	000d      	movs	r5, r1
   1d13a:	9802      	ldr	r0, [sp, #8]
   1d13c:	9903      	ldr	r1, [sp, #12]
   1d13e:	f000 fd59 	bl	1dbf4 <__aeabi_dadd>
   1d142:	9a08      	ldr	r2, [sp, #32]
   1d144:	9b09      	ldr	r3, [sp, #36]	; 0x24
   1d146:	f7fe febb 	bl	1bec0 <__aeabi_dmul>
   1d14a:	0022      	movs	r2, r4
   1d14c:	002b      	movs	r3, r5
   1d14e:	f000 fd51 	bl	1dbf4 <__aeabi_dadd>
   1d152:	9c00      	ldr	r4, [sp, #0]
   1d154:	9d01      	ldr	r5, [sp, #4]
   1d156:	900a      	str	r0, [sp, #40]	; 0x28
   1d158:	910b      	str	r1, [sp, #44]	; 0x2c
   1d15a:	0022      	movs	r2, r4
   1d15c:	002b      	movs	r3, r5
   1d15e:	0020      	movs	r0, r4
   1d160:	0029      	movs	r1, r5
   1d162:	f7fe fead 	bl	1bec0 <__aeabi_dmul>
   1d166:	2200      	movs	r2, #0
   1d168:	4b81      	ldr	r3, [pc, #516]	; (1d370 <__ieee754_pow+0x628>)
   1d16a:	0004      	movs	r4, r0
   1d16c:	000d      	movs	r5, r1
   1d16e:	f000 fd41 	bl	1dbf4 <__aeabi_dadd>
   1d172:	9a0a      	ldr	r2, [sp, #40]	; 0x28
   1d174:	9b0b      	ldr	r3, [sp, #44]	; 0x2c
   1d176:	f000 fd3d 	bl	1dbf4 <__aeabi_dadd>
   1d17a:	2200      	movs	r2, #0
   1d17c:	000b      	movs	r3, r1
   1d17e:	0011      	movs	r1, r2
   1d180:	001a      	movs	r2, r3
   1d182:	9106      	str	r1, [sp, #24]
   1d184:	9207      	str	r2, [sp, #28]
   1d186:	000a      	movs	r2, r1
   1d188:	9800      	ldr	r0, [sp, #0]
   1d18a:	9901      	ldr	r1, [sp, #4]
   1d18c:	f7fe fe98 	bl	1bec0 <__aeabi_dmul>
   1d190:	2200      	movs	r2, #0
   1d192:	900c      	str	r0, [sp, #48]	; 0x30
   1d194:	910d      	str	r1, [sp, #52]	; 0x34
   1d196:	9806      	ldr	r0, [sp, #24]
   1d198:	9907      	ldr	r1, [sp, #28]
   1d19a:	4b75      	ldr	r3, [pc, #468]	; (1d370 <__ieee754_pow+0x628>)
   1d19c:	f001 fb48 	bl	1e830 <__aeabi_dsub>
   1d1a0:	0022      	movs	r2, r4
   1d1a2:	002b      	movs	r3, r5
   1d1a4:	f001 fb44 	bl	1e830 <__aeabi_dsub>
   1d1a8:	0002      	movs	r2, r0
   1d1aa:	000b      	movs	r3, r1
   1d1ac:	980a      	ldr	r0, [sp, #40]	; 0x28
   1d1ae:	990b      	ldr	r1, [sp, #44]	; 0x2c
   1d1b0:	f001 fb3e 	bl	1e830 <__aeabi_dsub>
   1d1b4:	9a02      	ldr	r2, [sp, #8]
   1d1b6:	9b03      	ldr	r3, [sp, #12]
   1d1b8:	f7fe fe82 	bl	1bec0 <__aeabi_dmul>
   1d1bc:	9a06      	ldr	r2, [sp, #24]
   1d1be:	9b07      	ldr	r3, [sp, #28]
   1d1c0:	0004      	movs	r4, r0
   1d1c2:	000d      	movs	r5, r1
   1d1c4:	9808      	ldr	r0, [sp, #32]
   1d1c6:	9909      	ldr	r1, [sp, #36]	; 0x24
   1d1c8:	f7fe fe7a 	bl	1bec0 <__aeabi_dmul>
   1d1cc:	0002      	movs	r2, r0
   1d1ce:	000b      	movs	r3, r1
   1d1d0:	0020      	movs	r0, r4
   1d1d2:	0029      	movs	r1, r5
   1d1d4:	f000 fd0e 	bl	1dbf4 <__aeabi_dadd>
   1d1d8:	0004      	movs	r4, r0
   1d1da:	000d      	movs	r5, r1
   1d1dc:	0002      	movs	r2, r0
   1d1de:	000b      	movs	r3, r1
   1d1e0:	980c      	ldr	r0, [sp, #48]	; 0x30
   1d1e2:	990d      	ldr	r1, [sp, #52]	; 0x34
   1d1e4:	f000 fd06 	bl	1dbf4 <__aeabi_dadd>
   1d1e8:	2200      	movs	r2, #0
   1d1ea:	0010      	movs	r0, r2
   1d1ec:	22e0      	movs	r2, #224	; 0xe0
   1d1ee:	4b61      	ldr	r3, [pc, #388]	; (1d374 <__ieee754_pow+0x62c>)
   1d1f0:	0612      	lsls	r2, r2, #24
   1d1f2:	9000      	str	r0, [sp, #0]
   1d1f4:	9101      	str	r1, [sp, #4]
   1d1f6:	f7fe fe63 	bl	1bec0 <__aeabi_dmul>
   1d1fa:	9a0c      	ldr	r2, [sp, #48]	; 0x30
   1d1fc:	9b0d      	ldr	r3, [sp, #52]	; 0x34
   1d1fe:	9002      	str	r0, [sp, #8]
   1d200:	9103      	str	r1, [sp, #12]
   1d202:	9800      	ldr	r0, [sp, #0]
   1d204:	9901      	ldr	r1, [sp, #4]
   1d206:	f001 fb13 	bl	1e830 <__aeabi_dsub>
   1d20a:	0002      	movs	r2, r0
   1d20c:	000b      	movs	r3, r1
   1d20e:	0020      	movs	r0, r4
   1d210:	0029      	movs	r1, r5
   1d212:	f001 fb0d 	bl	1e830 <__aeabi_dsub>
   1d216:	4a58      	ldr	r2, [pc, #352]	; (1d378 <__ieee754_pow+0x630>)
   1d218:	4b56      	ldr	r3, [pc, #344]	; (1d374 <__ieee754_pow+0x62c>)
   1d21a:	f7fe fe51 	bl	1bec0 <__aeabi_dmul>
   1d21e:	4a57      	ldr	r2, [pc, #348]	; (1d37c <__ieee754_pow+0x634>)
   1d220:	0004      	movs	r4, r0
   1d222:	000d      	movs	r5, r1
   1d224:	9800      	ldr	r0, [sp, #0]
   1d226:	9901      	ldr	r1, [sp, #4]
   1d228:	4b55      	ldr	r3, [pc, #340]	; (1d380 <__ieee754_pow+0x638>)
   1d22a:	f7fe fe49 	bl	1bec0 <__aeabi_dmul>
   1d22e:	0002      	movs	r2, r0
   1d230:	000b      	movs	r3, r1
   1d232:	0020      	movs	r0, r4
   1d234:	0029      	movs	r1, r5
   1d236:	f000 fcdd 	bl	1dbf4 <__aeabi_dadd>
   1d23a:	9a10      	ldr	r2, [sp, #64]	; 0x40
   1d23c:	9b11      	ldr	r3, [sp, #68]	; 0x44
   1d23e:	f000 fcd9 	bl	1dbf4 <__aeabi_dadd>
   1d242:	9006      	str	r0, [sp, #24]
   1d244:	9107      	str	r1, [sp, #28]
   1d246:	4640      	mov	r0, r8
   1d248:	f001 fe56 	bl	1eef8 <__aeabi_i2d>
   1d24c:	9a06      	ldr	r2, [sp, #24]
   1d24e:	9b07      	ldr	r3, [sp, #28]
   1d250:	0004      	movs	r4, r0
   1d252:	000d      	movs	r5, r1
   1d254:	9802      	ldr	r0, [sp, #8]
   1d256:	9903      	ldr	r1, [sp, #12]
   1d258:	f000 fccc 	bl	1dbf4 <__aeabi_dadd>
   1d25c:	9a0e      	ldr	r2, [sp, #56]	; 0x38
   1d25e:	9b0f      	ldr	r3, [sp, #60]	; 0x3c
   1d260:	f000 fcc8 	bl	1dbf4 <__aeabi_dadd>
   1d264:	0022      	movs	r2, r4
   1d266:	002b      	movs	r3, r5
   1d268:	f000 fcc4 	bl	1dbf4 <__aeabi_dadd>
   1d26c:	2000      	movs	r0, #0
   1d26e:	0022      	movs	r2, r4
   1d270:	002b      	movs	r3, r5
   1d272:	9000      	str	r0, [sp, #0]
   1d274:	9101      	str	r1, [sp, #4]
   1d276:	f001 fadb 	bl	1e830 <__aeabi_dsub>
   1d27a:	9a0e      	ldr	r2, [sp, #56]	; 0x38
   1d27c:	9b0f      	ldr	r3, [sp, #60]	; 0x3c
   1d27e:	f001 fad7 	bl	1e830 <__aeabi_dsub>
   1d282:	9a02      	ldr	r2, [sp, #8]
   1d284:	9b03      	ldr	r3, [sp, #12]
   1d286:	f001 fad3 	bl	1e830 <__aeabi_dsub>
   1d28a:	0002      	movs	r2, r0
   1d28c:	000b      	movs	r3, r1
   1d28e:	9806      	ldr	r0, [sp, #24]
   1d290:	9907      	ldr	r1, [sp, #28]
   1d292:	f001 facd 	bl	1e830 <__aeabi_dsub>
   1d296:	9006      	str	r0, [sp, #24]
   1d298:	9107      	str	r1, [sp, #28]
   1d29a:	464a      	mov	r2, r9
   1d29c:	9b04      	ldr	r3, [sp, #16]
   1d29e:	3b01      	subs	r3, #1
   1d2a0:	4313      	orrs	r3, r2
   1d2a2:	d100      	bne.n	1d2a6 <__ieee754_pow+0x55e>
   1d2a4:	e188      	b.n	1d5b8 <__ieee754_pow+0x870>
   1d2a6:	2300      	movs	r3, #0
   1d2a8:	4c21      	ldr	r4, [pc, #132]	; (1d330 <__ieee754_pow+0x5e8>)
   1d2aa:	9302      	str	r3, [sp, #8]
   1d2ac:	9403      	str	r4, [sp, #12]
   1d2ae:	2200      	movs	r2, #0
   1d2b0:	003b      	movs	r3, r7
   1d2b2:	0030      	movs	r0, r6
   1d2b4:	0039      	movs	r1, r7
   1d2b6:	0014      	movs	r4, r2
   1d2b8:	f001 faba 	bl	1e830 <__aeabi_dsub>
   1d2bc:	9a00      	ldr	r2, [sp, #0]
   1d2be:	9b01      	ldr	r3, [sp, #4]
   1d2c0:	f7fe fdfe 	bl	1bec0 <__aeabi_dmul>
   1d2c4:	0032      	movs	r2, r6
   1d2c6:	003b      	movs	r3, r7
   1d2c8:	9004      	str	r0, [sp, #16]
   1d2ca:	9105      	str	r1, [sp, #20]
   1d2cc:	9806      	ldr	r0, [sp, #24]
   1d2ce:	9907      	ldr	r1, [sp, #28]
   1d2d0:	f7fe fdf6 	bl	1bec0 <__aeabi_dmul>
   1d2d4:	0002      	movs	r2, r0
   1d2d6:	000b      	movs	r3, r1
   1d2d8:	9804      	ldr	r0, [sp, #16]
   1d2da:	9905      	ldr	r1, [sp, #20]
   1d2dc:	f000 fc8a 	bl	1dbf4 <__aeabi_dadd>
   1d2e0:	003d      	movs	r5, r7
   1d2e2:	0006      	movs	r6, r0
   1d2e4:	000f      	movs	r7, r1
   1d2e6:	9800      	ldr	r0, [sp, #0]
   1d2e8:	9901      	ldr	r1, [sp, #4]
   1d2ea:	0022      	movs	r2, r4
   1d2ec:	002b      	movs	r3, r5
   1d2ee:	9604      	str	r6, [sp, #16]
   1d2f0:	9705      	str	r7, [sp, #20]
   1d2f2:	f7fe fde5 	bl	1bec0 <__aeabi_dmul>
   1d2f6:	0002      	movs	r2, r0
   1d2f8:	000b      	movs	r3, r1
   1d2fa:	0030      	movs	r0, r6
   1d2fc:	0039      	movs	r1, r7
   1d2fe:	9200      	str	r2, [sp, #0]
   1d300:	9301      	str	r3, [sp, #4]
   1d302:	f000 fc77 	bl	1dbf4 <__aeabi_dadd>
   1d306:	4b1f      	ldr	r3, [pc, #124]	; (1d384 <__ieee754_pow+0x63c>)
   1d308:	0004      	movs	r4, r0
   1d30a:	000d      	movs	r5, r1
   1d30c:	468b      	mov	fp, r1
   1d30e:	0002      	movs	r2, r0
   1d310:	4299      	cmp	r1, r3
   1d312:	dc00      	bgt.n	1d316 <__ieee754_pow+0x5ce>
   1d314:	e155      	b.n	1d5c2 <__ieee754_pow+0x87a>
   1d316:	4b1c      	ldr	r3, [pc, #112]	; (1d388 <__ieee754_pow+0x640>)
   1d318:	18cb      	adds	r3, r1, r3
   1d31a:	4303      	orrs	r3, r0
   1d31c:	d000      	beq.n	1d320 <__ieee754_pow+0x5d8>
   1d31e:	e1fb      	b.n	1d718 <__ieee754_pow+0x9d0>
   1d320:	e034      	b.n	1d38c <__ieee754_pow+0x644>
   1d322:	46c0      	nop			; (mov r8, r8)
   1d324:	ffff 000f 	vaddl.u<illegal width 64>	q8, d15, d15
   1d328:	0000      	movs	r0, r0
   1d32a:	4340      	muls	r0, r0
   1d32c:	fc01 ffff 	stc2	15, cr15, [r1], {255}	; 0xff
   1d330:	0000      	movs	r0, r0
   1d332:	3ff0      	subs	r7, #240	; 0xf0
   1d334:	988e      	ldr	r0, [sp, #568]	; 0x238
   1d336:	0003      	movs	r3, r0
   1d338:	b679      			; <UNDEFINED> instruction: 0xb679
   1d33a:	000b      	movs	r3, r1
   1d33c:	0000      	movs	r0, r0
   1d33e:	fff0 4eef 	vqrdmlah.s<illegal width 64>	q10, q8, d31[0]
   1d342:	4a45      	ldr	r2, [pc, #276]	; (1d458 <__ieee754_pow+0x710>)
   1d344:	7e28      	ldrb	r0, [r5, #24]
   1d346:	3fca      	subs	r7, #202	; 0xca
   1d348:	db65      	blt.n	1d416 <__ieee754_pow+0x6ce>
   1d34a:	93c9      	str	r3, [sp, #804]	; 0x324
   1d34c:	864a      	strh	r2, [r1, #50]	; 0x32
   1d34e:	3fcd      	subs	r7, #205	; 0xcd
   1d350:	4101      	asrs	r1, r0
   1d352:	a91d      	add	r1, sp, #116	; 0x74
   1d354:	7460      	strb	r0, [r4, #17]
   1d356:	3fd1      	subs	r7, #209	; 0xd1
   1d358:	264d      	movs	r6, #77	; 0x4d
   1d35a:	518f      	str	r7, [r1, r6]
   1d35c:	5555      	strb	r5, [r2, r5]
   1d35e:	3fd5      	subs	r7, #213	; 0xd5
   1d360:	abff      	add	r3, sp, #1020	; 0x3fc
   1d362:	db6f      	blt.n	1d444 <__ieee754_pow+0x6fc>
   1d364:	6db6      	ldr	r6, [r6, #88]	; 0x58
   1d366:	3fdb      	subs	r7, #219	; 0xdb
   1d368:	3303      	adds	r3, #3
   1d36a:	3333      	adds	r3, #51	; 0x33
   1d36c:	3333      	adds	r3, #51	; 0x33
   1d36e:	3fe3      	subs	r7, #227	; 0xe3
   1d370:	0000      	movs	r0, r0
   1d372:	4008      	ands	r0, r1
   1d374:	c709      	stmia	r7!, {r0, r3}
   1d376:	3fee      	subs	r7, #238	; 0xee
   1d378:	03fd      	lsls	r5, r7, #15
   1d37a:	dc3a      	bgt.n	1d3f2 <__ieee754_pow+0x6aa>
   1d37c:	01f5      	lsls	r5, r6, #7
   1d37e:	145b      	asrs	r3, r3, #17
   1d380:	2fe0      	cmp	r7, #224	; 0xe0
   1d382:	be3e      	bkpt	0x003e
   1d384:	ffff 408f 	vaddl.u<illegal width 64>	q10, d31, d15
   1d388:	0000      	movs	r0, r0
   1d38a:	bf70      	nop	{7}
   1d38c:	9804      	ldr	r0, [sp, #16]
   1d38e:	9905      	ldr	r1, [sp, #20]
   1d390:	4ae8      	ldr	r2, [pc, #928]	; (1d734 <__ieee754_pow+0x9ec>)
   1d392:	4be9      	ldr	r3, [pc, #932]	; (1d738 <__ieee754_pow+0x9f0>)
   1d394:	f000 fc2e 	bl	1dbf4 <__aeabi_dadd>
   1d398:	9a00      	ldr	r2, [sp, #0]
   1d39a:	9b01      	ldr	r3, [sp, #4]
   1d39c:	0006      	movs	r6, r0
   1d39e:	000f      	movs	r7, r1
   1d3a0:	0020      	movs	r0, r4
   1d3a2:	0029      	movs	r1, r5
   1d3a4:	f001 fa44 	bl	1e830 <__aeabi_dsub>
   1d3a8:	0002      	movs	r2, r0
   1d3aa:	000b      	movs	r3, r1
   1d3ac:	0030      	movs	r0, r6
   1d3ae:	0039      	movs	r1, r7
   1d3b0:	f7fd fd06 	bl	1adc0 <__aeabi_dcmpgt>
   1d3b4:	46aa      	mov	sl, r5
   1d3b6:	2800      	cmp	r0, #0
   1d3b8:	d000      	beq.n	1d3bc <__ieee754_pow+0x674>
   1d3ba:	e1ad      	b.n	1d718 <__ieee754_pow+0x9d0>
   1d3bc:	2480      	movs	r4, #128	; 0x80
   1d3be:	4adf      	ldr	r2, [pc, #892]	; (1d73c <__ieee754_pow+0x9f4>)
   1d3c0:	4653      	mov	r3, sl
   1d3c2:	4694      	mov	ip, r2
   1d3c4:	0364      	lsls	r4, r4, #13
   1d3c6:	0022      	movs	r2, r4
   1d3c8:	151b      	asrs	r3, r3, #20
   1d3ca:	4463      	add	r3, ip
   1d3cc:	411a      	asrs	r2, r3
   1d3ce:	0013      	movs	r3, r2
   1d3d0:	49db      	ldr	r1, [pc, #876]	; (1d740 <__ieee754_pow+0x9f8>)
   1d3d2:	445b      	add	r3, fp
   1d3d4:	005a      	lsls	r2, r3, #1
   1d3d6:	001e      	movs	r6, r3
   1d3d8:	031b      	lsls	r3, r3, #12
   1d3da:	468c      	mov	ip, r1
   1d3dc:	0b1b      	lsrs	r3, r3, #12
   1d3de:	4323      	orrs	r3, r4
   1d3e0:	2414      	movs	r4, #20
   1d3e2:	0d52      	lsrs	r2, r2, #21
   1d3e4:	4dd7      	ldr	r5, [pc, #860]	; (1d744 <__ieee754_pow+0x9fc>)
   1d3e6:	4462      	add	r2, ip
   1d3e8:	4115      	asrs	r5, r2
   1d3ea:	1aa2      	subs	r2, r4, r2
   1d3ec:	4113      	asrs	r3, r2
   1d3ee:	4699      	mov	r9, r3
   1d3f0:	465b      	mov	r3, fp
   1d3f2:	43ae      	bics	r6, r5
   1d3f4:	2000      	movs	r0, #0
   1d3f6:	0031      	movs	r1, r6
   1d3f8:	2b00      	cmp	r3, #0
   1d3fa:	da02      	bge.n	1d402 <__ieee754_pow+0x6ba>
   1d3fc:	464b      	mov	r3, r9
   1d3fe:	425b      	negs	r3, r3
   1d400:	4699      	mov	r9, r3
   1d402:	0002      	movs	r2, r0
   1d404:	000b      	movs	r3, r1
   1d406:	9800      	ldr	r0, [sp, #0]
   1d408:	9901      	ldr	r1, [sp, #4]
   1d40a:	f001 fa11 	bl	1e830 <__aeabi_dsub>
   1d40e:	464b      	mov	r3, r9
   1d410:	051b      	lsls	r3, r3, #20
   1d412:	9000      	str	r0, [sp, #0]
   1d414:	9101      	str	r1, [sp, #4]
   1d416:	0002      	movs	r2, r0
   1d418:	4698      	mov	r8, r3
   1d41a:	000b      	movs	r3, r1
   1d41c:	9804      	ldr	r0, [sp, #16]
   1d41e:	9905      	ldr	r1, [sp, #20]
   1d420:	f000 fbe8 	bl	1dbf4 <__aeabi_dadd>
   1d424:	000d      	movs	r5, r1
   1d426:	2400      	movs	r4, #0
   1d428:	2200      	movs	r2, #0
   1d42a:	4bc7      	ldr	r3, [pc, #796]	; (1d748 <__ieee754_pow+0xa00>)
   1d42c:	0020      	movs	r0, r4
   1d42e:	0029      	movs	r1, r5
   1d430:	f7fe fd46 	bl	1bec0 <__aeabi_dmul>
   1d434:	9a00      	ldr	r2, [sp, #0]
   1d436:	9b01      	ldr	r3, [sp, #4]
   1d438:	9006      	str	r0, [sp, #24]
   1d43a:	9107      	str	r1, [sp, #28]
   1d43c:	0020      	movs	r0, r4
   1d43e:	0029      	movs	r1, r5
   1d440:	f001 f9f6 	bl	1e830 <__aeabi_dsub>
   1d444:	0002      	movs	r2, r0
   1d446:	000b      	movs	r3, r1
   1d448:	9804      	ldr	r0, [sp, #16]
   1d44a:	9905      	ldr	r1, [sp, #20]
   1d44c:	f001 f9f0 	bl	1e830 <__aeabi_dsub>
   1d450:	4abe      	ldr	r2, [pc, #760]	; (1d74c <__ieee754_pow+0xa04>)
   1d452:	4bbf      	ldr	r3, [pc, #764]	; (1d750 <__ieee754_pow+0xa08>)
   1d454:	f7fe fd34 	bl	1bec0 <__aeabi_dmul>
   1d458:	4abe      	ldr	r2, [pc, #760]	; (1d754 <__ieee754_pow+0xa0c>)
   1d45a:	0006      	movs	r6, r0
   1d45c:	000f      	movs	r7, r1
   1d45e:	4bbe      	ldr	r3, [pc, #760]	; (1d758 <__ieee754_pow+0xa10>)
   1d460:	0020      	movs	r0, r4
   1d462:	0029      	movs	r1, r5
   1d464:	f7fe fd2c 	bl	1bec0 <__aeabi_dmul>
   1d468:	0002      	movs	r2, r0
   1d46a:	000b      	movs	r3, r1
   1d46c:	0030      	movs	r0, r6
   1d46e:	0039      	movs	r1, r7
   1d470:	f000 fbc0 	bl	1dbf4 <__aeabi_dadd>
   1d474:	0004      	movs	r4, r0
   1d476:	000d      	movs	r5, r1
   1d478:	0002      	movs	r2, r0
   1d47a:	000b      	movs	r3, r1
   1d47c:	9806      	ldr	r0, [sp, #24]
   1d47e:	9907      	ldr	r1, [sp, #28]
   1d480:	f000 fbb8 	bl	1dbf4 <__aeabi_dadd>
   1d484:	9a06      	ldr	r2, [sp, #24]
   1d486:	9b07      	ldr	r3, [sp, #28]
   1d488:	0006      	movs	r6, r0
   1d48a:	000f      	movs	r7, r1
   1d48c:	f001 f9d0 	bl	1e830 <__aeabi_dsub>
   1d490:	0002      	movs	r2, r0
   1d492:	000b      	movs	r3, r1
   1d494:	0020      	movs	r0, r4
   1d496:	0029      	movs	r1, r5
   1d498:	f001 f9ca 	bl	1e830 <__aeabi_dsub>
   1d49c:	0032      	movs	r2, r6
   1d49e:	9000      	str	r0, [sp, #0]
   1d4a0:	9101      	str	r1, [sp, #4]
   1d4a2:	003b      	movs	r3, r7
   1d4a4:	0030      	movs	r0, r6
   1d4a6:	0039      	movs	r1, r7
   1d4a8:	f7fe fd0a 	bl	1bec0 <__aeabi_dmul>
   1d4ac:	0004      	movs	r4, r0
   1d4ae:	000d      	movs	r5, r1
   1d4b0:	4aaa      	ldr	r2, [pc, #680]	; (1d75c <__ieee754_pow+0xa14>)
   1d4b2:	4bab      	ldr	r3, [pc, #684]	; (1d760 <__ieee754_pow+0xa18>)
   1d4b4:	f7fe fd04 	bl	1bec0 <__aeabi_dmul>
   1d4b8:	4aaa      	ldr	r2, [pc, #680]	; (1d764 <__ieee754_pow+0xa1c>)
   1d4ba:	4bab      	ldr	r3, [pc, #684]	; (1d768 <__ieee754_pow+0xa20>)
   1d4bc:	f001 f9b8 	bl	1e830 <__aeabi_dsub>
   1d4c0:	0022      	movs	r2, r4
   1d4c2:	002b      	movs	r3, r5
   1d4c4:	f7fe fcfc 	bl	1bec0 <__aeabi_dmul>
   1d4c8:	4aa8      	ldr	r2, [pc, #672]	; (1d76c <__ieee754_pow+0xa24>)
   1d4ca:	4ba9      	ldr	r3, [pc, #676]	; (1d770 <__ieee754_pow+0xa28>)
   1d4cc:	f000 fb92 	bl	1dbf4 <__aeabi_dadd>
   1d4d0:	0022      	movs	r2, r4
   1d4d2:	002b      	movs	r3, r5
   1d4d4:	f7fe fcf4 	bl	1bec0 <__aeabi_dmul>
   1d4d8:	4aa6      	ldr	r2, [pc, #664]	; (1d774 <__ieee754_pow+0xa2c>)
   1d4da:	4ba7      	ldr	r3, [pc, #668]	; (1d778 <__ieee754_pow+0xa30>)
   1d4dc:	f001 f9a8 	bl	1e830 <__aeabi_dsub>
   1d4e0:	0022      	movs	r2, r4
   1d4e2:	002b      	movs	r3, r5
   1d4e4:	f7fe fcec 	bl	1bec0 <__aeabi_dmul>
   1d4e8:	4aa4      	ldr	r2, [pc, #656]	; (1d77c <__ieee754_pow+0xa34>)
   1d4ea:	4ba5      	ldr	r3, [pc, #660]	; (1d780 <__ieee754_pow+0xa38>)
   1d4ec:	f000 fb82 	bl	1dbf4 <__aeabi_dadd>
   1d4f0:	0022      	movs	r2, r4
   1d4f2:	002b      	movs	r3, r5
   1d4f4:	f7fe fce4 	bl	1bec0 <__aeabi_dmul>
   1d4f8:	0002      	movs	r2, r0
   1d4fa:	000b      	movs	r3, r1
   1d4fc:	0030      	movs	r0, r6
   1d4fe:	0039      	movs	r1, r7
   1d500:	f001 f996 	bl	1e830 <__aeabi_dsub>
   1d504:	0004      	movs	r4, r0
   1d506:	000d      	movs	r5, r1
   1d508:	0002      	movs	r2, r0
   1d50a:	000b      	movs	r3, r1
   1d50c:	0030      	movs	r0, r6
   1d50e:	0039      	movs	r1, r7
   1d510:	f7fe fcd6 	bl	1bec0 <__aeabi_dmul>
   1d514:	2380      	movs	r3, #128	; 0x80
   1d516:	9004      	str	r0, [sp, #16]
   1d518:	9105      	str	r1, [sp, #20]
   1d51a:	2200      	movs	r2, #0
   1d51c:	05db      	lsls	r3, r3, #23
   1d51e:	0020      	movs	r0, r4
   1d520:	0029      	movs	r1, r5
   1d522:	f001 f985 	bl	1e830 <__aeabi_dsub>
   1d526:	0002      	movs	r2, r0
   1d528:	000b      	movs	r3, r1
   1d52a:	9804      	ldr	r0, [sp, #16]
   1d52c:	9905      	ldr	r1, [sp, #20]
   1d52e:	f000 fe7d 	bl	1e22c <__aeabi_ddiv>
   1d532:	9a00      	ldr	r2, [sp, #0]
   1d534:	9b01      	ldr	r3, [sp, #4]
   1d536:	0004      	movs	r4, r0
   1d538:	000d      	movs	r5, r1
   1d53a:	0030      	movs	r0, r6
   1d53c:	0039      	movs	r1, r7
   1d53e:	f7fe fcbf 	bl	1bec0 <__aeabi_dmul>
   1d542:	9a00      	ldr	r2, [sp, #0]
   1d544:	9b01      	ldr	r3, [sp, #4]
   1d546:	f000 fb55 	bl	1dbf4 <__aeabi_dadd>
   1d54a:	0002      	movs	r2, r0
   1d54c:	000b      	movs	r3, r1
   1d54e:	0020      	movs	r0, r4
   1d550:	0029      	movs	r1, r5
   1d552:	f001 f96d 	bl	1e830 <__aeabi_dsub>
   1d556:	0032      	movs	r2, r6
   1d558:	003b      	movs	r3, r7
   1d55a:	f001 f969 	bl	1e830 <__aeabi_dsub>
   1d55e:	0002      	movs	r2, r0
   1d560:	000b      	movs	r3, r1
   1d562:	2000      	movs	r0, #0
   1d564:	4987      	ldr	r1, [pc, #540]	; (1d784 <__ieee754_pow+0xa3c>)
   1d566:	f001 f963 	bl	1e830 <__aeabi_dsub>
   1d56a:	4643      	mov	r3, r8
   1d56c:	185b      	adds	r3, r3, r1
   1d56e:	151a      	asrs	r2, r3, #20
   1d570:	2a00      	cmp	r2, #0
   1d572:	dc00      	bgt.n	1d576 <__ieee754_pow+0x82e>
   1d574:	e13f      	b.n	1d7f6 <__ieee754_pow+0xaae>
   1d576:	0019      	movs	r1, r3
   1d578:	9a02      	ldr	r2, [sp, #8]
   1d57a:	9b03      	ldr	r3, [sp, #12]
   1d57c:	f7fe fca0 	bl	1bec0 <__aeabi_dmul>
   1d580:	9000      	str	r0, [sp, #0]
   1d582:	9101      	str	r1, [sp, #4]
   1d584:	f7ff fc02 	bl	1cd8c <__ieee754_pow+0x44>
   1d588:	4653      	mov	r3, sl
   1d58a:	2b00      	cmp	r3, #0
   1d58c:	da01      	bge.n	1d592 <__ieee754_pow+0x84a>
   1d58e:	f7ff fc25 	bl	1cddc <__ieee754_pow+0x94>
   1d592:	4658      	mov	r0, fp
   1d594:	4651      	mov	r1, sl
   1d596:	f000 f93d 	bl	1d814 <__ieee754_sqrt>
   1d59a:	9000      	str	r0, [sp, #0]
   1d59c:	9101      	str	r1, [sp, #4]
   1d59e:	f7ff fbf5 	bl	1cd8c <__ieee754_pow+0x44>
   1d5a2:	4643      	mov	r3, r8
   1d5a4:	2b00      	cmp	r3, #0
   1d5a6:	db00      	blt.n	1d5aa <__ieee754_pow+0x862>
   1d5a8:	e467      	b.n	1ce7a <__ieee754_pow+0x132>
   1d5aa:	2380      	movs	r3, #128	; 0x80
   1d5ac:	061b      	lsls	r3, r3, #24
   1d5ae:	18fb      	adds	r3, r7, r3
   1d5b0:	9600      	str	r6, [sp, #0]
   1d5b2:	9301      	str	r3, [sp, #4]
   1d5b4:	f7ff fbea 	bl	1cd8c <__ieee754_pow+0x44>
   1d5b8:	2300      	movs	r3, #0
   1d5ba:	4c73      	ldr	r4, [pc, #460]	; (1d788 <__ieee754_pow+0xa40>)
   1d5bc:	9302      	str	r3, [sp, #8]
   1d5be:	9403      	str	r4, [sp, #12]
   1d5c0:	e675      	b.n	1d2ae <__ieee754_pow+0x566>
   1d5c2:	004b      	lsls	r3, r1, #1
   1d5c4:	085b      	lsrs	r3, r3, #1
   1d5c6:	469a      	mov	sl, r3
   1d5c8:	4b70      	ldr	r3, [pc, #448]	; (1d78c <__ieee754_pow+0xa44>)
   1d5ca:	459a      	cmp	sl, r3
   1d5cc:	dc00      	bgt.n	1d5d0 <__ieee754_pow+0x888>
   1d5ce:	e0f9      	b.n	1d7c4 <__ieee754_pow+0xa7c>
   1d5d0:	4b6f      	ldr	r3, [pc, #444]	; (1d790 <__ieee754_pow+0xa48>)
   1d5d2:	445b      	add	r3, fp
   1d5d4:	431a      	orrs	r2, r3
   1d5d6:	d10a      	bne.n	1d5ee <__ieee754_pow+0x8a6>
   1d5d8:	9a00      	ldr	r2, [sp, #0]
   1d5da:	9b01      	ldr	r3, [sp, #4]
   1d5dc:	f001 f928 	bl	1e830 <__aeabi_dsub>
   1d5e0:	9a04      	ldr	r2, [sp, #16]
   1d5e2:	9b05      	ldr	r3, [sp, #20]
   1d5e4:	f7fd fbf6 	bl	1add4 <__aeabi_dcmpge>
   1d5e8:	2800      	cmp	r0, #0
   1d5ea:	d100      	bne.n	1d5ee <__ieee754_pow+0x8a6>
   1d5ec:	e6e6      	b.n	1d3bc <__ieee754_pow+0x674>
   1d5ee:	9802      	ldr	r0, [sp, #8]
   1d5f0:	9903      	ldr	r1, [sp, #12]
   1d5f2:	4a68      	ldr	r2, [pc, #416]	; (1d794 <__ieee754_pow+0xa4c>)
   1d5f4:	4b68      	ldr	r3, [pc, #416]	; (1d798 <__ieee754_pow+0xa50>)
   1d5f6:	f7fe fc63 	bl	1bec0 <__aeabi_dmul>
   1d5fa:	4a66      	ldr	r2, [pc, #408]	; (1d794 <__ieee754_pow+0xa4c>)
   1d5fc:	4b66      	ldr	r3, [pc, #408]	; (1d798 <__ieee754_pow+0xa50>)
   1d5fe:	f7fe fc5f 	bl	1bec0 <__aeabi_dmul>
   1d602:	9000      	str	r0, [sp, #0]
   1d604:	9101      	str	r1, [sp, #4]
   1d606:	f7ff fbc1 	bl	1cd8c <__ieee754_pow+0x44>
   1d60a:	2a00      	cmp	r2, #0
   1d60c:	d001      	beq.n	1d612 <__ieee754_pow+0x8ca>
   1d60e:	f7ff fbe5 	bl	1cddc <__ieee754_pow+0x94>
   1d612:	3214      	adds	r2, #20
   1d614:	1ad3      	subs	r3, r2, r3
   1d616:	0022      	movs	r2, r4
   1d618:	411a      	asrs	r2, r3
   1d61a:	0011      	movs	r1, r2
   1d61c:	4099      	lsls	r1, r3
   1d61e:	42a1      	cmp	r1, r4
   1d620:	d001      	beq.n	1d626 <__ieee754_pow+0x8de>
   1d622:	f7ff fbcd 	bl	1cdc0 <__ieee754_pow+0x78>
   1d626:	2301      	movs	r3, #1
   1d628:	401a      	ands	r2, r3
   1d62a:	18db      	adds	r3, r3, r3
   1d62c:	1a9b      	subs	r3, r3, r2
   1d62e:	9304      	str	r3, [sp, #16]
   1d630:	f7ff fbc6 	bl	1cdc0 <__ieee754_pow+0x78>
   1d634:	4643      	mov	r3, r8
   1d636:	2b00      	cmp	r3, #0
   1d638:	db01      	blt.n	1d63e <__ieee754_pow+0x8f6>
   1d63a:	f7ff fc1e 	bl	1ce7a <__ieee754_pow+0x132>
   1d63e:	f7ff fbf8 	bl	1ce32 <__ieee754_pow+0xea>
   1d642:	4b56      	ldr	r3, [pc, #344]	; (1d79c <__ieee754_pow+0xa54>)
   1d644:	429d      	cmp	r5, r3
   1d646:	ddf5      	ble.n	1d634 <__ieee754_pow+0x8ec>
   1d648:	4b4e      	ldr	r3, [pc, #312]	; (1d784 <__ieee754_pow+0xa3c>)
   1d64a:	429d      	cmp	r5, r3
   1d64c:	dd01      	ble.n	1d652 <__ieee754_pow+0x90a>
   1d64e:	f7ff fbed 	bl	1ce2c <__ieee754_pow+0xe4>
   1d652:	9800      	ldr	r0, [sp, #0]
   1d654:	9901      	ldr	r1, [sp, #4]
   1d656:	2200      	movs	r2, #0
   1d658:	4b4a      	ldr	r3, [pc, #296]	; (1d784 <__ieee754_pow+0xa3c>)
   1d65a:	f001 f8e9 	bl	1e830 <__aeabi_dsub>
   1d65e:	22c0      	movs	r2, #192	; 0xc0
   1d660:	4b4f      	ldr	r3, [pc, #316]	; (1d7a0 <__ieee754_pow+0xa58>)
   1d662:	05d2      	lsls	r2, r2, #23
   1d664:	0004      	movs	r4, r0
   1d666:	000d      	movs	r5, r1
   1d668:	f7fe fc2a 	bl	1bec0 <__aeabi_dmul>
   1d66c:	4a4d      	ldr	r2, [pc, #308]	; (1d7a4 <__ieee754_pow+0xa5c>)
   1d66e:	9002      	str	r0, [sp, #8]
   1d670:	9103      	str	r1, [sp, #12]
   1d672:	4b4d      	ldr	r3, [pc, #308]	; (1d7a8 <__ieee754_pow+0xa60>)
   1d674:	0020      	movs	r0, r4
   1d676:	0029      	movs	r1, r5
   1d678:	f7fe fc22 	bl	1bec0 <__aeabi_dmul>
   1d67c:	2200      	movs	r2, #0
   1d67e:	9000      	str	r0, [sp, #0]
   1d680:	9101      	str	r1, [sp, #4]
   1d682:	4b4a      	ldr	r3, [pc, #296]	; (1d7ac <__ieee754_pow+0xa64>)
   1d684:	0020      	movs	r0, r4
   1d686:	0029      	movs	r1, r5
   1d688:	f7fe fc1a 	bl	1bec0 <__aeabi_dmul>
   1d68c:	0002      	movs	r2, r0
   1d68e:	000b      	movs	r3, r1
   1d690:	4847      	ldr	r0, [pc, #284]	; (1d7b0 <__ieee754_pow+0xa68>)
   1d692:	4948      	ldr	r1, [pc, #288]	; (1d7b4 <__ieee754_pow+0xa6c>)
   1d694:	f001 f8cc 	bl	1e830 <__aeabi_dsub>
   1d698:	0022      	movs	r2, r4
   1d69a:	002b      	movs	r3, r5
   1d69c:	f7fe fc10 	bl	1bec0 <__aeabi_dmul>
   1d6a0:	0002      	movs	r2, r0
   1d6a2:	000b      	movs	r3, r1
   1d6a4:	2000      	movs	r0, #0
   1d6a6:	4944      	ldr	r1, [pc, #272]	; (1d7b8 <__ieee754_pow+0xa70>)
   1d6a8:	f001 f8c2 	bl	1e830 <__aeabi_dsub>
   1d6ac:	0022      	movs	r2, r4
   1d6ae:	9006      	str	r0, [sp, #24]
   1d6b0:	9107      	str	r1, [sp, #28]
   1d6b2:	002b      	movs	r3, r5
   1d6b4:	0020      	movs	r0, r4
   1d6b6:	0029      	movs	r1, r5
   1d6b8:	f7fe fc02 	bl	1bec0 <__aeabi_dmul>
   1d6bc:	0002      	movs	r2, r0
   1d6be:	000b      	movs	r3, r1
   1d6c0:	9806      	ldr	r0, [sp, #24]
   1d6c2:	9907      	ldr	r1, [sp, #28]
   1d6c4:	f7fe fbfc 	bl	1bec0 <__aeabi_dmul>
   1d6c8:	4a1a      	ldr	r2, [pc, #104]	; (1d734 <__ieee754_pow+0x9ec>)
   1d6ca:	4b35      	ldr	r3, [pc, #212]	; (1d7a0 <__ieee754_pow+0xa58>)
   1d6cc:	f7fe fbf8 	bl	1bec0 <__aeabi_dmul>
   1d6d0:	0002      	movs	r2, r0
   1d6d2:	000b      	movs	r3, r1
   1d6d4:	9800      	ldr	r0, [sp, #0]
   1d6d6:	9901      	ldr	r1, [sp, #4]
   1d6d8:	f001 f8aa 	bl	1e830 <__aeabi_dsub>
   1d6dc:	0002      	movs	r2, r0
   1d6de:	000b      	movs	r3, r1
   1d6e0:	0004      	movs	r4, r0
   1d6e2:	000d      	movs	r5, r1
   1d6e4:	9802      	ldr	r0, [sp, #8]
   1d6e6:	9903      	ldr	r1, [sp, #12]
   1d6e8:	f000 fa84 	bl	1dbf4 <__aeabi_dadd>
   1d6ec:	9a02      	ldr	r2, [sp, #8]
   1d6ee:	9b03      	ldr	r3, [sp, #12]
   1d6f0:	2000      	movs	r0, #0
   1d6f2:	9000      	str	r0, [sp, #0]
   1d6f4:	9101      	str	r1, [sp, #4]
   1d6f6:	f001 f89b 	bl	1e830 <__aeabi_dsub>
   1d6fa:	0002      	movs	r2, r0
   1d6fc:	000b      	movs	r3, r1
   1d6fe:	0020      	movs	r0, r4
   1d700:	0029      	movs	r1, r5
   1d702:	f001 f895 	bl	1e830 <__aeabi_dsub>
   1d706:	9006      	str	r0, [sp, #24]
   1d708:	9107      	str	r1, [sp, #28]
   1d70a:	e5c6      	b.n	1d29a <__ieee754_pow+0x552>
   1d70c:	9800      	ldr	r0, [sp, #0]
   1d70e:	9901      	ldr	r1, [sp, #4]
   1d710:	0002      	movs	r2, r0
   1d712:	000b      	movs	r3, r1
   1d714:	f7ff fc11 	bl	1cf3a <__ieee754_pow+0x1f2>
   1d718:	4a28      	ldr	r2, [pc, #160]	; (1d7bc <__ieee754_pow+0xa74>)
   1d71a:	4b29      	ldr	r3, [pc, #164]	; (1d7c0 <__ieee754_pow+0xa78>)
   1d71c:	9802      	ldr	r0, [sp, #8]
   1d71e:	9903      	ldr	r1, [sp, #12]
   1d720:	f7fe fbce 	bl	1bec0 <__aeabi_dmul>
   1d724:	4a25      	ldr	r2, [pc, #148]	; (1d7bc <__ieee754_pow+0xa74>)
   1d726:	4b26      	ldr	r3, [pc, #152]	; (1d7c0 <__ieee754_pow+0xa78>)
   1d728:	f7fe fbca 	bl	1bec0 <__aeabi_dmul>
   1d72c:	9000      	str	r0, [sp, #0]
   1d72e:	9101      	str	r1, [sp, #4]
   1d730:	f7ff fb2c 	bl	1cd8c <__ieee754_pow+0x44>
   1d734:	82fe      	strh	r6, [r7, #22]
   1d736:	652b      	str	r3, [r5, #80]	; 0x50
   1d738:	1547      	asrs	r7, r0, #21
   1d73a:	3c97      	subs	r4, #151	; 0x97
   1d73c:	fc02 ffff 	stc2	15, cr15, [r2], {255}	; 0xff
   1d740:	fc01 ffff 	stc2	15, cr15, [r1], {255}	; 0xff
   1d744:	ffff 000f 	vaddl.u<illegal width 64>	q8, d15, d15
   1d748:	2e43      	cmp	r6, #67	; 0x43
   1d74a:	3fe6      	subs	r7, #230	; 0xe6
   1d74c:	39ef      	subs	r1, #239	; 0xef
   1d74e:	fefa 2e42 	cdp2	14, 15, cr2, cr10, cr2, {2}
   1d752:	3fe6      	subs	r7, #230	; 0xe6
   1d754:	6c39      	ldr	r1, [r7, #64]	; 0x40
   1d756:	0ca8      	lsrs	r0, r5, #18
   1d758:	5c61      	ldrb	r1, [r4, r1]
   1d75a:	be20      	bkpt	0x0020
   1d75c:	a4d0      	add	r4, pc, #832	; (adr r4, 1daa0 <rint+0xb0>)
   1d75e:	72be      	strb	r6, [r7, #10]
   1d760:	3769      	adds	r7, #105	; 0x69
   1d762:	3e66      	subs	r6, #102	; 0x66
   1d764:	6bf1      	ldr	r1, [r6, #60]	; 0x3c
   1d766:	c5d2      	stmia	r5!, {r1, r4, r6, r7}
   1d768:	bd41      	pop	{r0, r6, pc}
   1d76a:	3ebb      	subs	r6, #187	; 0xbb
   1d76c:	de2c      	udf	#44	; 0x2c
   1d76e:	af25      	add	r7, sp, #148	; 0x94
   1d770:	566a      	ldrsb	r2, [r5, r1]
   1d772:	3f11      	subs	r7, #17
   1d774:	bd93      	pop	{r0, r1, r4, r7, pc}
   1d776:	16be      	asrs	r6, r7, #26
   1d778:	c16c      	stmia	r1!, {r2, r3, r5, r6}
   1d77a:	3f66      	subs	r7, #102	; 0x66
   1d77c:	553e      	strb	r6, [r7, r4]
   1d77e:	5555      	strb	r5, [r2, r5]
   1d780:	5555      	strb	r5, [r2, r5]
   1d782:	3fc5      	subs	r7, #197	; 0xc5
   1d784:	0000      	movs	r0, r0
   1d786:	3ff0      	subs	r7, #240	; 0xf0
   1d788:	0000      	movs	r0, r0
   1d78a:	bff0      	nop	{15}
   1d78c:	cbff      	ldmia	r3, {r0, r1, r2, r3, r4, r5, r6, r7}
   1d78e:	4090      	lsls	r0, r2
   1d790:	3400      	adds	r4, #0
   1d792:	3f6f      	subs	r7, #111	; 0x6f
   1d794:	f359 c2f8 	blx	f76d88 <__etext+0xf5795c>
   1d798:	6e1f      	ldr	r7, [r3, #96]	; 0x60
   1d79a:	01a5      	lsls	r5, r4, #6
   1d79c:	fffe 3fef 	vqrdmlsh.s<illegal width 64>	<illegal reg q9.5>, q15, d31[0]
   1d7a0:	1547      	asrs	r7, r0, #21
   1d7a2:	3ff7      	subs	r7, #247	; 0xf7
   1d7a4:	df44      	svc	68	; 0x44
   1d7a6:	f85d ae0b 	ldrt	sl, [sp, #11]
   1d7aa:	3e54      	subs	r6, #84	; 0x54
   1d7ac:	0000      	movs	r0, r0
   1d7ae:	3fd0      	subs	r7, #208	; 0xd0
   1d7b0:	5555      	strb	r5, [r2, r5]
   1d7b2:	5555      	strb	r5, [r2, r5]
   1d7b4:	5555      	strb	r5, [r2, r5]
   1d7b6:	3fd5      	subs	r7, #213	; 0xd5
   1d7b8:	0000      	movs	r0, r0
   1d7ba:	3fe0      	subs	r7, #224	; 0xe0
   1d7bc:	759c      	strb	r4, [r3, #22]
   1d7be:	8800      	ldrh	r0, [r0, #0]
   1d7c0:	e43c      	b.n	1d03c <__ieee754_pow+0x2f4>
   1d7c2:	7e37      	ldrb	r7, [r6, #24]
   1d7c4:	2200      	movs	r2, #0
   1d7c6:	4b0e      	ldr	r3, [pc, #56]	; (1d800 <__ieee754_pow+0xab8>)
   1d7c8:	4690      	mov	r8, r2
   1d7ca:	4691      	mov	r9, r2
   1d7cc:	459a      	cmp	sl, r3
   1d7ce:	dc00      	bgt.n	1d7d2 <__ieee754_pow+0xa8a>
   1d7d0:	e629      	b.n	1d426 <__ieee754_pow+0x6de>
   1d7d2:	e5f3      	b.n	1d3bc <__ieee754_pow+0x674>
   1d7d4:	2280      	movs	r2, #128	; 0x80
   1d7d6:	4b0b      	ldr	r3, [pc, #44]	; (1d804 <__ieee754_pow+0xabc>)
   1d7d8:	05d2      	lsls	r2, r2, #23
   1d7da:	920e      	str	r2, [sp, #56]	; 0x38
   1d7dc:	930f      	str	r3, [sp, #60]	; 0x3c
   1d7de:	4a0a      	ldr	r2, [pc, #40]	; (1d808 <__ieee754_pow+0xac0>)
   1d7e0:	4b0a      	ldr	r3, [pc, #40]	; (1d80c <__ieee754_pow+0xac4>)
   1d7e2:	2580      	movs	r5, #128	; 0x80
   1d7e4:	9210      	str	r2, [sp, #64]	; 0x40
   1d7e6:	9311      	str	r3, [sp, #68]	; 0x44
   1d7e8:	2200      	movs	r2, #0
   1d7ea:	4b09      	ldr	r3, [pc, #36]	; (1d810 <__ieee754_pow+0xac8>)
   1d7ec:	02ed      	lsls	r5, r5, #11
   1d7ee:	9206      	str	r2, [sp, #24]
   1d7f0:	9307      	str	r3, [sp, #28]
   1d7f2:	f7ff fbff 	bl	1cff4 <__ieee754_pow+0x2ac>
   1d7f6:	464a      	mov	r2, r9
   1d7f8:	f000 f98a 	bl	1db10 <scalbn>
   1d7fc:	e6bc      	b.n	1d578 <__ieee754_pow+0x830>
   1d7fe:	46c0      	nop			; (mov r8, r8)
   1d800:	0000      	movs	r0, r0
   1d802:	3fe0      	subs	r7, #224	; 0xe0
   1d804:	b803      			; <UNDEFINED> instruction: 0xb803
   1d806:	3fe2      	subs	r7, #226	; 0xe2
   1d808:	d006      	beq.n	1d818 <__ieee754_sqrt+0x4>
   1d80a:	43cf      	mvns	r7, r1
   1d80c:	fdeb 3e4c 	stc2l	14, cr3, [fp, #304]!	; 0x130
   1d810:	0000      	movs	r0, r0
   1d812:	3ff8      	subs	r7, #248	; 0xf8

0001d814 <__ieee754_sqrt>:
   1d814:	b5f8      	push	{r3, r4, r5, r6, r7, lr}
   1d816:	4647      	mov	r7, r8
   1d818:	46ce      	mov	lr, r9
   1d81a:	4b67      	ldr	r3, [pc, #412]	; (1d9b8 <__ieee754_sqrt+0x1a4>)
   1d81c:	b580      	push	{r7, lr}
   1d81e:	000a      	movs	r2, r1
   1d820:	000f      	movs	r7, r1
   1d822:	0019      	movs	r1, r3
   1d824:	0005      	movs	r5, r0
   1d826:	4039      	ands	r1, r7
   1d828:	4299      	cmp	r1, r3
   1d82a:	d100      	bne.n	1d82e <__ieee754_sqrt+0x1a>
   1d82c:	e09b      	b.n	1d966 <__ieee754_sqrt+0x152>
   1d82e:	0004      	movs	r4, r0
   1d830:	0001      	movs	r1, r0
   1d832:	2f00      	cmp	r7, #0
   1d834:	dd69      	ble.n	1d90a <__ieee754_sqrt+0xf6>
   1d836:	153f      	asrs	r7, r7, #20
   1d838:	d100      	bne.n	1d83c <__ieee754_sqrt+0x28>
   1d83a:	e0b4      	b.n	1d9a6 <__ieee754_sqrt+0x192>
   1d83c:	4b5f      	ldr	r3, [pc, #380]	; (1d9bc <__ieee754_sqrt+0x1a8>)
   1d83e:	0312      	lsls	r2, r2, #12
   1d840:	469c      	mov	ip, r3
   1d842:	2380      	movs	r3, #128	; 0x80
   1d844:	0b12      	lsrs	r2, r2, #12
   1d846:	035b      	lsls	r3, r3, #13
   1d848:	4313      	orrs	r3, r2
   1d84a:	005b      	lsls	r3, r3, #1
   1d84c:	0fca      	lsrs	r2, r1, #31
   1d84e:	4467      	add	r7, ip
   1d850:	189b      	adds	r3, r3, r2
   1d852:	004a      	lsls	r2, r1, #1
   1d854:	07f8      	lsls	r0, r7, #31
   1d856:	d503      	bpl.n	1d860 <__ieee754_sqrt+0x4c>
   1d858:	0fd2      	lsrs	r2, r2, #31
   1d85a:	005b      	lsls	r3, r3, #1
   1d85c:	189b      	adds	r3, r3, r2
   1d85e:	008a      	lsls	r2, r1, #2
   1d860:	1079      	asrs	r1, r7, #1
   1d862:	468c      	mov	ip, r1
   1d864:	2100      	movs	r1, #0
   1d866:	2080      	movs	r0, #128	; 0x80
   1d868:	2416      	movs	r4, #22
   1d86a:	4689      	mov	r9, r1
   1d86c:	0380      	lsls	r0, r0, #14
   1d86e:	180d      	adds	r5, r1, r0
   1d870:	429d      	cmp	r5, r3
   1d872:	dc02      	bgt.n	1d87a <__ieee754_sqrt+0x66>
   1d874:	1829      	adds	r1, r5, r0
   1d876:	1b5b      	subs	r3, r3, r5
   1d878:	4481      	add	r9, r0
   1d87a:	0fd5      	lsrs	r5, r2, #31
   1d87c:	005b      	lsls	r3, r3, #1
   1d87e:	3c01      	subs	r4, #1
   1d880:	195b      	adds	r3, r3, r5
   1d882:	0052      	lsls	r2, r2, #1
   1d884:	0840      	lsrs	r0, r0, #1
   1d886:	2c00      	cmp	r4, #0
   1d888:	d1f1      	bne.n	1d86e <__ieee754_sqrt+0x5a>
   1d88a:	2000      	movs	r0, #0
   1d88c:	4680      	mov	r8, r0
   1d88e:	2080      	movs	r0, #128	; 0x80
   1d890:	2520      	movs	r5, #32
   1d892:	2700      	movs	r7, #0
   1d894:	0600      	lsls	r0, r0, #24
   1d896:	e009      	b.n	1d8ac <__ieee754_sqrt+0x98>
   1d898:	428b      	cmp	r3, r1
   1d89a:	d05c      	beq.n	1d956 <__ieee754_sqrt+0x142>
   1d89c:	0fd4      	lsrs	r4, r2, #31
   1d89e:	005b      	lsls	r3, r3, #1
   1d8a0:	3d01      	subs	r5, #1
   1d8a2:	18e3      	adds	r3, r4, r3
   1d8a4:	0052      	lsls	r2, r2, #1
   1d8a6:	0840      	lsrs	r0, r0, #1
   1d8a8:	2d00      	cmp	r5, #0
   1d8aa:	d016      	beq.n	1d8da <__ieee754_sqrt+0xc6>
   1d8ac:	19c4      	adds	r4, r0, r7
   1d8ae:	428b      	cmp	r3, r1
   1d8b0:	ddf2      	ble.n	1d898 <__ieee754_sqrt+0x84>
   1d8b2:	1827      	adds	r7, r4, r0
   1d8b4:	000e      	movs	r6, r1
   1d8b6:	2c00      	cmp	r4, #0
   1d8b8:	db49      	blt.n	1d94e <__ieee754_sqrt+0x13a>
   1d8ba:	1a5b      	subs	r3, r3, r1
   1d8bc:	42a2      	cmp	r2, r4
   1d8be:	4189      	sbcs	r1, r1
   1d8c0:	4249      	negs	r1, r1
   1d8c2:	1a5b      	subs	r3, r3, r1
   1d8c4:	1b12      	subs	r2, r2, r4
   1d8c6:	0fd4      	lsrs	r4, r2, #31
   1d8c8:	005b      	lsls	r3, r3, #1
   1d8ca:	3d01      	subs	r5, #1
   1d8cc:	4480      	add	r8, r0
   1d8ce:	0031      	movs	r1, r6
   1d8d0:	18e3      	adds	r3, r4, r3
   1d8d2:	0052      	lsls	r2, r2, #1
   1d8d4:	0840      	lsrs	r0, r0, #1
   1d8d6:	2d00      	cmp	r5, #0
   1d8d8:	d1e8      	bne.n	1d8ac <__ieee754_sqrt+0x98>
   1d8da:	4313      	orrs	r3, r2
   1d8dc:	d14e      	bne.n	1d97c <__ieee754_sqrt+0x168>
   1d8de:	4643      	mov	r3, r8
   1d8e0:	085b      	lsrs	r3, r3, #1
   1d8e2:	4937      	ldr	r1, [pc, #220]	; (1d9c0 <__ieee754_sqrt+0x1ac>)
   1d8e4:	464a      	mov	r2, r9
   1d8e6:	4688      	mov	r8, r1
   1d8e8:	4649      	mov	r1, r9
   1d8ea:	1052      	asrs	r2, r2, #1
   1d8ec:	4442      	add	r2, r8
   1d8ee:	07c9      	lsls	r1, r1, #31
   1d8f0:	d502      	bpl.n	1d8f8 <__ieee754_sqrt+0xe4>
   1d8f2:	2180      	movs	r1, #128	; 0x80
   1d8f4:	0609      	lsls	r1, r1, #24
   1d8f6:	430b      	orrs	r3, r1
   1d8f8:	4661      	mov	r1, ip
   1d8fa:	050f      	lsls	r7, r1, #20
   1d8fc:	18bd      	adds	r5, r7, r2
   1d8fe:	0018      	movs	r0, r3
   1d900:	0029      	movs	r1, r5
   1d902:	bc0c      	pop	{r2, r3}
   1d904:	4690      	mov	r8, r2
   1d906:	4699      	mov	r9, r3
   1d908:	bdf8      	pop	{r3, r4, r5, r6, r7, pc}
   1d90a:	007b      	lsls	r3, r7, #1
   1d90c:	085b      	lsrs	r3, r3, #1
   1d90e:	4303      	orrs	r3, r0
   1d910:	0039      	movs	r1, r7
   1d912:	2b00      	cmp	r3, #0
   1d914:	d0f5      	beq.n	1d902 <__ieee754_sqrt+0xee>
   1d916:	2f00      	cmp	r7, #0
   1d918:	d13c      	bne.n	1d994 <__ieee754_sqrt+0x180>
   1d91a:	0ae3      	lsrs	r3, r4, #11
   1d91c:	3a15      	subs	r2, #21
   1d91e:	0564      	lsls	r4, r4, #21
   1d920:	2b00      	cmp	r3, #0
   1d922:	d0fa      	beq.n	1d91a <__ieee754_sqrt+0x106>
   1d924:	2080      	movs	r0, #128	; 0x80
   1d926:	0340      	lsls	r0, r0, #13
   1d928:	4203      	tst	r3, r0
   1d92a:	d13f      	bne.n	1d9ac <__ieee754_sqrt+0x198>
   1d92c:	2700      	movs	r7, #0
   1d92e:	e000      	b.n	1d932 <__ieee754_sqrt+0x11e>
   1d930:	000f      	movs	r7, r1
   1d932:	005b      	lsls	r3, r3, #1
   1d934:	1c79      	adds	r1, r7, #1
   1d936:	4203      	tst	r3, r0
   1d938:	d0fa      	beq.n	1d930 <__ieee754_sqrt+0x11c>
   1d93a:	0025      	movs	r5, r4
   1d93c:	2020      	movs	r0, #32
   1d93e:	408d      	lsls	r5, r1
   1d940:	1a40      	subs	r0, r0, r1
   1d942:	0029      	movs	r1, r5
   1d944:	1bd7      	subs	r7, r2, r7
   1d946:	0022      	movs	r2, r4
   1d948:	40c2      	lsrs	r2, r0
   1d94a:	431a      	orrs	r2, r3
   1d94c:	e776      	b.n	1d83c <__ieee754_sqrt+0x28>
   1d94e:	43fe      	mvns	r6, r7
   1d950:	0ff6      	lsrs	r6, r6, #31
   1d952:	198e      	adds	r6, r1, r6
   1d954:	e7b1      	b.n	1d8ba <__ieee754_sqrt+0xa6>
   1d956:	4294      	cmp	r4, r2
   1d958:	d8a0      	bhi.n	1d89c <__ieee754_sqrt+0x88>
   1d95a:	1827      	adds	r7, r4, r0
   1d95c:	2c00      	cmp	r4, #0
   1d95e:	dbf6      	blt.n	1d94e <__ieee754_sqrt+0x13a>
   1d960:	001e      	movs	r6, r3
   1d962:	2300      	movs	r3, #0
   1d964:	e7ae      	b.n	1d8c4 <__ieee754_sqrt+0xb0>
   1d966:	0002      	movs	r2, r0
   1d968:	003b      	movs	r3, r7
   1d96a:	0028      	movs	r0, r5
   1d96c:	0039      	movs	r1, r7
   1d96e:	f7fe faa7 	bl	1bec0 <__aeabi_dmul>
   1d972:	002a      	movs	r2, r5
   1d974:	003b      	movs	r3, r7
   1d976:	f000 f93d 	bl	1dbf4 <__aeabi_dadd>
   1d97a:	e7c2      	b.n	1d902 <__ieee754_sqrt+0xee>
   1d97c:	4643      	mov	r3, r8
   1d97e:	3301      	adds	r3, #1
   1d980:	d003      	beq.n	1d98a <__ieee754_sqrt+0x176>
   1d982:	4643      	mov	r3, r8
   1d984:	3301      	adds	r3, #1
   1d986:	085b      	lsrs	r3, r3, #1
   1d988:	e7ab      	b.n	1d8e2 <__ieee754_sqrt+0xce>
   1d98a:	2301      	movs	r3, #1
   1d98c:	4698      	mov	r8, r3
   1d98e:	2300      	movs	r3, #0
   1d990:	44c1      	add	r9, r8
   1d992:	e7a6      	b.n	1d8e2 <__ieee754_sqrt+0xce>
   1d994:	003b      	movs	r3, r7
   1d996:	0002      	movs	r2, r0
   1d998:	f000 ff4a 	bl	1e830 <__aeabi_dsub>
   1d99c:	0002      	movs	r2, r0
   1d99e:	000b      	movs	r3, r1
   1d9a0:	f000 fc44 	bl	1e22c <__aeabi_ddiv>
   1d9a4:	e7ad      	b.n	1d902 <__ieee754_sqrt+0xee>
   1d9a6:	0013      	movs	r3, r2
   1d9a8:	2200      	movs	r2, #0
   1d9aa:	e7bb      	b.n	1d924 <__ieee754_sqrt+0x110>
   1d9ac:	2701      	movs	r7, #1
   1d9ae:	0021      	movs	r1, r4
   1d9b0:	2020      	movs	r0, #32
   1d9b2:	427f      	negs	r7, r7
   1d9b4:	e7c6      	b.n	1d944 <__ieee754_sqrt+0x130>
   1d9b6:	46c0      	nop			; (mov r8, r8)
   1d9b8:	0000      	movs	r0, r0
   1d9ba:	7ff0      	ldrb	r0, [r6, #31]
   1d9bc:	fc01 ffff 	stc2	15, cr15, [r1], {255}	; 0xff
   1d9c0:	0000      	movs	r0, r0
   1d9c2:	3fe0      	subs	r7, #224	; 0xe0

0001d9c4 <fabs>:
   1d9c4:	0049      	lsls	r1, r1, #1
   1d9c6:	084b      	lsrs	r3, r1, #1
   1d9c8:	0019      	movs	r1, r3
   1d9ca:	4770      	bx	lr

0001d9cc <finite>:
   1d9cc:	4b03      	ldr	r3, [pc, #12]	; (1d9dc <finite+0x10>)
   1d9ce:	0048      	lsls	r0, r1, #1
   1d9d0:	469c      	mov	ip, r3
   1d9d2:	0840      	lsrs	r0, r0, #1
   1d9d4:	4460      	add	r0, ip
   1d9d6:	0fc0      	lsrs	r0, r0, #31
   1d9d8:	4770      	bx	lr
   1d9da:	46c0      	nop			; (mov r8, r8)
   1d9dc:	0000      	movs	r0, r0
   1d9de:	8010      	strh	r0, [r2, #0]

0001d9e0 <matherr>:
   1d9e0:	2000      	movs	r0, #0
   1d9e2:	4770      	bx	lr

0001d9e4 <nan>:
   1d9e4:	2000      	movs	r0, #0
   1d9e6:	4901      	ldr	r1, [pc, #4]	; (1d9ec <nan+0x8>)
   1d9e8:	4770      	bx	lr
   1d9ea:	46c0      	nop			; (mov r8, r8)
   1d9ec:	0000      	movs	r0, r0
   1d9ee:	7ff8      	ldrb	r0, [r7, #31]

0001d9f0 <rint>:
   1d9f0:	b5f0      	push	{r4, r5, r6, r7, lr}
   1d9f2:	46c6      	mov	lr, r8
   1d9f4:	b500      	push	{lr}
   1d9f6:	0fcb      	lsrs	r3, r1, #31
   1d9f8:	4698      	mov	r8, r3
   1d9fa:	4a40      	ldr	r2, [pc, #256]	; (1dafc <rint+0x10c>)
   1d9fc:	004b      	lsls	r3, r1, #1
   1d9fe:	0d5b      	lsrs	r3, r3, #21
   1da00:	189a      	adds	r2, r3, r2
   1da02:	b082      	sub	sp, #8
   1da04:	000d      	movs	r5, r1
   1da06:	0004      	movs	r4, r0
   1da08:	2a13      	cmp	r2, #19
   1da0a:	dc2f      	bgt.n	1da6c <rint+0x7c>
   1da0c:	2a00      	cmp	r2, #0
   1da0e:	db49      	blt.n	1daa4 <rint+0xb4>
   1da10:	4f3b      	ldr	r7, [pc, #236]	; (1db00 <rint+0x110>)
   1da12:	4117      	asrs	r7, r2
   1da14:	003e      	movs	r6, r7
   1da16:	400e      	ands	r6, r1
   1da18:	4306      	orrs	r6, r0
   1da1a:	d023      	beq.n	1da64 <rint+0x74>
   1da1c:	087f      	lsrs	r7, r7, #1
   1da1e:	0039      	movs	r1, r7
   1da20:	4029      	ands	r1, r5
   1da22:	430c      	orrs	r4, r1
   1da24:	d00a      	beq.n	1da3c <rint+0x4c>
   1da26:	4937      	ldr	r1, [pc, #220]	; (1db04 <rint+0x114>)
   1da28:	43bd      	bics	r5, r7
   1da2a:	468c      	mov	ip, r1
   1da2c:	4463      	add	r3, ip
   1da2e:	425c      	negs	r4, r3
   1da30:	415c      	adcs	r4, r3
   1da32:	2380      	movs	r3, #128	; 0x80
   1da34:	02db      	lsls	r3, r3, #11
   1da36:	4113      	asrs	r3, r2
   1da38:	07e4      	lsls	r4, r4, #31
   1da3a:	431d      	orrs	r5, r3
   1da3c:	4641      	mov	r1, r8
   1da3e:	00ce      	lsls	r6, r1, #3
   1da40:	4931      	ldr	r1, [pc, #196]	; (1db08 <rint+0x118>)
   1da42:	002b      	movs	r3, r5
   1da44:	198e      	adds	r6, r1, r6
   1da46:	0022      	movs	r2, r4
   1da48:	6834      	ldr	r4, [r6, #0]
   1da4a:	6875      	ldr	r5, [r6, #4]
   1da4c:	0020      	movs	r0, r4
   1da4e:	0029      	movs	r1, r5
   1da50:	f000 f8d0 	bl	1dbf4 <__aeabi_dadd>
   1da54:	9000      	str	r0, [sp, #0]
   1da56:	9101      	str	r1, [sp, #4]
   1da58:	9800      	ldr	r0, [sp, #0]
   1da5a:	9901      	ldr	r1, [sp, #4]
   1da5c:	0022      	movs	r2, r4
   1da5e:	002b      	movs	r3, r5
   1da60:	f000 fee6 	bl	1e830 <__aeabi_dsub>
   1da64:	b002      	add	sp, #8
   1da66:	bc04      	pop	{r2}
   1da68:	4690      	mov	r8, r2
   1da6a:	bdf0      	pop	{r4, r5, r6, r7, pc}
   1da6c:	2a33      	cmp	r2, #51	; 0x33
   1da6e:	dd08      	ble.n	1da82 <rint+0x92>
   1da70:	2380      	movs	r3, #128	; 0x80
   1da72:	00db      	lsls	r3, r3, #3
   1da74:	429a      	cmp	r2, r3
   1da76:	d1f5      	bne.n	1da64 <rint+0x74>
   1da78:	0002      	movs	r2, r0
   1da7a:	000b      	movs	r3, r1
   1da7c:	f000 f8ba 	bl	1dbf4 <__aeabi_dadd>
   1da80:	e7f0      	b.n	1da64 <rint+0x74>
   1da82:	4a22      	ldr	r2, [pc, #136]	; (1db0c <rint+0x11c>)
   1da84:	4694      	mov	ip, r2
   1da86:	2201      	movs	r2, #1
   1da88:	4463      	add	r3, ip
   1da8a:	4252      	negs	r2, r2
   1da8c:	40da      	lsrs	r2, r3
   1da8e:	4202      	tst	r2, r0
   1da90:	d0e8      	beq.n	1da64 <rint+0x74>
   1da92:	0852      	lsrs	r2, r2, #1
   1da94:	4202      	tst	r2, r0
   1da96:	d0d1      	beq.n	1da3c <rint+0x4c>
   1da98:	4394      	bics	r4, r2
   1da9a:	2280      	movs	r2, #128	; 0x80
   1da9c:	05d2      	lsls	r2, r2, #23
   1da9e:	411a      	asrs	r2, r3
   1daa0:	4314      	orrs	r4, r2
   1daa2:	e7cb      	b.n	1da3c <rint+0x4c>
   1daa4:	004b      	lsls	r3, r1, #1
   1daa6:	085b      	lsrs	r3, r3, #1
   1daa8:	4303      	orrs	r3, r0
   1daaa:	d0db      	beq.n	1da64 <rint+0x74>
   1daac:	030b      	lsls	r3, r1, #12
   1daae:	0b1b      	lsrs	r3, r3, #12
   1dab0:	431c      	orrs	r4, r3
   1dab2:	4263      	negs	r3, r4
   1dab4:	4323      	orrs	r3, r4
   1dab6:	2480      	movs	r4, #128	; 0x80
   1dab8:	0c4d      	lsrs	r5, r1, #17
   1daba:	0324      	lsls	r4, r4, #12
   1dabc:	0b1b      	lsrs	r3, r3, #12
   1dabe:	4023      	ands	r3, r4
   1dac0:	046d      	lsls	r5, r5, #17
   1dac2:	432b      	orrs	r3, r5
   1dac4:	0019      	movs	r1, r3
   1dac6:	4643      	mov	r3, r8
   1dac8:	00da      	lsls	r2, r3, #3
   1daca:	4b0f      	ldr	r3, [pc, #60]	; (1db08 <rint+0x118>)
   1dacc:	189b      	adds	r3, r3, r2
   1dace:	681c      	ldr	r4, [r3, #0]
   1dad0:	685d      	ldr	r5, [r3, #4]
   1dad2:	0002      	movs	r2, r0
   1dad4:	000b      	movs	r3, r1
   1dad6:	0020      	movs	r0, r4
   1dad8:	0029      	movs	r1, r5
   1dada:	f000 f88b 	bl	1dbf4 <__aeabi_dadd>
   1dade:	9000      	str	r0, [sp, #0]
   1dae0:	9101      	str	r1, [sp, #4]
   1dae2:	9800      	ldr	r0, [sp, #0]
   1dae4:	9901      	ldr	r1, [sp, #4]
   1dae6:	0022      	movs	r2, r4
   1dae8:	002b      	movs	r3, r5
   1daea:	f000 fea1 	bl	1e830 <__aeabi_dsub>
   1daee:	4642      	mov	r2, r8
   1daf0:	004b      	lsls	r3, r1, #1
   1daf2:	085b      	lsrs	r3, r3, #1
   1daf4:	07d6      	lsls	r6, r2, #31
   1daf6:	4333      	orrs	r3, r6
   1daf8:	0019      	movs	r1, r3
   1dafa:	e7b3      	b.n	1da64 <rint+0x74>
   1dafc:	fc01 ffff 	stc2	15, cr15, [r1], {255}	; 0xff
   1db00:	ffff 000f 	vaddl.u<illegal width 64>	q8, d15, d15
   1db04:	fbee ffff 			; <UNDEFINED> instruction: 0xfbeeffff
   1db08:	f3d0 0001 			; <UNDEFINED> instruction: 0xf3d00001
   1db0c:	fbed ffff 			; <UNDEFINED> instruction: 0xfbedffff

0001db10 <scalbn>:
   1db10:	004b      	lsls	r3, r1, #1
   1db12:	b570      	push	{r4, r5, r6, lr}
   1db14:	0d5b      	lsrs	r3, r3, #21
   1db16:	0014      	movs	r4, r2
   1db18:	000a      	movs	r2, r1
   1db1a:	2b00      	cmp	r3, #0
   1db1c:	d11a      	bne.n	1db54 <scalbn+0x44>
   1db1e:	004b      	lsls	r3, r1, #1
   1db20:	085b      	lsrs	r3, r3, #1
   1db22:	4303      	orrs	r3, r0
   1db24:	d015      	beq.n	1db52 <scalbn+0x42>
   1db26:	4b23      	ldr	r3, [pc, #140]	; (1dbb4 <scalbn+0xa4>)
   1db28:	2200      	movs	r2, #0
   1db2a:	f7fe f9c9 	bl	1bec0 <__aeabi_dmul>
   1db2e:	4b22      	ldr	r3, [pc, #136]	; (1dbb8 <scalbn+0xa8>)
   1db30:	429c      	cmp	r4, r3
   1db32:	db2d      	blt.n	1db90 <scalbn+0x80>
   1db34:	000a      	movs	r2, r1
   1db36:	004b      	lsls	r3, r1, #1
   1db38:	0d5b      	lsrs	r3, r3, #21
   1db3a:	3b36      	subs	r3, #54	; 0x36
   1db3c:	4d1f      	ldr	r5, [pc, #124]	; (1dbbc <scalbn+0xac>)
   1db3e:	18e3      	adds	r3, r4, r3
   1db40:	42ab      	cmp	r3, r5
   1db42:	dc2a      	bgt.n	1db9a <scalbn+0x8a>
   1db44:	2b00      	cmp	r3, #0
   1db46:	dd0d      	ble.n	1db64 <scalbn+0x54>
   1db48:	4c1d      	ldr	r4, [pc, #116]	; (1dbc0 <scalbn+0xb0>)
   1db4a:	051b      	lsls	r3, r3, #20
   1db4c:	4022      	ands	r2, r4
   1db4e:	431a      	orrs	r2, r3
   1db50:	0011      	movs	r1, r2
   1db52:	bd70      	pop	{r4, r5, r6, pc}
   1db54:	4d1b      	ldr	r5, [pc, #108]	; (1dbc4 <scalbn+0xb4>)
   1db56:	42ab      	cmp	r3, r5
   1db58:	d1f0      	bne.n	1db3c <scalbn+0x2c>
   1db5a:	0002      	movs	r2, r0
   1db5c:	000b      	movs	r3, r1
   1db5e:	f000 f849 	bl	1dbf4 <__aeabi_dadd>
   1db62:	e7f6      	b.n	1db52 <scalbn+0x42>
   1db64:	001d      	movs	r5, r3
   1db66:	3535      	adds	r5, #53	; 0x35
   1db68:	da19      	bge.n	1db9e <scalbn+0x8e>
   1db6a:	4b17      	ldr	r3, [pc, #92]	; (1dbc8 <scalbn+0xb8>)
   1db6c:	0002      	movs	r2, r0
   1db6e:	429c      	cmp	r4, r3
   1db70:	dd09      	ble.n	1db86 <scalbn+0x76>
   1db72:	000b      	movs	r3, r1
   1db74:	4815      	ldr	r0, [pc, #84]	; (1dbcc <scalbn+0xbc>)
   1db76:	4916      	ldr	r1, [pc, #88]	; (1dbd0 <scalbn+0xc0>)
   1db78:	f000 f832 	bl	1dbe0 <copysign>
   1db7c:	4a13      	ldr	r2, [pc, #76]	; (1dbcc <scalbn+0xbc>)
   1db7e:	4b14      	ldr	r3, [pc, #80]	; (1dbd0 <scalbn+0xc0>)
   1db80:	f7fe f99e 	bl	1bec0 <__aeabi_dmul>
   1db84:	e7e5      	b.n	1db52 <scalbn+0x42>
   1db86:	000b      	movs	r3, r1
   1db88:	4812      	ldr	r0, [pc, #72]	; (1dbd4 <scalbn+0xc4>)
   1db8a:	4913      	ldr	r1, [pc, #76]	; (1dbd8 <scalbn+0xc8>)
   1db8c:	f000 f828 	bl	1dbe0 <copysign>
   1db90:	4a10      	ldr	r2, [pc, #64]	; (1dbd4 <scalbn+0xc4>)
   1db92:	4b11      	ldr	r3, [pc, #68]	; (1dbd8 <scalbn+0xc8>)
   1db94:	f7fe f994 	bl	1bec0 <__aeabi_dmul>
   1db98:	e7db      	b.n	1db52 <scalbn+0x42>
   1db9a:	0002      	movs	r2, r0
   1db9c:	e7e9      	b.n	1db72 <scalbn+0x62>
   1db9e:	4c08      	ldr	r4, [pc, #32]	; (1dbc0 <scalbn+0xb0>)
   1dba0:	3336      	adds	r3, #54	; 0x36
   1dba2:	4022      	ands	r2, r4
   1dba4:	051b      	lsls	r3, r3, #20
   1dba6:	4313      	orrs	r3, r2
   1dba8:	0019      	movs	r1, r3
   1dbaa:	2200      	movs	r2, #0
   1dbac:	4b0b      	ldr	r3, [pc, #44]	; (1dbdc <scalbn+0xcc>)
   1dbae:	f7fe f987 	bl	1bec0 <__aeabi_dmul>
   1dbb2:	e7ce      	b.n	1db52 <scalbn+0x42>
   1dbb4:	0000      	movs	r0, r0
   1dbb6:	4350      	muls	r0, r2
   1dbb8:	3cb0      	subs	r4, #176	; 0xb0
   1dbba:	ffff 07fe 	vqshl.u64	q8, q15, #63	; 0x3f
   1dbbe:	0000      	movs	r0, r0
   1dbc0:	ffff 800f 	vaddl.u<illegal width 64>	q12, d15, d15
   1dbc4:	07ff      	lsls	r7, r7, #31
   1dbc6:	0000      	movs	r0, r0
   1dbc8:	c350      	stmia	r3!, {r4, r6}
   1dbca:	0000      	movs	r0, r0
   1dbcc:	759c      	strb	r4, [r3, #22]
   1dbce:	8800      	ldrh	r0, [r0, #0]
   1dbd0:	e43c      	b.n	1d44c <__ieee754_pow+0x704>
   1dbd2:	7e37      	ldrb	r7, [r6, #24]
   1dbd4:	f359 c2f8 	blx	f771c8 <__etext+0xf57d9c>
   1dbd8:	6e1f      	ldr	r7, [r3, #96]	; 0x60
   1dbda:	01a5      	lsls	r5, r4, #6
   1dbdc:	0000      	movs	r0, r0
   1dbde:	3c90      	subs	r4, #144	; 0x90

0001dbe0 <copysign>:
   1dbe0:	b530      	push	{r4, r5, lr}
   1dbe2:	004a      	lsls	r2, r1, #1
   1dbe4:	0fdb      	lsrs	r3, r3, #31
   1dbe6:	07db      	lsls	r3, r3, #31
   1dbe8:	0852      	lsrs	r2, r2, #1
   1dbea:	431a      	orrs	r2, r3
   1dbec:	0011      	movs	r1, r2
   1dbee:	bd30      	pop	{r4, r5, pc}

0001dbf0 <_exit>:
   1dbf0:	e7fe      	b.n	1dbf0 <_exit>
   1dbf2:	46c0      	nop			; (mov r8, r8)

0001dbf4 <__aeabi_dadd>:
   1dbf4:	b5f0      	push	{r4, r5, r6, r7, lr}
   1dbf6:	464f      	mov	r7, r9
   1dbf8:	4646      	mov	r6, r8
   1dbfa:	46d6      	mov	lr, sl
   1dbfc:	000c      	movs	r4, r1
   1dbfe:	0309      	lsls	r1, r1, #12
   1dc00:	b5c0      	push	{r6, r7, lr}
   1dc02:	0a49      	lsrs	r1, r1, #9
   1dc04:	0f47      	lsrs	r7, r0, #29
   1dc06:	005e      	lsls	r6, r3, #1
   1dc08:	4339      	orrs	r1, r7
   1dc0a:	031f      	lsls	r7, r3, #12
   1dc0c:	0fdb      	lsrs	r3, r3, #31
   1dc0e:	469c      	mov	ip, r3
   1dc10:	0065      	lsls	r5, r4, #1
   1dc12:	0a7b      	lsrs	r3, r7, #9
   1dc14:	0f57      	lsrs	r7, r2, #29
   1dc16:	431f      	orrs	r7, r3
   1dc18:	0d6d      	lsrs	r5, r5, #21
   1dc1a:	0fe4      	lsrs	r4, r4, #31
   1dc1c:	0d76      	lsrs	r6, r6, #21
   1dc1e:	46a1      	mov	r9, r4
   1dc20:	00c0      	lsls	r0, r0, #3
   1dc22:	46b8      	mov	r8, r7
   1dc24:	00d2      	lsls	r2, r2, #3
   1dc26:	1bab      	subs	r3, r5, r6
   1dc28:	4564      	cmp	r4, ip
   1dc2a:	d07b      	beq.n	1dd24 <__aeabi_dadd+0x130>
   1dc2c:	2b00      	cmp	r3, #0
   1dc2e:	dd5f      	ble.n	1dcf0 <__aeabi_dadd+0xfc>
   1dc30:	2e00      	cmp	r6, #0
   1dc32:	d000      	beq.n	1dc36 <__aeabi_dadd+0x42>
   1dc34:	e0a4      	b.n	1dd80 <__aeabi_dadd+0x18c>
   1dc36:	003e      	movs	r6, r7
   1dc38:	4316      	orrs	r6, r2
   1dc3a:	d100      	bne.n	1dc3e <__aeabi_dadd+0x4a>
   1dc3c:	e112      	b.n	1de64 <__aeabi_dadd+0x270>
   1dc3e:	1e5e      	subs	r6, r3, #1
   1dc40:	2e00      	cmp	r6, #0
   1dc42:	d000      	beq.n	1dc46 <__aeabi_dadd+0x52>
   1dc44:	e19e      	b.n	1df84 <__aeabi_dadd+0x390>
   1dc46:	1a87      	subs	r7, r0, r2
   1dc48:	4643      	mov	r3, r8
   1dc4a:	42b8      	cmp	r0, r7
   1dc4c:	4180      	sbcs	r0, r0
   1dc4e:	2501      	movs	r5, #1
   1dc50:	1ac9      	subs	r1, r1, r3
   1dc52:	4240      	negs	r0, r0
   1dc54:	1a09      	subs	r1, r1, r0
   1dc56:	020b      	lsls	r3, r1, #8
   1dc58:	d400      	bmi.n	1dc5c <__aeabi_dadd+0x68>
   1dc5a:	e131      	b.n	1dec0 <__aeabi_dadd+0x2cc>
   1dc5c:	0249      	lsls	r1, r1, #9
   1dc5e:	0a4e      	lsrs	r6, r1, #9
   1dc60:	2e00      	cmp	r6, #0
   1dc62:	d100      	bne.n	1dc66 <__aeabi_dadd+0x72>
   1dc64:	e16e      	b.n	1df44 <__aeabi_dadd+0x350>
   1dc66:	0030      	movs	r0, r6
   1dc68:	f7fe fc72 	bl	1c550 <__clzsi2>
   1dc6c:	0003      	movs	r3, r0
   1dc6e:	3b08      	subs	r3, #8
   1dc70:	2b1f      	cmp	r3, #31
   1dc72:	dd00      	ble.n	1dc76 <__aeabi_dadd+0x82>
   1dc74:	e161      	b.n	1df3a <__aeabi_dadd+0x346>
   1dc76:	2220      	movs	r2, #32
   1dc78:	0039      	movs	r1, r7
   1dc7a:	1ad2      	subs	r2, r2, r3
   1dc7c:	409e      	lsls	r6, r3
   1dc7e:	40d1      	lsrs	r1, r2
   1dc80:	409f      	lsls	r7, r3
   1dc82:	430e      	orrs	r6, r1
   1dc84:	429d      	cmp	r5, r3
   1dc86:	dd00      	ble.n	1dc8a <__aeabi_dadd+0x96>
   1dc88:	e151      	b.n	1df2e <__aeabi_dadd+0x33a>
   1dc8a:	1b5d      	subs	r5, r3, r5
   1dc8c:	1c6b      	adds	r3, r5, #1
   1dc8e:	2b1f      	cmp	r3, #31
   1dc90:	dd00      	ble.n	1dc94 <__aeabi_dadd+0xa0>
   1dc92:	e17c      	b.n	1df8e <__aeabi_dadd+0x39a>
   1dc94:	2120      	movs	r1, #32
   1dc96:	1ac9      	subs	r1, r1, r3
   1dc98:	003d      	movs	r5, r7
   1dc9a:	0030      	movs	r0, r6
   1dc9c:	408f      	lsls	r7, r1
   1dc9e:	4088      	lsls	r0, r1
   1dca0:	40dd      	lsrs	r5, r3
   1dca2:	1e79      	subs	r1, r7, #1
   1dca4:	418f      	sbcs	r7, r1
   1dca6:	0031      	movs	r1, r6
   1dca8:	2207      	movs	r2, #7
   1dcaa:	4328      	orrs	r0, r5
   1dcac:	40d9      	lsrs	r1, r3
   1dcae:	2500      	movs	r5, #0
   1dcb0:	4307      	orrs	r7, r0
   1dcb2:	403a      	ands	r2, r7
   1dcb4:	2a00      	cmp	r2, #0
   1dcb6:	d009      	beq.n	1dccc <__aeabi_dadd+0xd8>
   1dcb8:	230f      	movs	r3, #15
   1dcba:	403b      	ands	r3, r7
   1dcbc:	2b04      	cmp	r3, #4
   1dcbe:	d005      	beq.n	1dccc <__aeabi_dadd+0xd8>
   1dcc0:	1d3b      	adds	r3, r7, #4
   1dcc2:	42bb      	cmp	r3, r7
   1dcc4:	41bf      	sbcs	r7, r7
   1dcc6:	427f      	negs	r7, r7
   1dcc8:	19c9      	adds	r1, r1, r7
   1dcca:	001f      	movs	r7, r3
   1dccc:	020b      	lsls	r3, r1, #8
   1dcce:	d400      	bmi.n	1dcd2 <__aeabi_dadd+0xde>
   1dcd0:	e226      	b.n	1e120 <__aeabi_dadd+0x52c>
   1dcd2:	1c6a      	adds	r2, r5, #1
   1dcd4:	4bc6      	ldr	r3, [pc, #792]	; (1dff0 <__aeabi_dadd+0x3fc>)
   1dcd6:	0555      	lsls	r5, r2, #21
   1dcd8:	0d6d      	lsrs	r5, r5, #21
   1dcda:	429a      	cmp	r2, r3
   1dcdc:	d100      	bne.n	1dce0 <__aeabi_dadd+0xec>
   1dcde:	e106      	b.n	1deee <__aeabi_dadd+0x2fa>
   1dce0:	4ac4      	ldr	r2, [pc, #784]	; (1dff4 <__aeabi_dadd+0x400>)
   1dce2:	08ff      	lsrs	r7, r7, #3
   1dce4:	400a      	ands	r2, r1
   1dce6:	0753      	lsls	r3, r2, #29
   1dce8:	0252      	lsls	r2, r2, #9
   1dcea:	433b      	orrs	r3, r7
   1dcec:	0b12      	lsrs	r2, r2, #12
   1dcee:	e08e      	b.n	1de0e <__aeabi_dadd+0x21a>
   1dcf0:	2b00      	cmp	r3, #0
   1dcf2:	d000      	beq.n	1dcf6 <__aeabi_dadd+0x102>
   1dcf4:	e0b8      	b.n	1de68 <__aeabi_dadd+0x274>
   1dcf6:	1c6b      	adds	r3, r5, #1
   1dcf8:	055b      	lsls	r3, r3, #21
   1dcfa:	0d5b      	lsrs	r3, r3, #21
   1dcfc:	2b01      	cmp	r3, #1
   1dcfe:	dc00      	bgt.n	1dd02 <__aeabi_dadd+0x10e>
   1dd00:	e130      	b.n	1df64 <__aeabi_dadd+0x370>
   1dd02:	1a87      	subs	r7, r0, r2
   1dd04:	4643      	mov	r3, r8
   1dd06:	42b8      	cmp	r0, r7
   1dd08:	41b6      	sbcs	r6, r6
   1dd0a:	1acb      	subs	r3, r1, r3
   1dd0c:	4276      	negs	r6, r6
   1dd0e:	1b9e      	subs	r6, r3, r6
   1dd10:	0233      	lsls	r3, r6, #8
   1dd12:	d500      	bpl.n	1dd16 <__aeabi_dadd+0x122>
   1dd14:	e14c      	b.n	1dfb0 <__aeabi_dadd+0x3bc>
   1dd16:	003b      	movs	r3, r7
   1dd18:	4333      	orrs	r3, r6
   1dd1a:	d1a1      	bne.n	1dc60 <__aeabi_dadd+0x6c>
   1dd1c:	2200      	movs	r2, #0
   1dd1e:	2400      	movs	r4, #0
   1dd20:	2500      	movs	r5, #0
   1dd22:	e070      	b.n	1de06 <__aeabi_dadd+0x212>
   1dd24:	2b00      	cmp	r3, #0
   1dd26:	dc00      	bgt.n	1dd2a <__aeabi_dadd+0x136>
   1dd28:	e0e5      	b.n	1def6 <__aeabi_dadd+0x302>
   1dd2a:	2e00      	cmp	r6, #0
   1dd2c:	d100      	bne.n	1dd30 <__aeabi_dadd+0x13c>
   1dd2e:	e083      	b.n	1de38 <__aeabi_dadd+0x244>
   1dd30:	4eaf      	ldr	r6, [pc, #700]	; (1dff0 <__aeabi_dadd+0x3fc>)
   1dd32:	42b5      	cmp	r5, r6
   1dd34:	d060      	beq.n	1ddf8 <__aeabi_dadd+0x204>
   1dd36:	2680      	movs	r6, #128	; 0x80
   1dd38:	0436      	lsls	r6, r6, #16
   1dd3a:	4337      	orrs	r7, r6
   1dd3c:	46b8      	mov	r8, r7
   1dd3e:	2b38      	cmp	r3, #56	; 0x38
   1dd40:	dc00      	bgt.n	1dd44 <__aeabi_dadd+0x150>
   1dd42:	e13e      	b.n	1dfc2 <__aeabi_dadd+0x3ce>
   1dd44:	4643      	mov	r3, r8
   1dd46:	4313      	orrs	r3, r2
   1dd48:	001f      	movs	r7, r3
   1dd4a:	1e7a      	subs	r2, r7, #1
   1dd4c:	4197      	sbcs	r7, r2
   1dd4e:	183f      	adds	r7, r7, r0
   1dd50:	4287      	cmp	r7, r0
   1dd52:	4180      	sbcs	r0, r0
   1dd54:	4240      	negs	r0, r0
   1dd56:	1809      	adds	r1, r1, r0
   1dd58:	020b      	lsls	r3, r1, #8
   1dd5a:	d400      	bmi.n	1dd5e <__aeabi_dadd+0x16a>
   1dd5c:	e0b0      	b.n	1dec0 <__aeabi_dadd+0x2cc>
   1dd5e:	4ba4      	ldr	r3, [pc, #656]	; (1dff0 <__aeabi_dadd+0x3fc>)
   1dd60:	3501      	adds	r5, #1
   1dd62:	429d      	cmp	r5, r3
   1dd64:	d100      	bne.n	1dd68 <__aeabi_dadd+0x174>
   1dd66:	e0c3      	b.n	1def0 <__aeabi_dadd+0x2fc>
   1dd68:	4aa2      	ldr	r2, [pc, #648]	; (1dff4 <__aeabi_dadd+0x400>)
   1dd6a:	087b      	lsrs	r3, r7, #1
   1dd6c:	400a      	ands	r2, r1
   1dd6e:	2101      	movs	r1, #1
   1dd70:	400f      	ands	r7, r1
   1dd72:	431f      	orrs	r7, r3
   1dd74:	0851      	lsrs	r1, r2, #1
   1dd76:	07d3      	lsls	r3, r2, #31
   1dd78:	2207      	movs	r2, #7
   1dd7a:	431f      	orrs	r7, r3
   1dd7c:	403a      	ands	r2, r7
   1dd7e:	e799      	b.n	1dcb4 <__aeabi_dadd+0xc0>
   1dd80:	4e9b      	ldr	r6, [pc, #620]	; (1dff0 <__aeabi_dadd+0x3fc>)
   1dd82:	42b5      	cmp	r5, r6
   1dd84:	d038      	beq.n	1ddf8 <__aeabi_dadd+0x204>
   1dd86:	2680      	movs	r6, #128	; 0x80
   1dd88:	0436      	lsls	r6, r6, #16
   1dd8a:	4337      	orrs	r7, r6
   1dd8c:	46b8      	mov	r8, r7
   1dd8e:	2b38      	cmp	r3, #56	; 0x38
   1dd90:	dd00      	ble.n	1dd94 <__aeabi_dadd+0x1a0>
   1dd92:	e0dc      	b.n	1df4e <__aeabi_dadd+0x35a>
   1dd94:	2b1f      	cmp	r3, #31
   1dd96:	dc00      	bgt.n	1dd9a <__aeabi_dadd+0x1a6>
   1dd98:	e130      	b.n	1dffc <__aeabi_dadd+0x408>
   1dd9a:	001e      	movs	r6, r3
   1dd9c:	4647      	mov	r7, r8
   1dd9e:	3e20      	subs	r6, #32
   1dda0:	40f7      	lsrs	r7, r6
   1dda2:	46bc      	mov	ip, r7
   1dda4:	2b20      	cmp	r3, #32
   1dda6:	d004      	beq.n	1ddb2 <__aeabi_dadd+0x1be>
   1dda8:	2640      	movs	r6, #64	; 0x40
   1ddaa:	1af3      	subs	r3, r6, r3
   1ddac:	4646      	mov	r6, r8
   1ddae:	409e      	lsls	r6, r3
   1ddb0:	4332      	orrs	r2, r6
   1ddb2:	0017      	movs	r7, r2
   1ddb4:	4663      	mov	r3, ip
   1ddb6:	1e7a      	subs	r2, r7, #1
   1ddb8:	4197      	sbcs	r7, r2
   1ddba:	431f      	orrs	r7, r3
   1ddbc:	e0cc      	b.n	1df58 <__aeabi_dadd+0x364>
   1ddbe:	2b00      	cmp	r3, #0
   1ddc0:	d100      	bne.n	1ddc4 <__aeabi_dadd+0x1d0>
   1ddc2:	e204      	b.n	1e1ce <__aeabi_dadd+0x5da>
   1ddc4:	4643      	mov	r3, r8
   1ddc6:	4313      	orrs	r3, r2
   1ddc8:	d100      	bne.n	1ddcc <__aeabi_dadd+0x1d8>
   1ddca:	e159      	b.n	1e080 <__aeabi_dadd+0x48c>
   1ddcc:	074b      	lsls	r3, r1, #29
   1ddce:	08c0      	lsrs	r0, r0, #3
   1ddd0:	4318      	orrs	r0, r3
   1ddd2:	2380      	movs	r3, #128	; 0x80
   1ddd4:	08c9      	lsrs	r1, r1, #3
   1ddd6:	031b      	lsls	r3, r3, #12
   1ddd8:	4219      	tst	r1, r3
   1ddda:	d008      	beq.n	1ddee <__aeabi_dadd+0x1fa>
   1dddc:	4645      	mov	r5, r8
   1ddde:	08ed      	lsrs	r5, r5, #3
   1dde0:	421d      	tst	r5, r3
   1dde2:	d104      	bne.n	1ddee <__aeabi_dadd+0x1fa>
   1dde4:	4643      	mov	r3, r8
   1dde6:	08d0      	lsrs	r0, r2, #3
   1dde8:	0759      	lsls	r1, r3, #29
   1ddea:	4308      	orrs	r0, r1
   1ddec:	0029      	movs	r1, r5
   1ddee:	0f42      	lsrs	r2, r0, #29
   1ddf0:	00c9      	lsls	r1, r1, #3
   1ddf2:	4d7f      	ldr	r5, [pc, #508]	; (1dff0 <__aeabi_dadd+0x3fc>)
   1ddf4:	4311      	orrs	r1, r2
   1ddf6:	00c0      	lsls	r0, r0, #3
   1ddf8:	074b      	lsls	r3, r1, #29
   1ddfa:	08ca      	lsrs	r2, r1, #3
   1ddfc:	497c      	ldr	r1, [pc, #496]	; (1dff0 <__aeabi_dadd+0x3fc>)
   1ddfe:	08c0      	lsrs	r0, r0, #3
   1de00:	4303      	orrs	r3, r0
   1de02:	428d      	cmp	r5, r1
   1de04:	d068      	beq.n	1ded8 <__aeabi_dadd+0x2e4>
   1de06:	0312      	lsls	r2, r2, #12
   1de08:	056d      	lsls	r5, r5, #21
   1de0a:	0b12      	lsrs	r2, r2, #12
   1de0c:	0d6d      	lsrs	r5, r5, #21
   1de0e:	2100      	movs	r1, #0
   1de10:	0312      	lsls	r2, r2, #12
   1de12:	0018      	movs	r0, r3
   1de14:	0b13      	lsrs	r3, r2, #12
   1de16:	0d0a      	lsrs	r2, r1, #20
   1de18:	0512      	lsls	r2, r2, #20
   1de1a:	431a      	orrs	r2, r3
   1de1c:	4b76      	ldr	r3, [pc, #472]	; (1dff8 <__aeabi_dadd+0x404>)
   1de1e:	052d      	lsls	r5, r5, #20
   1de20:	4013      	ands	r3, r2
   1de22:	432b      	orrs	r3, r5
   1de24:	005b      	lsls	r3, r3, #1
   1de26:	07e4      	lsls	r4, r4, #31
   1de28:	085b      	lsrs	r3, r3, #1
   1de2a:	4323      	orrs	r3, r4
   1de2c:	0019      	movs	r1, r3
   1de2e:	bc1c      	pop	{r2, r3, r4}
   1de30:	4690      	mov	r8, r2
   1de32:	4699      	mov	r9, r3
   1de34:	46a2      	mov	sl, r4
   1de36:	bdf0      	pop	{r4, r5, r6, r7, pc}
   1de38:	003e      	movs	r6, r7
   1de3a:	4316      	orrs	r6, r2
   1de3c:	d012      	beq.n	1de64 <__aeabi_dadd+0x270>
   1de3e:	1e5e      	subs	r6, r3, #1
   1de40:	2e00      	cmp	r6, #0
   1de42:	d000      	beq.n	1de46 <__aeabi_dadd+0x252>
   1de44:	e100      	b.n	1e048 <__aeabi_dadd+0x454>
   1de46:	1887      	adds	r7, r0, r2
   1de48:	4287      	cmp	r7, r0
   1de4a:	4180      	sbcs	r0, r0
   1de4c:	4441      	add	r1, r8
   1de4e:	4240      	negs	r0, r0
   1de50:	1809      	adds	r1, r1, r0
   1de52:	2501      	movs	r5, #1
   1de54:	020b      	lsls	r3, r1, #8
   1de56:	d533      	bpl.n	1dec0 <__aeabi_dadd+0x2cc>
   1de58:	2502      	movs	r5, #2
   1de5a:	e785      	b.n	1dd68 <__aeabi_dadd+0x174>
   1de5c:	4664      	mov	r4, ip
   1de5e:	0033      	movs	r3, r6
   1de60:	4641      	mov	r1, r8
   1de62:	0010      	movs	r0, r2
   1de64:	001d      	movs	r5, r3
   1de66:	e7c7      	b.n	1ddf8 <__aeabi_dadd+0x204>
   1de68:	2d00      	cmp	r5, #0
   1de6a:	d000      	beq.n	1de6e <__aeabi_dadd+0x27a>
   1de6c:	e0da      	b.n	1e024 <__aeabi_dadd+0x430>
   1de6e:	000c      	movs	r4, r1
   1de70:	4304      	orrs	r4, r0
   1de72:	d0f3      	beq.n	1de5c <__aeabi_dadd+0x268>
   1de74:	1c5c      	adds	r4, r3, #1
   1de76:	d100      	bne.n	1de7a <__aeabi_dadd+0x286>
   1de78:	e19f      	b.n	1e1ba <__aeabi_dadd+0x5c6>
   1de7a:	4c5d      	ldr	r4, [pc, #372]	; (1dff0 <__aeabi_dadd+0x3fc>)
   1de7c:	42a6      	cmp	r6, r4
   1de7e:	d100      	bne.n	1de82 <__aeabi_dadd+0x28e>
   1de80:	e12f      	b.n	1e0e2 <__aeabi_dadd+0x4ee>
   1de82:	43db      	mvns	r3, r3
   1de84:	2b38      	cmp	r3, #56	; 0x38
   1de86:	dd00      	ble.n	1de8a <__aeabi_dadd+0x296>
   1de88:	e166      	b.n	1e158 <__aeabi_dadd+0x564>
   1de8a:	2b1f      	cmp	r3, #31
   1de8c:	dd00      	ble.n	1de90 <__aeabi_dadd+0x29c>
   1de8e:	e183      	b.n	1e198 <__aeabi_dadd+0x5a4>
   1de90:	2420      	movs	r4, #32
   1de92:	0005      	movs	r5, r0
   1de94:	1ae4      	subs	r4, r4, r3
   1de96:	000f      	movs	r7, r1
   1de98:	40dd      	lsrs	r5, r3
   1de9a:	40d9      	lsrs	r1, r3
   1de9c:	40a0      	lsls	r0, r4
   1de9e:	4643      	mov	r3, r8
   1dea0:	40a7      	lsls	r7, r4
   1dea2:	1a5b      	subs	r3, r3, r1
   1dea4:	1e44      	subs	r4, r0, #1
   1dea6:	41a0      	sbcs	r0, r4
   1dea8:	4698      	mov	r8, r3
   1deaa:	432f      	orrs	r7, r5
   1deac:	4338      	orrs	r0, r7
   1deae:	1a17      	subs	r7, r2, r0
   1deb0:	42ba      	cmp	r2, r7
   1deb2:	4192      	sbcs	r2, r2
   1deb4:	4643      	mov	r3, r8
   1deb6:	4252      	negs	r2, r2
   1deb8:	1a99      	subs	r1, r3, r2
   1deba:	4664      	mov	r4, ip
   1debc:	0035      	movs	r5, r6
   1debe:	e6ca      	b.n	1dc56 <__aeabi_dadd+0x62>
   1dec0:	2207      	movs	r2, #7
   1dec2:	403a      	ands	r2, r7
   1dec4:	2a00      	cmp	r2, #0
   1dec6:	d000      	beq.n	1deca <__aeabi_dadd+0x2d6>
   1dec8:	e6f6      	b.n	1dcb8 <__aeabi_dadd+0xc4>
   1deca:	074b      	lsls	r3, r1, #29
   1decc:	08ca      	lsrs	r2, r1, #3
   1dece:	4948      	ldr	r1, [pc, #288]	; (1dff0 <__aeabi_dadd+0x3fc>)
   1ded0:	08ff      	lsrs	r7, r7, #3
   1ded2:	433b      	orrs	r3, r7
   1ded4:	428d      	cmp	r5, r1
   1ded6:	d196      	bne.n	1de06 <__aeabi_dadd+0x212>
   1ded8:	0019      	movs	r1, r3
   1deda:	4311      	orrs	r1, r2
   1dedc:	d100      	bne.n	1dee0 <__aeabi_dadd+0x2ec>
   1dede:	e19e      	b.n	1e21e <__aeabi_dadd+0x62a>
   1dee0:	2180      	movs	r1, #128	; 0x80
   1dee2:	0309      	lsls	r1, r1, #12
   1dee4:	430a      	orrs	r2, r1
   1dee6:	0312      	lsls	r2, r2, #12
   1dee8:	0b12      	lsrs	r2, r2, #12
   1deea:	4d41      	ldr	r5, [pc, #260]	; (1dff0 <__aeabi_dadd+0x3fc>)
   1deec:	e78f      	b.n	1de0e <__aeabi_dadd+0x21a>
   1deee:	0015      	movs	r5, r2
   1def0:	2200      	movs	r2, #0
   1def2:	2300      	movs	r3, #0
   1def4:	e78b      	b.n	1de0e <__aeabi_dadd+0x21a>
   1def6:	2b00      	cmp	r3, #0
   1def8:	d000      	beq.n	1defc <__aeabi_dadd+0x308>
   1defa:	e0c7      	b.n	1e08c <__aeabi_dadd+0x498>
   1defc:	1c6b      	adds	r3, r5, #1
   1defe:	055f      	lsls	r7, r3, #21
   1df00:	0d7f      	lsrs	r7, r7, #21
   1df02:	2f01      	cmp	r7, #1
   1df04:	dc00      	bgt.n	1df08 <__aeabi_dadd+0x314>
   1df06:	e0f1      	b.n	1e0ec <__aeabi_dadd+0x4f8>
   1df08:	4d39      	ldr	r5, [pc, #228]	; (1dff0 <__aeabi_dadd+0x3fc>)
   1df0a:	42ab      	cmp	r3, r5
   1df0c:	d100      	bne.n	1df10 <__aeabi_dadd+0x31c>
   1df0e:	e0b9      	b.n	1e084 <__aeabi_dadd+0x490>
   1df10:	1885      	adds	r5, r0, r2
   1df12:	000a      	movs	r2, r1
   1df14:	4285      	cmp	r5, r0
   1df16:	4189      	sbcs	r1, r1
   1df18:	4442      	add	r2, r8
   1df1a:	4249      	negs	r1, r1
   1df1c:	1851      	adds	r1, r2, r1
   1df1e:	2207      	movs	r2, #7
   1df20:	07cf      	lsls	r7, r1, #31
   1df22:	086d      	lsrs	r5, r5, #1
   1df24:	432f      	orrs	r7, r5
   1df26:	0849      	lsrs	r1, r1, #1
   1df28:	403a      	ands	r2, r7
   1df2a:	001d      	movs	r5, r3
   1df2c:	e6c2      	b.n	1dcb4 <__aeabi_dadd+0xc0>
   1df2e:	2207      	movs	r2, #7
   1df30:	4930      	ldr	r1, [pc, #192]	; (1dff4 <__aeabi_dadd+0x400>)
   1df32:	1aed      	subs	r5, r5, r3
   1df34:	4031      	ands	r1, r6
   1df36:	403a      	ands	r2, r7
   1df38:	e6bc      	b.n	1dcb4 <__aeabi_dadd+0xc0>
   1df3a:	003e      	movs	r6, r7
   1df3c:	3828      	subs	r0, #40	; 0x28
   1df3e:	4086      	lsls	r6, r0
   1df40:	2700      	movs	r7, #0
   1df42:	e69f      	b.n	1dc84 <__aeabi_dadd+0x90>
   1df44:	0038      	movs	r0, r7
   1df46:	f7fe fb03 	bl	1c550 <__clzsi2>
   1df4a:	3020      	adds	r0, #32
   1df4c:	e68e      	b.n	1dc6c <__aeabi_dadd+0x78>
   1df4e:	4643      	mov	r3, r8
   1df50:	4313      	orrs	r3, r2
   1df52:	001f      	movs	r7, r3
   1df54:	1e7a      	subs	r2, r7, #1
   1df56:	4197      	sbcs	r7, r2
   1df58:	1bc7      	subs	r7, r0, r7
   1df5a:	42b8      	cmp	r0, r7
   1df5c:	4180      	sbcs	r0, r0
   1df5e:	4240      	negs	r0, r0
   1df60:	1a09      	subs	r1, r1, r0
   1df62:	e678      	b.n	1dc56 <__aeabi_dadd+0x62>
   1df64:	000e      	movs	r6, r1
   1df66:	003b      	movs	r3, r7
   1df68:	4306      	orrs	r6, r0
   1df6a:	4313      	orrs	r3, r2
   1df6c:	2d00      	cmp	r5, #0
   1df6e:	d161      	bne.n	1e034 <__aeabi_dadd+0x440>
   1df70:	2e00      	cmp	r6, #0
   1df72:	d000      	beq.n	1df76 <__aeabi_dadd+0x382>
   1df74:	e0f4      	b.n	1e160 <__aeabi_dadd+0x56c>
   1df76:	2b00      	cmp	r3, #0
   1df78:	d100      	bne.n	1df7c <__aeabi_dadd+0x388>
   1df7a:	e11b      	b.n	1e1b4 <__aeabi_dadd+0x5c0>
   1df7c:	4664      	mov	r4, ip
   1df7e:	0039      	movs	r1, r7
   1df80:	0010      	movs	r0, r2
   1df82:	e739      	b.n	1ddf8 <__aeabi_dadd+0x204>
   1df84:	4f1a      	ldr	r7, [pc, #104]	; (1dff0 <__aeabi_dadd+0x3fc>)
   1df86:	42bb      	cmp	r3, r7
   1df88:	d07a      	beq.n	1e080 <__aeabi_dadd+0x48c>
   1df8a:	0033      	movs	r3, r6
   1df8c:	e6ff      	b.n	1dd8e <__aeabi_dadd+0x19a>
   1df8e:	0030      	movs	r0, r6
   1df90:	3d1f      	subs	r5, #31
   1df92:	40e8      	lsrs	r0, r5
   1df94:	2b20      	cmp	r3, #32
   1df96:	d003      	beq.n	1dfa0 <__aeabi_dadd+0x3ac>
   1df98:	2140      	movs	r1, #64	; 0x40
   1df9a:	1acb      	subs	r3, r1, r3
   1df9c:	409e      	lsls	r6, r3
   1df9e:	4337      	orrs	r7, r6
   1dfa0:	1e7b      	subs	r3, r7, #1
   1dfa2:	419f      	sbcs	r7, r3
   1dfa4:	2207      	movs	r2, #7
   1dfa6:	4307      	orrs	r7, r0
   1dfa8:	403a      	ands	r2, r7
   1dfaa:	2100      	movs	r1, #0
   1dfac:	2500      	movs	r5, #0
   1dfae:	e789      	b.n	1dec4 <__aeabi_dadd+0x2d0>
   1dfb0:	1a17      	subs	r7, r2, r0
   1dfb2:	4643      	mov	r3, r8
   1dfb4:	42ba      	cmp	r2, r7
   1dfb6:	41b6      	sbcs	r6, r6
   1dfb8:	1a59      	subs	r1, r3, r1
   1dfba:	4276      	negs	r6, r6
   1dfbc:	1b8e      	subs	r6, r1, r6
   1dfbe:	4664      	mov	r4, ip
   1dfc0:	e64e      	b.n	1dc60 <__aeabi_dadd+0x6c>
   1dfc2:	2b1f      	cmp	r3, #31
   1dfc4:	dd00      	ble.n	1dfc8 <__aeabi_dadd+0x3d4>
   1dfc6:	e0ad      	b.n	1e124 <__aeabi_dadd+0x530>
   1dfc8:	2620      	movs	r6, #32
   1dfca:	4647      	mov	r7, r8
   1dfcc:	1af6      	subs	r6, r6, r3
   1dfce:	40b7      	lsls	r7, r6
   1dfd0:	46b9      	mov	r9, r7
   1dfd2:	0017      	movs	r7, r2
   1dfd4:	46b2      	mov	sl, r6
   1dfd6:	40df      	lsrs	r7, r3
   1dfd8:	464e      	mov	r6, r9
   1dfda:	433e      	orrs	r6, r7
   1dfdc:	0037      	movs	r7, r6
   1dfde:	4656      	mov	r6, sl
   1dfe0:	40b2      	lsls	r2, r6
   1dfe2:	1e56      	subs	r6, r2, #1
   1dfe4:	41b2      	sbcs	r2, r6
   1dfe6:	4317      	orrs	r7, r2
   1dfe8:	4642      	mov	r2, r8
   1dfea:	40da      	lsrs	r2, r3
   1dfec:	1889      	adds	r1, r1, r2
   1dfee:	e6ae      	b.n	1dd4e <__aeabi_dadd+0x15a>
   1dff0:	07ff      	lsls	r7, r7, #31
   1dff2:	0000      	movs	r0, r0
   1dff4:	ffff ff7f 	vcvt.u32.f32	<illegal reg q15.5>, <illegal reg q15.5>, #1
   1dff8:	ffff 800f 	vaddl.u<illegal width 64>	q12, d15, d15
   1dffc:	2620      	movs	r6, #32
   1dffe:	4647      	mov	r7, r8
   1e000:	1af6      	subs	r6, r6, r3
   1e002:	40b7      	lsls	r7, r6
   1e004:	46b9      	mov	r9, r7
   1e006:	0017      	movs	r7, r2
   1e008:	46b2      	mov	sl, r6
   1e00a:	40df      	lsrs	r7, r3
   1e00c:	464e      	mov	r6, r9
   1e00e:	433e      	orrs	r6, r7
   1e010:	0037      	movs	r7, r6
   1e012:	4656      	mov	r6, sl
   1e014:	40b2      	lsls	r2, r6
   1e016:	1e56      	subs	r6, r2, #1
   1e018:	41b2      	sbcs	r2, r6
   1e01a:	4317      	orrs	r7, r2
   1e01c:	4642      	mov	r2, r8
   1e01e:	40da      	lsrs	r2, r3
   1e020:	1a89      	subs	r1, r1, r2
   1e022:	e799      	b.n	1df58 <__aeabi_dadd+0x364>
   1e024:	4c7f      	ldr	r4, [pc, #508]	; (1e224 <__aeabi_dadd+0x630>)
   1e026:	42a6      	cmp	r6, r4
   1e028:	d05b      	beq.n	1e0e2 <__aeabi_dadd+0x4ee>
   1e02a:	2480      	movs	r4, #128	; 0x80
   1e02c:	0424      	lsls	r4, r4, #16
   1e02e:	425b      	negs	r3, r3
   1e030:	4321      	orrs	r1, r4
   1e032:	e727      	b.n	1de84 <__aeabi_dadd+0x290>
   1e034:	2e00      	cmp	r6, #0
   1e036:	d10c      	bne.n	1e052 <__aeabi_dadd+0x45e>
   1e038:	2b00      	cmp	r3, #0
   1e03a:	d100      	bne.n	1e03e <__aeabi_dadd+0x44a>
   1e03c:	e0cb      	b.n	1e1d6 <__aeabi_dadd+0x5e2>
   1e03e:	4664      	mov	r4, ip
   1e040:	0039      	movs	r1, r7
   1e042:	0010      	movs	r0, r2
   1e044:	4d77      	ldr	r5, [pc, #476]	; (1e224 <__aeabi_dadd+0x630>)
   1e046:	e6d7      	b.n	1ddf8 <__aeabi_dadd+0x204>
   1e048:	4f76      	ldr	r7, [pc, #472]	; (1e224 <__aeabi_dadd+0x630>)
   1e04a:	42bb      	cmp	r3, r7
   1e04c:	d018      	beq.n	1e080 <__aeabi_dadd+0x48c>
   1e04e:	0033      	movs	r3, r6
   1e050:	e675      	b.n	1dd3e <__aeabi_dadd+0x14a>
   1e052:	2b00      	cmp	r3, #0
   1e054:	d014      	beq.n	1e080 <__aeabi_dadd+0x48c>
   1e056:	074b      	lsls	r3, r1, #29
   1e058:	08c0      	lsrs	r0, r0, #3
   1e05a:	4318      	orrs	r0, r3
   1e05c:	2380      	movs	r3, #128	; 0x80
   1e05e:	08c9      	lsrs	r1, r1, #3
   1e060:	031b      	lsls	r3, r3, #12
   1e062:	4219      	tst	r1, r3
   1e064:	d007      	beq.n	1e076 <__aeabi_dadd+0x482>
   1e066:	08fc      	lsrs	r4, r7, #3
   1e068:	421c      	tst	r4, r3
   1e06a:	d104      	bne.n	1e076 <__aeabi_dadd+0x482>
   1e06c:	0779      	lsls	r1, r7, #29
   1e06e:	08d0      	lsrs	r0, r2, #3
   1e070:	4308      	orrs	r0, r1
   1e072:	46e1      	mov	r9, ip
   1e074:	0021      	movs	r1, r4
   1e076:	464c      	mov	r4, r9
   1e078:	0f42      	lsrs	r2, r0, #29
   1e07a:	00c9      	lsls	r1, r1, #3
   1e07c:	4311      	orrs	r1, r2
   1e07e:	00c0      	lsls	r0, r0, #3
   1e080:	4d68      	ldr	r5, [pc, #416]	; (1e224 <__aeabi_dadd+0x630>)
   1e082:	e6b9      	b.n	1ddf8 <__aeabi_dadd+0x204>
   1e084:	001d      	movs	r5, r3
   1e086:	2200      	movs	r2, #0
   1e088:	2300      	movs	r3, #0
   1e08a:	e6c0      	b.n	1de0e <__aeabi_dadd+0x21a>
   1e08c:	2d00      	cmp	r5, #0
   1e08e:	d15b      	bne.n	1e148 <__aeabi_dadd+0x554>
   1e090:	000d      	movs	r5, r1
   1e092:	4305      	orrs	r5, r0
   1e094:	d100      	bne.n	1e098 <__aeabi_dadd+0x4a4>
   1e096:	e6e2      	b.n	1de5e <__aeabi_dadd+0x26a>
   1e098:	1c5d      	adds	r5, r3, #1
   1e09a:	d100      	bne.n	1e09e <__aeabi_dadd+0x4aa>
   1e09c:	e0b0      	b.n	1e200 <__aeabi_dadd+0x60c>
   1e09e:	4d61      	ldr	r5, [pc, #388]	; (1e224 <__aeabi_dadd+0x630>)
   1e0a0:	42ae      	cmp	r6, r5
   1e0a2:	d01f      	beq.n	1e0e4 <__aeabi_dadd+0x4f0>
   1e0a4:	43db      	mvns	r3, r3
   1e0a6:	2b38      	cmp	r3, #56	; 0x38
   1e0a8:	dc71      	bgt.n	1e18e <__aeabi_dadd+0x59a>
   1e0aa:	2b1f      	cmp	r3, #31
   1e0ac:	dd00      	ble.n	1e0b0 <__aeabi_dadd+0x4bc>
   1e0ae:	e096      	b.n	1e1de <__aeabi_dadd+0x5ea>
   1e0b0:	2520      	movs	r5, #32
   1e0b2:	000f      	movs	r7, r1
   1e0b4:	1aed      	subs	r5, r5, r3
   1e0b6:	40af      	lsls	r7, r5
   1e0b8:	46b9      	mov	r9, r7
   1e0ba:	0007      	movs	r7, r0
   1e0bc:	46aa      	mov	sl, r5
   1e0be:	40df      	lsrs	r7, r3
   1e0c0:	464d      	mov	r5, r9
   1e0c2:	433d      	orrs	r5, r7
   1e0c4:	002f      	movs	r7, r5
   1e0c6:	4655      	mov	r5, sl
   1e0c8:	40a8      	lsls	r0, r5
   1e0ca:	40d9      	lsrs	r1, r3
   1e0cc:	1e45      	subs	r5, r0, #1
   1e0ce:	41a8      	sbcs	r0, r5
   1e0d0:	4488      	add	r8, r1
   1e0d2:	4307      	orrs	r7, r0
   1e0d4:	18bf      	adds	r7, r7, r2
   1e0d6:	4297      	cmp	r7, r2
   1e0d8:	4192      	sbcs	r2, r2
   1e0da:	4251      	negs	r1, r2
   1e0dc:	4441      	add	r1, r8
   1e0de:	0035      	movs	r5, r6
   1e0e0:	e63a      	b.n	1dd58 <__aeabi_dadd+0x164>
   1e0e2:	4664      	mov	r4, ip
   1e0e4:	0035      	movs	r5, r6
   1e0e6:	4641      	mov	r1, r8
   1e0e8:	0010      	movs	r0, r2
   1e0ea:	e685      	b.n	1ddf8 <__aeabi_dadd+0x204>
   1e0ec:	000b      	movs	r3, r1
   1e0ee:	4303      	orrs	r3, r0
   1e0f0:	2d00      	cmp	r5, #0
   1e0f2:	d000      	beq.n	1e0f6 <__aeabi_dadd+0x502>
   1e0f4:	e663      	b.n	1ddbe <__aeabi_dadd+0x1ca>
   1e0f6:	2b00      	cmp	r3, #0
   1e0f8:	d0f5      	beq.n	1e0e6 <__aeabi_dadd+0x4f2>
   1e0fa:	4643      	mov	r3, r8
   1e0fc:	4313      	orrs	r3, r2
   1e0fe:	d100      	bne.n	1e102 <__aeabi_dadd+0x50e>
   1e100:	e67a      	b.n	1ddf8 <__aeabi_dadd+0x204>
   1e102:	1887      	adds	r7, r0, r2
   1e104:	4287      	cmp	r7, r0
   1e106:	4180      	sbcs	r0, r0
   1e108:	2207      	movs	r2, #7
   1e10a:	4441      	add	r1, r8
   1e10c:	4240      	negs	r0, r0
   1e10e:	1809      	adds	r1, r1, r0
   1e110:	403a      	ands	r2, r7
   1e112:	020b      	lsls	r3, r1, #8
   1e114:	d400      	bmi.n	1e118 <__aeabi_dadd+0x524>
   1e116:	e6d5      	b.n	1dec4 <__aeabi_dadd+0x2d0>
   1e118:	4b43      	ldr	r3, [pc, #268]	; (1e228 <__aeabi_dadd+0x634>)
   1e11a:	3501      	adds	r5, #1
   1e11c:	4019      	ands	r1, r3
   1e11e:	e5c9      	b.n	1dcb4 <__aeabi_dadd+0xc0>
   1e120:	0038      	movs	r0, r7
   1e122:	e669      	b.n	1ddf8 <__aeabi_dadd+0x204>
   1e124:	001e      	movs	r6, r3
   1e126:	4647      	mov	r7, r8
   1e128:	3e20      	subs	r6, #32
   1e12a:	40f7      	lsrs	r7, r6
   1e12c:	46bc      	mov	ip, r7
   1e12e:	2b20      	cmp	r3, #32
   1e130:	d004      	beq.n	1e13c <__aeabi_dadd+0x548>
   1e132:	2640      	movs	r6, #64	; 0x40
   1e134:	1af3      	subs	r3, r6, r3
   1e136:	4646      	mov	r6, r8
   1e138:	409e      	lsls	r6, r3
   1e13a:	4332      	orrs	r2, r6
   1e13c:	0017      	movs	r7, r2
   1e13e:	4663      	mov	r3, ip
   1e140:	1e7a      	subs	r2, r7, #1
   1e142:	4197      	sbcs	r7, r2
   1e144:	431f      	orrs	r7, r3
   1e146:	e602      	b.n	1dd4e <__aeabi_dadd+0x15a>
   1e148:	4d36      	ldr	r5, [pc, #216]	; (1e224 <__aeabi_dadd+0x630>)
   1e14a:	42ae      	cmp	r6, r5
   1e14c:	d0ca      	beq.n	1e0e4 <__aeabi_dadd+0x4f0>
   1e14e:	2580      	movs	r5, #128	; 0x80
   1e150:	042d      	lsls	r5, r5, #16
   1e152:	425b      	negs	r3, r3
   1e154:	4329      	orrs	r1, r5
   1e156:	e7a6      	b.n	1e0a6 <__aeabi_dadd+0x4b2>
   1e158:	4308      	orrs	r0, r1
   1e15a:	1e41      	subs	r1, r0, #1
   1e15c:	4188      	sbcs	r0, r1
   1e15e:	e6a6      	b.n	1deae <__aeabi_dadd+0x2ba>
   1e160:	2b00      	cmp	r3, #0
   1e162:	d100      	bne.n	1e166 <__aeabi_dadd+0x572>
   1e164:	e648      	b.n	1ddf8 <__aeabi_dadd+0x204>
   1e166:	1a87      	subs	r7, r0, r2
   1e168:	4643      	mov	r3, r8
   1e16a:	42b8      	cmp	r0, r7
   1e16c:	41b6      	sbcs	r6, r6
   1e16e:	1acb      	subs	r3, r1, r3
   1e170:	4276      	negs	r6, r6
   1e172:	1b9e      	subs	r6, r3, r6
   1e174:	0233      	lsls	r3, r6, #8
   1e176:	d54b      	bpl.n	1e210 <__aeabi_dadd+0x61c>
   1e178:	1a17      	subs	r7, r2, r0
   1e17a:	4643      	mov	r3, r8
   1e17c:	42ba      	cmp	r2, r7
   1e17e:	4192      	sbcs	r2, r2
   1e180:	1a59      	subs	r1, r3, r1
   1e182:	4252      	negs	r2, r2
   1e184:	1a89      	subs	r1, r1, r2
   1e186:	2207      	movs	r2, #7
   1e188:	4664      	mov	r4, ip
   1e18a:	403a      	ands	r2, r7
   1e18c:	e592      	b.n	1dcb4 <__aeabi_dadd+0xc0>
   1e18e:	4301      	orrs	r1, r0
   1e190:	000f      	movs	r7, r1
   1e192:	1e79      	subs	r1, r7, #1
   1e194:	418f      	sbcs	r7, r1
   1e196:	e79d      	b.n	1e0d4 <__aeabi_dadd+0x4e0>
   1e198:	001c      	movs	r4, r3
   1e19a:	000f      	movs	r7, r1
   1e19c:	3c20      	subs	r4, #32
   1e19e:	40e7      	lsrs	r7, r4
   1e1a0:	2b20      	cmp	r3, #32
   1e1a2:	d003      	beq.n	1e1ac <__aeabi_dadd+0x5b8>
   1e1a4:	2440      	movs	r4, #64	; 0x40
   1e1a6:	1ae3      	subs	r3, r4, r3
   1e1a8:	4099      	lsls	r1, r3
   1e1aa:	4308      	orrs	r0, r1
   1e1ac:	1e41      	subs	r1, r0, #1
   1e1ae:	4188      	sbcs	r0, r1
   1e1b0:	4338      	orrs	r0, r7
   1e1b2:	e67c      	b.n	1deae <__aeabi_dadd+0x2ba>
   1e1b4:	2200      	movs	r2, #0
   1e1b6:	2400      	movs	r4, #0
   1e1b8:	e625      	b.n	1de06 <__aeabi_dadd+0x212>
   1e1ba:	1a17      	subs	r7, r2, r0
   1e1bc:	4643      	mov	r3, r8
   1e1be:	42ba      	cmp	r2, r7
   1e1c0:	4192      	sbcs	r2, r2
   1e1c2:	1a59      	subs	r1, r3, r1
   1e1c4:	4252      	negs	r2, r2
   1e1c6:	1a89      	subs	r1, r1, r2
   1e1c8:	4664      	mov	r4, ip
   1e1ca:	0035      	movs	r5, r6
   1e1cc:	e543      	b.n	1dc56 <__aeabi_dadd+0x62>
   1e1ce:	4641      	mov	r1, r8
   1e1d0:	0010      	movs	r0, r2
   1e1d2:	4d14      	ldr	r5, [pc, #80]	; (1e224 <__aeabi_dadd+0x630>)
   1e1d4:	e610      	b.n	1ddf8 <__aeabi_dadd+0x204>
   1e1d6:	2280      	movs	r2, #128	; 0x80
   1e1d8:	2400      	movs	r4, #0
   1e1da:	0312      	lsls	r2, r2, #12
   1e1dc:	e680      	b.n	1dee0 <__aeabi_dadd+0x2ec>
   1e1de:	001d      	movs	r5, r3
   1e1e0:	000f      	movs	r7, r1
   1e1e2:	3d20      	subs	r5, #32
   1e1e4:	40ef      	lsrs	r7, r5
   1e1e6:	46bc      	mov	ip, r7
   1e1e8:	2b20      	cmp	r3, #32
   1e1ea:	d003      	beq.n	1e1f4 <__aeabi_dadd+0x600>
   1e1ec:	2540      	movs	r5, #64	; 0x40
   1e1ee:	1aeb      	subs	r3, r5, r3
   1e1f0:	4099      	lsls	r1, r3
   1e1f2:	4308      	orrs	r0, r1
   1e1f4:	0007      	movs	r7, r0
   1e1f6:	4663      	mov	r3, ip
   1e1f8:	1e78      	subs	r0, r7, #1
   1e1fa:	4187      	sbcs	r7, r0
   1e1fc:	431f      	orrs	r7, r3
   1e1fe:	e769      	b.n	1e0d4 <__aeabi_dadd+0x4e0>
   1e200:	1887      	adds	r7, r0, r2
   1e202:	4297      	cmp	r7, r2
   1e204:	419b      	sbcs	r3, r3
   1e206:	4441      	add	r1, r8
   1e208:	425b      	negs	r3, r3
   1e20a:	18c9      	adds	r1, r1, r3
   1e20c:	0035      	movs	r5, r6
   1e20e:	e5a3      	b.n	1dd58 <__aeabi_dadd+0x164>
   1e210:	003b      	movs	r3, r7
   1e212:	4333      	orrs	r3, r6
   1e214:	d0ce      	beq.n	1e1b4 <__aeabi_dadd+0x5c0>
   1e216:	2207      	movs	r2, #7
   1e218:	0031      	movs	r1, r6
   1e21a:	403a      	ands	r2, r7
   1e21c:	e652      	b.n	1dec4 <__aeabi_dadd+0x2d0>
   1e21e:	2300      	movs	r3, #0
   1e220:	001a      	movs	r2, r3
   1e222:	e5f4      	b.n	1de0e <__aeabi_dadd+0x21a>
   1e224:	07ff      	lsls	r7, r7, #31
   1e226:	0000      	movs	r0, r0
   1e228:	ffff ff7f 	vcvt.u32.f32	<illegal reg q15.5>, <illegal reg q15.5>, #1

0001e22c <__aeabi_ddiv>:
   1e22c:	b5f0      	push	{r4, r5, r6, r7, lr}
   1e22e:	4657      	mov	r7, sl
   1e230:	46de      	mov	lr, fp
   1e232:	464e      	mov	r6, r9
   1e234:	4645      	mov	r5, r8
   1e236:	b5e0      	push	{r5, r6, r7, lr}
   1e238:	4683      	mov	fp, r0
   1e23a:	0007      	movs	r7, r0
   1e23c:	030e      	lsls	r6, r1, #12
   1e23e:	0048      	lsls	r0, r1, #1
   1e240:	b085      	sub	sp, #20
   1e242:	4692      	mov	sl, r2
   1e244:	001c      	movs	r4, r3
   1e246:	0b36      	lsrs	r6, r6, #12
   1e248:	0d40      	lsrs	r0, r0, #21
   1e24a:	0fcd      	lsrs	r5, r1, #31
   1e24c:	2800      	cmp	r0, #0
   1e24e:	d100      	bne.n	1e252 <__aeabi_ddiv+0x26>
   1e250:	e09d      	b.n	1e38e <__aeabi_ddiv+0x162>
   1e252:	4b95      	ldr	r3, [pc, #596]	; (1e4a8 <__aeabi_ddiv+0x27c>)
   1e254:	4298      	cmp	r0, r3
   1e256:	d039      	beq.n	1e2cc <__aeabi_ddiv+0xa0>
   1e258:	2380      	movs	r3, #128	; 0x80
   1e25a:	00f6      	lsls	r6, r6, #3
   1e25c:	041b      	lsls	r3, r3, #16
   1e25e:	431e      	orrs	r6, r3
   1e260:	4a92      	ldr	r2, [pc, #584]	; (1e4ac <__aeabi_ddiv+0x280>)
   1e262:	0f7b      	lsrs	r3, r7, #29
   1e264:	4333      	orrs	r3, r6
   1e266:	4699      	mov	r9, r3
   1e268:	4694      	mov	ip, r2
   1e26a:	0003      	movs	r3, r0
   1e26c:	4463      	add	r3, ip
   1e26e:	9300      	str	r3, [sp, #0]
   1e270:	2300      	movs	r3, #0
   1e272:	2600      	movs	r6, #0
   1e274:	00ff      	lsls	r7, r7, #3
   1e276:	9302      	str	r3, [sp, #8]
   1e278:	0323      	lsls	r3, r4, #12
   1e27a:	0b1b      	lsrs	r3, r3, #12
   1e27c:	4698      	mov	r8, r3
   1e27e:	0063      	lsls	r3, r4, #1
   1e280:	0fe4      	lsrs	r4, r4, #31
   1e282:	4652      	mov	r2, sl
   1e284:	0d5b      	lsrs	r3, r3, #21
   1e286:	9401      	str	r4, [sp, #4]
   1e288:	d100      	bne.n	1e28c <__aeabi_ddiv+0x60>
   1e28a:	e0b3      	b.n	1e3f4 <__aeabi_ddiv+0x1c8>
   1e28c:	4986      	ldr	r1, [pc, #536]	; (1e4a8 <__aeabi_ddiv+0x27c>)
   1e28e:	428b      	cmp	r3, r1
   1e290:	d100      	bne.n	1e294 <__aeabi_ddiv+0x68>
   1e292:	e09e      	b.n	1e3d2 <__aeabi_ddiv+0x1a6>
   1e294:	4642      	mov	r2, r8
   1e296:	00d1      	lsls	r1, r2, #3
   1e298:	2280      	movs	r2, #128	; 0x80
   1e29a:	0412      	lsls	r2, r2, #16
   1e29c:	430a      	orrs	r2, r1
   1e29e:	4651      	mov	r1, sl
   1e2a0:	0f49      	lsrs	r1, r1, #29
   1e2a2:	4311      	orrs	r1, r2
   1e2a4:	468b      	mov	fp, r1
   1e2a6:	4981      	ldr	r1, [pc, #516]	; (1e4ac <__aeabi_ddiv+0x280>)
   1e2a8:	4652      	mov	r2, sl
   1e2aa:	468c      	mov	ip, r1
   1e2ac:	9900      	ldr	r1, [sp, #0]
   1e2ae:	4463      	add	r3, ip
   1e2b0:	1acb      	subs	r3, r1, r3
   1e2b2:	2100      	movs	r1, #0
   1e2b4:	00d2      	lsls	r2, r2, #3
   1e2b6:	9300      	str	r3, [sp, #0]
   1e2b8:	002b      	movs	r3, r5
   1e2ba:	4063      	eors	r3, r4
   1e2bc:	469a      	mov	sl, r3
   1e2be:	2e0f      	cmp	r6, #15
   1e2c0:	d900      	bls.n	1e2c4 <__aeabi_ddiv+0x98>
   1e2c2:	e105      	b.n	1e4d0 <__aeabi_ddiv+0x2a4>
   1e2c4:	4b7a      	ldr	r3, [pc, #488]	; (1e4b0 <__aeabi_ddiv+0x284>)
   1e2c6:	00b6      	lsls	r6, r6, #2
   1e2c8:	599b      	ldr	r3, [r3, r6]
   1e2ca:	469f      	mov	pc, r3
   1e2cc:	465b      	mov	r3, fp
   1e2ce:	4333      	orrs	r3, r6
   1e2d0:	4699      	mov	r9, r3
   1e2d2:	d000      	beq.n	1e2d6 <__aeabi_ddiv+0xaa>
   1e2d4:	e0b8      	b.n	1e448 <__aeabi_ddiv+0x21c>
   1e2d6:	2302      	movs	r3, #2
   1e2d8:	2608      	movs	r6, #8
   1e2da:	2700      	movs	r7, #0
   1e2dc:	9000      	str	r0, [sp, #0]
   1e2de:	9302      	str	r3, [sp, #8]
   1e2e0:	e7ca      	b.n	1e278 <__aeabi_ddiv+0x4c>
   1e2e2:	46cb      	mov	fp, r9
   1e2e4:	003a      	movs	r2, r7
   1e2e6:	9902      	ldr	r1, [sp, #8]
   1e2e8:	9501      	str	r5, [sp, #4]
   1e2ea:	9b01      	ldr	r3, [sp, #4]
   1e2ec:	469a      	mov	sl, r3
   1e2ee:	2902      	cmp	r1, #2
   1e2f0:	d027      	beq.n	1e342 <__aeabi_ddiv+0x116>
   1e2f2:	2903      	cmp	r1, #3
   1e2f4:	d100      	bne.n	1e2f8 <__aeabi_ddiv+0xcc>
   1e2f6:	e280      	b.n	1e7fa <__aeabi_ddiv+0x5ce>
   1e2f8:	2901      	cmp	r1, #1
   1e2fa:	d044      	beq.n	1e386 <__aeabi_ddiv+0x15a>
   1e2fc:	496d      	ldr	r1, [pc, #436]	; (1e4b4 <__aeabi_ddiv+0x288>)
   1e2fe:	9b00      	ldr	r3, [sp, #0]
   1e300:	468c      	mov	ip, r1
   1e302:	4463      	add	r3, ip
   1e304:	001c      	movs	r4, r3
   1e306:	2c00      	cmp	r4, #0
   1e308:	dd38      	ble.n	1e37c <__aeabi_ddiv+0x150>
   1e30a:	0753      	lsls	r3, r2, #29
   1e30c:	d000      	beq.n	1e310 <__aeabi_ddiv+0xe4>
   1e30e:	e213      	b.n	1e738 <__aeabi_ddiv+0x50c>
   1e310:	08d2      	lsrs	r2, r2, #3
   1e312:	465b      	mov	r3, fp
   1e314:	01db      	lsls	r3, r3, #7
   1e316:	d509      	bpl.n	1e32c <__aeabi_ddiv+0x100>
   1e318:	4659      	mov	r1, fp
   1e31a:	4b67      	ldr	r3, [pc, #412]	; (1e4b8 <__aeabi_ddiv+0x28c>)
   1e31c:	4019      	ands	r1, r3
   1e31e:	468b      	mov	fp, r1
   1e320:	2180      	movs	r1, #128	; 0x80
   1e322:	00c9      	lsls	r1, r1, #3
   1e324:	468c      	mov	ip, r1
   1e326:	9b00      	ldr	r3, [sp, #0]
   1e328:	4463      	add	r3, ip
   1e32a:	001c      	movs	r4, r3
   1e32c:	4b63      	ldr	r3, [pc, #396]	; (1e4bc <__aeabi_ddiv+0x290>)
   1e32e:	429c      	cmp	r4, r3
   1e330:	dc07      	bgt.n	1e342 <__aeabi_ddiv+0x116>
   1e332:	465b      	mov	r3, fp
   1e334:	0564      	lsls	r4, r4, #21
   1e336:	075f      	lsls	r7, r3, #29
   1e338:	025b      	lsls	r3, r3, #9
   1e33a:	4317      	orrs	r7, r2
   1e33c:	0b1b      	lsrs	r3, r3, #12
   1e33e:	0d62      	lsrs	r2, r4, #21
   1e340:	e002      	b.n	1e348 <__aeabi_ddiv+0x11c>
   1e342:	2300      	movs	r3, #0
   1e344:	2700      	movs	r7, #0
   1e346:	4a58      	ldr	r2, [pc, #352]	; (1e4a8 <__aeabi_ddiv+0x27c>)
   1e348:	2100      	movs	r1, #0
   1e34a:	031b      	lsls	r3, r3, #12
   1e34c:	0b1c      	lsrs	r4, r3, #12
   1e34e:	0d0b      	lsrs	r3, r1, #20
   1e350:	051b      	lsls	r3, r3, #20
   1e352:	4323      	orrs	r3, r4
   1e354:	0514      	lsls	r4, r2, #20
   1e356:	4a5a      	ldr	r2, [pc, #360]	; (1e4c0 <__aeabi_ddiv+0x294>)
   1e358:	0038      	movs	r0, r7
   1e35a:	4013      	ands	r3, r2
   1e35c:	431c      	orrs	r4, r3
   1e35e:	4653      	mov	r3, sl
   1e360:	0064      	lsls	r4, r4, #1
   1e362:	07db      	lsls	r3, r3, #31
   1e364:	0864      	lsrs	r4, r4, #1
   1e366:	431c      	orrs	r4, r3
   1e368:	0021      	movs	r1, r4
   1e36a:	b005      	add	sp, #20
   1e36c:	bc3c      	pop	{r2, r3, r4, r5}
   1e36e:	4690      	mov	r8, r2
   1e370:	4699      	mov	r9, r3
   1e372:	46a2      	mov	sl, r4
   1e374:	46ab      	mov	fp, r5
   1e376:	bdf0      	pop	{r4, r5, r6, r7, pc}
   1e378:	2201      	movs	r2, #1
   1e37a:	4252      	negs	r2, r2
   1e37c:	2301      	movs	r3, #1
   1e37e:	1b1b      	subs	r3, r3, r4
   1e380:	2b38      	cmp	r3, #56	; 0x38
   1e382:	dc00      	bgt.n	1e386 <__aeabi_ddiv+0x15a>
   1e384:	e1ad      	b.n	1e6e2 <__aeabi_ddiv+0x4b6>
   1e386:	2200      	movs	r2, #0
   1e388:	2300      	movs	r3, #0
   1e38a:	2700      	movs	r7, #0
   1e38c:	e7dc      	b.n	1e348 <__aeabi_ddiv+0x11c>
   1e38e:	465b      	mov	r3, fp
   1e390:	4333      	orrs	r3, r6
   1e392:	4699      	mov	r9, r3
   1e394:	d05e      	beq.n	1e454 <__aeabi_ddiv+0x228>
   1e396:	2e00      	cmp	r6, #0
   1e398:	d100      	bne.n	1e39c <__aeabi_ddiv+0x170>
   1e39a:	e18a      	b.n	1e6b2 <__aeabi_ddiv+0x486>
   1e39c:	0030      	movs	r0, r6
   1e39e:	f7fe f8d7 	bl	1c550 <__clzsi2>
   1e3a2:	0003      	movs	r3, r0
   1e3a4:	3b0b      	subs	r3, #11
   1e3a6:	2b1c      	cmp	r3, #28
   1e3a8:	dd00      	ble.n	1e3ac <__aeabi_ddiv+0x180>
   1e3aa:	e17b      	b.n	1e6a4 <__aeabi_ddiv+0x478>
   1e3ac:	221d      	movs	r2, #29
   1e3ae:	1ad3      	subs	r3, r2, r3
   1e3b0:	465a      	mov	r2, fp
   1e3b2:	0001      	movs	r1, r0
   1e3b4:	40da      	lsrs	r2, r3
   1e3b6:	3908      	subs	r1, #8
   1e3b8:	408e      	lsls	r6, r1
   1e3ba:	0013      	movs	r3, r2
   1e3bc:	465f      	mov	r7, fp
   1e3be:	4333      	orrs	r3, r6
   1e3c0:	4699      	mov	r9, r3
   1e3c2:	408f      	lsls	r7, r1
   1e3c4:	4b3f      	ldr	r3, [pc, #252]	; (1e4c4 <__aeabi_ddiv+0x298>)
   1e3c6:	2600      	movs	r6, #0
   1e3c8:	1a1b      	subs	r3, r3, r0
   1e3ca:	9300      	str	r3, [sp, #0]
   1e3cc:	2300      	movs	r3, #0
   1e3ce:	9302      	str	r3, [sp, #8]
   1e3d0:	e752      	b.n	1e278 <__aeabi_ddiv+0x4c>
   1e3d2:	4641      	mov	r1, r8
   1e3d4:	4653      	mov	r3, sl
   1e3d6:	430b      	orrs	r3, r1
   1e3d8:	493b      	ldr	r1, [pc, #236]	; (1e4c8 <__aeabi_ddiv+0x29c>)
   1e3da:	469b      	mov	fp, r3
   1e3dc:	468c      	mov	ip, r1
   1e3de:	9b00      	ldr	r3, [sp, #0]
   1e3e0:	4463      	add	r3, ip
   1e3e2:	9300      	str	r3, [sp, #0]
   1e3e4:	465b      	mov	r3, fp
   1e3e6:	2b00      	cmp	r3, #0
   1e3e8:	d13b      	bne.n	1e462 <__aeabi_ddiv+0x236>
   1e3ea:	2302      	movs	r3, #2
   1e3ec:	2200      	movs	r2, #0
   1e3ee:	431e      	orrs	r6, r3
   1e3f0:	2102      	movs	r1, #2
   1e3f2:	e761      	b.n	1e2b8 <__aeabi_ddiv+0x8c>
   1e3f4:	4643      	mov	r3, r8
   1e3f6:	4313      	orrs	r3, r2
   1e3f8:	469b      	mov	fp, r3
   1e3fa:	d037      	beq.n	1e46c <__aeabi_ddiv+0x240>
   1e3fc:	4643      	mov	r3, r8
   1e3fe:	2b00      	cmp	r3, #0
   1e400:	d100      	bne.n	1e404 <__aeabi_ddiv+0x1d8>
   1e402:	e162      	b.n	1e6ca <__aeabi_ddiv+0x49e>
   1e404:	4640      	mov	r0, r8
   1e406:	f7fe f8a3 	bl	1c550 <__clzsi2>
   1e40a:	0003      	movs	r3, r0
   1e40c:	3b0b      	subs	r3, #11
   1e40e:	2b1c      	cmp	r3, #28
   1e410:	dd00      	ble.n	1e414 <__aeabi_ddiv+0x1e8>
   1e412:	e153      	b.n	1e6bc <__aeabi_ddiv+0x490>
   1e414:	0002      	movs	r2, r0
   1e416:	4641      	mov	r1, r8
   1e418:	3a08      	subs	r2, #8
   1e41a:	4091      	lsls	r1, r2
   1e41c:	4688      	mov	r8, r1
   1e41e:	211d      	movs	r1, #29
   1e420:	1acb      	subs	r3, r1, r3
   1e422:	4651      	mov	r1, sl
   1e424:	40d9      	lsrs	r1, r3
   1e426:	000b      	movs	r3, r1
   1e428:	4641      	mov	r1, r8
   1e42a:	430b      	orrs	r3, r1
   1e42c:	469b      	mov	fp, r3
   1e42e:	4653      	mov	r3, sl
   1e430:	4093      	lsls	r3, r2
   1e432:	001a      	movs	r2, r3
   1e434:	9b00      	ldr	r3, [sp, #0]
   1e436:	4925      	ldr	r1, [pc, #148]	; (1e4cc <__aeabi_ddiv+0x2a0>)
   1e438:	469c      	mov	ip, r3
   1e43a:	4460      	add	r0, ip
   1e43c:	0003      	movs	r3, r0
   1e43e:	468c      	mov	ip, r1
   1e440:	4463      	add	r3, ip
   1e442:	9300      	str	r3, [sp, #0]
   1e444:	2100      	movs	r1, #0
   1e446:	e737      	b.n	1e2b8 <__aeabi_ddiv+0x8c>
   1e448:	2303      	movs	r3, #3
   1e44a:	46b1      	mov	r9, r6
   1e44c:	9000      	str	r0, [sp, #0]
   1e44e:	260c      	movs	r6, #12
   1e450:	9302      	str	r3, [sp, #8]
   1e452:	e711      	b.n	1e278 <__aeabi_ddiv+0x4c>
   1e454:	2300      	movs	r3, #0
   1e456:	9300      	str	r3, [sp, #0]
   1e458:	3301      	adds	r3, #1
   1e45a:	2604      	movs	r6, #4
   1e45c:	2700      	movs	r7, #0
   1e45e:	9302      	str	r3, [sp, #8]
   1e460:	e70a      	b.n	1e278 <__aeabi_ddiv+0x4c>
   1e462:	2303      	movs	r3, #3
   1e464:	46c3      	mov	fp, r8
   1e466:	431e      	orrs	r6, r3
   1e468:	2103      	movs	r1, #3
   1e46a:	e725      	b.n	1e2b8 <__aeabi_ddiv+0x8c>
   1e46c:	3301      	adds	r3, #1
   1e46e:	431e      	orrs	r6, r3
   1e470:	2200      	movs	r2, #0
   1e472:	2101      	movs	r1, #1
   1e474:	e720      	b.n	1e2b8 <__aeabi_ddiv+0x8c>
   1e476:	2300      	movs	r3, #0
   1e478:	469a      	mov	sl, r3
   1e47a:	2380      	movs	r3, #128	; 0x80
   1e47c:	2700      	movs	r7, #0
   1e47e:	031b      	lsls	r3, r3, #12
   1e480:	4a09      	ldr	r2, [pc, #36]	; (1e4a8 <__aeabi_ddiv+0x27c>)
   1e482:	e761      	b.n	1e348 <__aeabi_ddiv+0x11c>
   1e484:	2380      	movs	r3, #128	; 0x80
   1e486:	4649      	mov	r1, r9
   1e488:	031b      	lsls	r3, r3, #12
   1e48a:	4219      	tst	r1, r3
   1e48c:	d100      	bne.n	1e490 <__aeabi_ddiv+0x264>
   1e48e:	e0e2      	b.n	1e656 <__aeabi_ddiv+0x42a>
   1e490:	4659      	mov	r1, fp
   1e492:	4219      	tst	r1, r3
   1e494:	d000      	beq.n	1e498 <__aeabi_ddiv+0x26c>
   1e496:	e0de      	b.n	1e656 <__aeabi_ddiv+0x42a>
   1e498:	430b      	orrs	r3, r1
   1e49a:	031b      	lsls	r3, r3, #12
   1e49c:	0017      	movs	r7, r2
   1e49e:	0b1b      	lsrs	r3, r3, #12
   1e4a0:	46a2      	mov	sl, r4
   1e4a2:	4a01      	ldr	r2, [pc, #4]	; (1e4a8 <__aeabi_ddiv+0x27c>)
   1e4a4:	e750      	b.n	1e348 <__aeabi_ddiv+0x11c>
   1e4a6:	46c0      	nop			; (mov r8, r8)
   1e4a8:	07ff      	lsls	r7, r7, #31
   1e4aa:	0000      	movs	r0, r0
   1e4ac:	fc01 ffff 	stc2	15, cr15, [r1], {255}	; 0xff
   1e4b0:	f3e0 0001 			; <UNDEFINED> instruction: 0xf3e00001
   1e4b4:	03ff      	lsls	r7, r7, #15
   1e4b6:	0000      	movs	r0, r0
   1e4b8:	ffff feff 			; <UNDEFINED> instruction: 0xfffffeff
   1e4bc:	07fe      	lsls	r6, r7, #31
   1e4be:	0000      	movs	r0, r0
   1e4c0:	ffff 800f 	vaddl.u<illegal width 64>	q12, d15, d15
   1e4c4:	fc0d ffff 	stc2	15, cr15, [sp], {255}	; 0xff
   1e4c8:	f801 ffff 	strb.w	pc, [r1, #255]!
   1e4cc:	03f3      	lsls	r3, r6, #15
   1e4ce:	0000      	movs	r0, r0
   1e4d0:	45d9      	cmp	r9, fp
   1e4d2:	d900      	bls.n	1e4d6 <__aeabi_ddiv+0x2aa>
   1e4d4:	e0cb      	b.n	1e66e <__aeabi_ddiv+0x442>
   1e4d6:	d100      	bne.n	1e4da <__aeabi_ddiv+0x2ae>
   1e4d8:	e0c6      	b.n	1e668 <__aeabi_ddiv+0x43c>
   1e4da:	003c      	movs	r4, r7
   1e4dc:	4648      	mov	r0, r9
   1e4de:	2700      	movs	r7, #0
   1e4e0:	9b00      	ldr	r3, [sp, #0]
   1e4e2:	3b01      	subs	r3, #1
   1e4e4:	9300      	str	r3, [sp, #0]
   1e4e6:	465b      	mov	r3, fp
   1e4e8:	0e16      	lsrs	r6, r2, #24
   1e4ea:	021b      	lsls	r3, r3, #8
   1e4ec:	431e      	orrs	r6, r3
   1e4ee:	0213      	lsls	r3, r2, #8
   1e4f0:	4698      	mov	r8, r3
   1e4f2:	0433      	lsls	r3, r6, #16
   1e4f4:	0c1b      	lsrs	r3, r3, #16
   1e4f6:	4699      	mov	r9, r3
   1e4f8:	0c31      	lsrs	r1, r6, #16
   1e4fa:	9101      	str	r1, [sp, #4]
   1e4fc:	f000 fdbc 	bl	1f078 <__aeabi_uidivmod>
   1e500:	464a      	mov	r2, r9
   1e502:	4342      	muls	r2, r0
   1e504:	040b      	lsls	r3, r1, #16
   1e506:	0c21      	lsrs	r1, r4, #16
   1e508:	0005      	movs	r5, r0
   1e50a:	4319      	orrs	r1, r3
   1e50c:	428a      	cmp	r2, r1
   1e50e:	d907      	bls.n	1e520 <__aeabi_ddiv+0x2f4>
   1e510:	1989      	adds	r1, r1, r6
   1e512:	3d01      	subs	r5, #1
   1e514:	428e      	cmp	r6, r1
   1e516:	d803      	bhi.n	1e520 <__aeabi_ddiv+0x2f4>
   1e518:	428a      	cmp	r2, r1
   1e51a:	d901      	bls.n	1e520 <__aeabi_ddiv+0x2f4>
   1e51c:	1e85      	subs	r5, r0, #2
   1e51e:	1989      	adds	r1, r1, r6
   1e520:	1a88      	subs	r0, r1, r2
   1e522:	9901      	ldr	r1, [sp, #4]
   1e524:	f000 fda8 	bl	1f078 <__aeabi_uidivmod>
   1e528:	0409      	lsls	r1, r1, #16
   1e52a:	468c      	mov	ip, r1
   1e52c:	464a      	mov	r2, r9
   1e52e:	0421      	lsls	r1, r4, #16
   1e530:	4664      	mov	r4, ip
   1e532:	4342      	muls	r2, r0
   1e534:	0c09      	lsrs	r1, r1, #16
   1e536:	0003      	movs	r3, r0
   1e538:	4321      	orrs	r1, r4
   1e53a:	428a      	cmp	r2, r1
   1e53c:	d904      	bls.n	1e548 <__aeabi_ddiv+0x31c>
   1e53e:	1989      	adds	r1, r1, r6
   1e540:	3b01      	subs	r3, #1
   1e542:	428e      	cmp	r6, r1
   1e544:	d800      	bhi.n	1e548 <__aeabi_ddiv+0x31c>
   1e546:	e0f1      	b.n	1e72c <__aeabi_ddiv+0x500>
   1e548:	042d      	lsls	r5, r5, #16
   1e54a:	431d      	orrs	r5, r3
   1e54c:	46ab      	mov	fp, r5
   1e54e:	4643      	mov	r3, r8
   1e550:	1a89      	subs	r1, r1, r2
   1e552:	4642      	mov	r2, r8
   1e554:	0c28      	lsrs	r0, r5, #16
   1e556:	0412      	lsls	r2, r2, #16
   1e558:	0c1d      	lsrs	r5, r3, #16
   1e55a:	465b      	mov	r3, fp
   1e55c:	0c14      	lsrs	r4, r2, #16
   1e55e:	0022      	movs	r2, r4
   1e560:	041b      	lsls	r3, r3, #16
   1e562:	0c1b      	lsrs	r3, r3, #16
   1e564:	435a      	muls	r2, r3
   1e566:	9403      	str	r4, [sp, #12]
   1e568:	436b      	muls	r3, r5
   1e56a:	4344      	muls	r4, r0
   1e56c:	9502      	str	r5, [sp, #8]
   1e56e:	4368      	muls	r0, r5
   1e570:	191b      	adds	r3, r3, r4
   1e572:	0c15      	lsrs	r5, r2, #16
   1e574:	18eb      	adds	r3, r5, r3
   1e576:	429c      	cmp	r4, r3
   1e578:	d903      	bls.n	1e582 <__aeabi_ddiv+0x356>
   1e57a:	2480      	movs	r4, #128	; 0x80
   1e57c:	0264      	lsls	r4, r4, #9
   1e57e:	46a4      	mov	ip, r4
   1e580:	4460      	add	r0, ip
   1e582:	0c1c      	lsrs	r4, r3, #16
   1e584:	0415      	lsls	r5, r2, #16
   1e586:	041b      	lsls	r3, r3, #16
   1e588:	0c2d      	lsrs	r5, r5, #16
   1e58a:	1820      	adds	r0, r4, r0
   1e58c:	195d      	adds	r5, r3, r5
   1e58e:	4281      	cmp	r1, r0
   1e590:	d377      	bcc.n	1e682 <__aeabi_ddiv+0x456>
   1e592:	d073      	beq.n	1e67c <__aeabi_ddiv+0x450>
   1e594:	1a0c      	subs	r4, r1, r0
   1e596:	4aa2      	ldr	r2, [pc, #648]	; (1e820 <__aeabi_ddiv+0x5f4>)
   1e598:	1b7d      	subs	r5, r7, r5
   1e59a:	42af      	cmp	r7, r5
   1e59c:	41bf      	sbcs	r7, r7
   1e59e:	4694      	mov	ip, r2
   1e5a0:	9b00      	ldr	r3, [sp, #0]
   1e5a2:	427f      	negs	r7, r7
   1e5a4:	4463      	add	r3, ip
   1e5a6:	1be0      	subs	r0, r4, r7
   1e5a8:	001c      	movs	r4, r3
   1e5aa:	4286      	cmp	r6, r0
   1e5ac:	d100      	bne.n	1e5b0 <__aeabi_ddiv+0x384>
   1e5ae:	e0db      	b.n	1e768 <__aeabi_ddiv+0x53c>
   1e5b0:	9901      	ldr	r1, [sp, #4]
   1e5b2:	f000 fd61 	bl	1f078 <__aeabi_uidivmod>
   1e5b6:	464a      	mov	r2, r9
   1e5b8:	4342      	muls	r2, r0
   1e5ba:	040b      	lsls	r3, r1, #16
   1e5bc:	0c29      	lsrs	r1, r5, #16
   1e5be:	0007      	movs	r7, r0
   1e5c0:	4319      	orrs	r1, r3
   1e5c2:	428a      	cmp	r2, r1
   1e5c4:	d907      	bls.n	1e5d6 <__aeabi_ddiv+0x3aa>
   1e5c6:	1989      	adds	r1, r1, r6
   1e5c8:	3f01      	subs	r7, #1
   1e5ca:	428e      	cmp	r6, r1
   1e5cc:	d803      	bhi.n	1e5d6 <__aeabi_ddiv+0x3aa>
   1e5ce:	428a      	cmp	r2, r1
   1e5d0:	d901      	bls.n	1e5d6 <__aeabi_ddiv+0x3aa>
   1e5d2:	1e87      	subs	r7, r0, #2
   1e5d4:	1989      	adds	r1, r1, r6
   1e5d6:	1a88      	subs	r0, r1, r2
   1e5d8:	9901      	ldr	r1, [sp, #4]
   1e5da:	f000 fd4d 	bl	1f078 <__aeabi_uidivmod>
   1e5de:	0409      	lsls	r1, r1, #16
   1e5e0:	464a      	mov	r2, r9
   1e5e2:	4689      	mov	r9, r1
   1e5e4:	0429      	lsls	r1, r5, #16
   1e5e6:	464d      	mov	r5, r9
   1e5e8:	4342      	muls	r2, r0
   1e5ea:	0c09      	lsrs	r1, r1, #16
   1e5ec:	0003      	movs	r3, r0
   1e5ee:	4329      	orrs	r1, r5
   1e5f0:	428a      	cmp	r2, r1
   1e5f2:	d907      	bls.n	1e604 <__aeabi_ddiv+0x3d8>
   1e5f4:	1989      	adds	r1, r1, r6
   1e5f6:	3b01      	subs	r3, #1
   1e5f8:	428e      	cmp	r6, r1
   1e5fa:	d803      	bhi.n	1e604 <__aeabi_ddiv+0x3d8>
   1e5fc:	428a      	cmp	r2, r1
   1e5fe:	d901      	bls.n	1e604 <__aeabi_ddiv+0x3d8>
   1e600:	1e83      	subs	r3, r0, #2
   1e602:	1989      	adds	r1, r1, r6
   1e604:	043f      	lsls	r7, r7, #16
   1e606:	1a89      	subs	r1, r1, r2
   1e608:	003a      	movs	r2, r7
   1e60a:	9f03      	ldr	r7, [sp, #12]
   1e60c:	431a      	orrs	r2, r3
   1e60e:	0038      	movs	r0, r7
   1e610:	0413      	lsls	r3, r2, #16
   1e612:	0c1b      	lsrs	r3, r3, #16
   1e614:	4358      	muls	r0, r3
   1e616:	4681      	mov	r9, r0
   1e618:	9802      	ldr	r0, [sp, #8]
   1e61a:	0c15      	lsrs	r5, r2, #16
   1e61c:	436f      	muls	r7, r5
   1e61e:	4343      	muls	r3, r0
   1e620:	4345      	muls	r5, r0
   1e622:	4648      	mov	r0, r9
   1e624:	0c00      	lsrs	r0, r0, #16
   1e626:	4684      	mov	ip, r0
   1e628:	19db      	adds	r3, r3, r7
   1e62a:	4463      	add	r3, ip
   1e62c:	429f      	cmp	r7, r3
   1e62e:	d903      	bls.n	1e638 <__aeabi_ddiv+0x40c>
   1e630:	2080      	movs	r0, #128	; 0x80
   1e632:	0240      	lsls	r0, r0, #9
   1e634:	4684      	mov	ip, r0
   1e636:	4465      	add	r5, ip
   1e638:	4648      	mov	r0, r9
   1e63a:	0c1f      	lsrs	r7, r3, #16
   1e63c:	0400      	lsls	r0, r0, #16
   1e63e:	041b      	lsls	r3, r3, #16
   1e640:	0c00      	lsrs	r0, r0, #16
   1e642:	197d      	adds	r5, r7, r5
   1e644:	1818      	adds	r0, r3, r0
   1e646:	42a9      	cmp	r1, r5
   1e648:	d200      	bcs.n	1e64c <__aeabi_ddiv+0x420>
   1e64a:	e084      	b.n	1e756 <__aeabi_ddiv+0x52a>
   1e64c:	d100      	bne.n	1e650 <__aeabi_ddiv+0x424>
   1e64e:	e07f      	b.n	1e750 <__aeabi_ddiv+0x524>
   1e650:	2301      	movs	r3, #1
   1e652:	431a      	orrs	r2, r3
   1e654:	e657      	b.n	1e306 <__aeabi_ddiv+0xda>
   1e656:	2380      	movs	r3, #128	; 0x80
   1e658:	464a      	mov	r2, r9
   1e65a:	031b      	lsls	r3, r3, #12
   1e65c:	4313      	orrs	r3, r2
   1e65e:	031b      	lsls	r3, r3, #12
   1e660:	0b1b      	lsrs	r3, r3, #12
   1e662:	46aa      	mov	sl, r5
   1e664:	4a6f      	ldr	r2, [pc, #444]	; (1e824 <__aeabi_ddiv+0x5f8>)
   1e666:	e66f      	b.n	1e348 <__aeabi_ddiv+0x11c>
   1e668:	42ba      	cmp	r2, r7
   1e66a:	d900      	bls.n	1e66e <__aeabi_ddiv+0x442>
   1e66c:	e735      	b.n	1e4da <__aeabi_ddiv+0x2ae>
   1e66e:	464b      	mov	r3, r9
   1e670:	07dc      	lsls	r4, r3, #31
   1e672:	0858      	lsrs	r0, r3, #1
   1e674:	087b      	lsrs	r3, r7, #1
   1e676:	431c      	orrs	r4, r3
   1e678:	07ff      	lsls	r7, r7, #31
   1e67a:	e734      	b.n	1e4e6 <__aeabi_ddiv+0x2ba>
   1e67c:	2400      	movs	r4, #0
   1e67e:	42af      	cmp	r7, r5
   1e680:	d289      	bcs.n	1e596 <__aeabi_ddiv+0x36a>
   1e682:	4447      	add	r7, r8
   1e684:	4547      	cmp	r7, r8
   1e686:	41a4      	sbcs	r4, r4
   1e688:	465b      	mov	r3, fp
   1e68a:	4264      	negs	r4, r4
   1e68c:	19a4      	adds	r4, r4, r6
   1e68e:	1864      	adds	r4, r4, r1
   1e690:	3b01      	subs	r3, #1
   1e692:	42a6      	cmp	r6, r4
   1e694:	d21e      	bcs.n	1e6d4 <__aeabi_ddiv+0x4a8>
   1e696:	42a0      	cmp	r0, r4
   1e698:	d86d      	bhi.n	1e776 <__aeabi_ddiv+0x54a>
   1e69a:	d100      	bne.n	1e69e <__aeabi_ddiv+0x472>
   1e69c:	e0b6      	b.n	1e80c <__aeabi_ddiv+0x5e0>
   1e69e:	1a24      	subs	r4, r4, r0
   1e6a0:	469b      	mov	fp, r3
   1e6a2:	e778      	b.n	1e596 <__aeabi_ddiv+0x36a>
   1e6a4:	0003      	movs	r3, r0
   1e6a6:	465a      	mov	r2, fp
   1e6a8:	3b28      	subs	r3, #40	; 0x28
   1e6aa:	409a      	lsls	r2, r3
   1e6ac:	2700      	movs	r7, #0
   1e6ae:	4691      	mov	r9, r2
   1e6b0:	e688      	b.n	1e3c4 <__aeabi_ddiv+0x198>
   1e6b2:	4658      	mov	r0, fp
   1e6b4:	f7fd ff4c 	bl	1c550 <__clzsi2>
   1e6b8:	3020      	adds	r0, #32
   1e6ba:	e672      	b.n	1e3a2 <__aeabi_ddiv+0x176>
   1e6bc:	0003      	movs	r3, r0
   1e6be:	4652      	mov	r2, sl
   1e6c0:	3b28      	subs	r3, #40	; 0x28
   1e6c2:	409a      	lsls	r2, r3
   1e6c4:	4693      	mov	fp, r2
   1e6c6:	2200      	movs	r2, #0
   1e6c8:	e6b4      	b.n	1e434 <__aeabi_ddiv+0x208>
   1e6ca:	4650      	mov	r0, sl
   1e6cc:	f7fd ff40 	bl	1c550 <__clzsi2>
   1e6d0:	3020      	adds	r0, #32
   1e6d2:	e69a      	b.n	1e40a <__aeabi_ddiv+0x1de>
   1e6d4:	42a6      	cmp	r6, r4
   1e6d6:	d1e2      	bne.n	1e69e <__aeabi_ddiv+0x472>
   1e6d8:	45b8      	cmp	r8, r7
   1e6da:	d9dc      	bls.n	1e696 <__aeabi_ddiv+0x46a>
   1e6dc:	1a34      	subs	r4, r6, r0
   1e6de:	469b      	mov	fp, r3
   1e6e0:	e759      	b.n	1e596 <__aeabi_ddiv+0x36a>
   1e6e2:	2b1f      	cmp	r3, #31
   1e6e4:	dc65      	bgt.n	1e7b2 <__aeabi_ddiv+0x586>
   1e6e6:	4c50      	ldr	r4, [pc, #320]	; (1e828 <__aeabi_ddiv+0x5fc>)
   1e6e8:	9900      	ldr	r1, [sp, #0]
   1e6ea:	46a4      	mov	ip, r4
   1e6ec:	465c      	mov	r4, fp
   1e6ee:	4461      	add	r1, ip
   1e6f0:	0008      	movs	r0, r1
   1e6f2:	408c      	lsls	r4, r1
   1e6f4:	0011      	movs	r1, r2
   1e6f6:	4082      	lsls	r2, r0
   1e6f8:	40d9      	lsrs	r1, r3
   1e6fa:	1e50      	subs	r0, r2, #1
   1e6fc:	4182      	sbcs	r2, r0
   1e6fe:	430c      	orrs	r4, r1
   1e700:	4314      	orrs	r4, r2
   1e702:	465a      	mov	r2, fp
   1e704:	40da      	lsrs	r2, r3
   1e706:	0013      	movs	r3, r2
   1e708:	0762      	lsls	r2, r4, #29
   1e70a:	d009      	beq.n	1e720 <__aeabi_ddiv+0x4f4>
   1e70c:	220f      	movs	r2, #15
   1e70e:	4022      	ands	r2, r4
   1e710:	2a04      	cmp	r2, #4
   1e712:	d005      	beq.n	1e720 <__aeabi_ddiv+0x4f4>
   1e714:	0022      	movs	r2, r4
   1e716:	1d14      	adds	r4, r2, #4
   1e718:	4294      	cmp	r4, r2
   1e71a:	4189      	sbcs	r1, r1
   1e71c:	4249      	negs	r1, r1
   1e71e:	185b      	adds	r3, r3, r1
   1e720:	021a      	lsls	r2, r3, #8
   1e722:	d562      	bpl.n	1e7ea <__aeabi_ddiv+0x5be>
   1e724:	2201      	movs	r2, #1
   1e726:	2300      	movs	r3, #0
   1e728:	2700      	movs	r7, #0
   1e72a:	e60d      	b.n	1e348 <__aeabi_ddiv+0x11c>
   1e72c:	428a      	cmp	r2, r1
   1e72e:	d800      	bhi.n	1e732 <__aeabi_ddiv+0x506>
   1e730:	e70a      	b.n	1e548 <__aeabi_ddiv+0x31c>
   1e732:	1e83      	subs	r3, r0, #2
   1e734:	1989      	adds	r1, r1, r6
   1e736:	e707      	b.n	1e548 <__aeabi_ddiv+0x31c>
   1e738:	230f      	movs	r3, #15
   1e73a:	4013      	ands	r3, r2
   1e73c:	2b04      	cmp	r3, #4
   1e73e:	d100      	bne.n	1e742 <__aeabi_ddiv+0x516>
   1e740:	e5e6      	b.n	1e310 <__aeabi_ddiv+0xe4>
   1e742:	1d17      	adds	r7, r2, #4
   1e744:	4297      	cmp	r7, r2
   1e746:	4192      	sbcs	r2, r2
   1e748:	4253      	negs	r3, r2
   1e74a:	449b      	add	fp, r3
   1e74c:	08fa      	lsrs	r2, r7, #3
   1e74e:	e5e0      	b.n	1e312 <__aeabi_ddiv+0xe6>
   1e750:	2800      	cmp	r0, #0
   1e752:	d100      	bne.n	1e756 <__aeabi_ddiv+0x52a>
   1e754:	e5d7      	b.n	1e306 <__aeabi_ddiv+0xda>
   1e756:	1871      	adds	r1, r6, r1
   1e758:	1e53      	subs	r3, r2, #1
   1e75a:	42b1      	cmp	r1, r6
   1e75c:	d327      	bcc.n	1e7ae <__aeabi_ddiv+0x582>
   1e75e:	42a9      	cmp	r1, r5
   1e760:	d315      	bcc.n	1e78e <__aeabi_ddiv+0x562>
   1e762:	d058      	beq.n	1e816 <__aeabi_ddiv+0x5ea>
   1e764:	001a      	movs	r2, r3
   1e766:	e773      	b.n	1e650 <__aeabi_ddiv+0x424>
   1e768:	2b00      	cmp	r3, #0
   1e76a:	dc00      	bgt.n	1e76e <__aeabi_ddiv+0x542>
   1e76c:	e604      	b.n	1e378 <__aeabi_ddiv+0x14c>
   1e76e:	2301      	movs	r3, #1
   1e770:	2200      	movs	r2, #0
   1e772:	449b      	add	fp, r3
   1e774:	e5cd      	b.n	1e312 <__aeabi_ddiv+0xe6>
   1e776:	2302      	movs	r3, #2
   1e778:	4447      	add	r7, r8
   1e77a:	4547      	cmp	r7, r8
   1e77c:	4189      	sbcs	r1, r1
   1e77e:	425b      	negs	r3, r3
   1e780:	469c      	mov	ip, r3
   1e782:	4249      	negs	r1, r1
   1e784:	1989      	adds	r1, r1, r6
   1e786:	190c      	adds	r4, r1, r4
   1e788:	44e3      	add	fp, ip
   1e78a:	1a24      	subs	r4, r4, r0
   1e78c:	e703      	b.n	1e596 <__aeabi_ddiv+0x36a>
   1e78e:	4643      	mov	r3, r8
   1e790:	005f      	lsls	r7, r3, #1
   1e792:	4547      	cmp	r7, r8
   1e794:	419b      	sbcs	r3, r3
   1e796:	46b8      	mov	r8, r7
   1e798:	425b      	negs	r3, r3
   1e79a:	199e      	adds	r6, r3, r6
   1e79c:	3a02      	subs	r2, #2
   1e79e:	1989      	adds	r1, r1, r6
   1e7a0:	42a9      	cmp	r1, r5
   1e7a2:	d000      	beq.n	1e7a6 <__aeabi_ddiv+0x57a>
   1e7a4:	e754      	b.n	1e650 <__aeabi_ddiv+0x424>
   1e7a6:	4540      	cmp	r0, r8
   1e7a8:	d000      	beq.n	1e7ac <__aeabi_ddiv+0x580>
   1e7aa:	e751      	b.n	1e650 <__aeabi_ddiv+0x424>
   1e7ac:	e5ab      	b.n	1e306 <__aeabi_ddiv+0xda>
   1e7ae:	001a      	movs	r2, r3
   1e7b0:	e7f6      	b.n	1e7a0 <__aeabi_ddiv+0x574>
   1e7b2:	211f      	movs	r1, #31
   1e7b4:	465f      	mov	r7, fp
   1e7b6:	4249      	negs	r1, r1
   1e7b8:	1b0c      	subs	r4, r1, r4
   1e7ba:	40e7      	lsrs	r7, r4
   1e7bc:	2b20      	cmp	r3, #32
   1e7be:	d007      	beq.n	1e7d0 <__aeabi_ddiv+0x5a4>
   1e7c0:	491a      	ldr	r1, [pc, #104]	; (1e82c <__aeabi_ddiv+0x600>)
   1e7c2:	9b00      	ldr	r3, [sp, #0]
   1e7c4:	468c      	mov	ip, r1
   1e7c6:	4463      	add	r3, ip
   1e7c8:	0018      	movs	r0, r3
   1e7ca:	465b      	mov	r3, fp
   1e7cc:	4083      	lsls	r3, r0
   1e7ce:	431a      	orrs	r2, r3
   1e7d0:	1e50      	subs	r0, r2, #1
   1e7d2:	4182      	sbcs	r2, r0
   1e7d4:	433a      	orrs	r2, r7
   1e7d6:	2707      	movs	r7, #7
   1e7d8:	2300      	movs	r3, #0
   1e7da:	4017      	ands	r7, r2
   1e7dc:	d009      	beq.n	1e7f2 <__aeabi_ddiv+0x5c6>
   1e7de:	210f      	movs	r1, #15
   1e7e0:	2300      	movs	r3, #0
   1e7e2:	4011      	ands	r1, r2
   1e7e4:	0014      	movs	r4, r2
   1e7e6:	2904      	cmp	r1, #4
   1e7e8:	d195      	bne.n	1e716 <__aeabi_ddiv+0x4ea>
   1e7ea:	0022      	movs	r2, r4
   1e7ec:	075f      	lsls	r7, r3, #29
   1e7ee:	025b      	lsls	r3, r3, #9
   1e7f0:	0b1b      	lsrs	r3, r3, #12
   1e7f2:	08d2      	lsrs	r2, r2, #3
   1e7f4:	4317      	orrs	r7, r2
   1e7f6:	2200      	movs	r2, #0
   1e7f8:	e5a6      	b.n	1e348 <__aeabi_ddiv+0x11c>
   1e7fa:	2380      	movs	r3, #128	; 0x80
   1e7fc:	4659      	mov	r1, fp
   1e7fe:	031b      	lsls	r3, r3, #12
   1e800:	430b      	orrs	r3, r1
   1e802:	031b      	lsls	r3, r3, #12
   1e804:	0017      	movs	r7, r2
   1e806:	0b1b      	lsrs	r3, r3, #12
   1e808:	4a06      	ldr	r2, [pc, #24]	; (1e824 <__aeabi_ddiv+0x5f8>)
   1e80a:	e59d      	b.n	1e348 <__aeabi_ddiv+0x11c>
   1e80c:	42bd      	cmp	r5, r7
   1e80e:	d8b2      	bhi.n	1e776 <__aeabi_ddiv+0x54a>
   1e810:	469b      	mov	fp, r3
   1e812:	2400      	movs	r4, #0
   1e814:	e6bf      	b.n	1e596 <__aeabi_ddiv+0x36a>
   1e816:	4580      	cmp	r8, r0
   1e818:	d3b9      	bcc.n	1e78e <__aeabi_ddiv+0x562>
   1e81a:	001a      	movs	r2, r3
   1e81c:	e7c3      	b.n	1e7a6 <__aeabi_ddiv+0x57a>
   1e81e:	46c0      	nop			; (mov r8, r8)
   1e820:	03ff      	lsls	r7, r7, #15
   1e822:	0000      	movs	r0, r0
   1e824:	07ff      	lsls	r7, r7, #31
   1e826:	0000      	movs	r0, r0
   1e828:	041e      	lsls	r6, r3, #16
   1e82a:	0000      	movs	r0, r0
   1e82c:	043e      	lsls	r6, r7, #16
	...

0001e830 <__aeabi_dsub>:
   1e830:	b5f8      	push	{r3, r4, r5, r6, r7, lr}
   1e832:	4657      	mov	r7, sl
   1e834:	464e      	mov	r6, r9
   1e836:	4645      	mov	r5, r8
   1e838:	46de      	mov	lr, fp
   1e83a:	000c      	movs	r4, r1
   1e83c:	0309      	lsls	r1, r1, #12
   1e83e:	b5e0      	push	{r5, r6, r7, lr}
   1e840:	0a49      	lsrs	r1, r1, #9
   1e842:	0f46      	lsrs	r6, r0, #29
   1e844:	005f      	lsls	r7, r3, #1
   1e846:	4331      	orrs	r1, r6
   1e848:	031e      	lsls	r6, r3, #12
   1e84a:	0fdb      	lsrs	r3, r3, #31
   1e84c:	0a76      	lsrs	r6, r6, #9
   1e84e:	469b      	mov	fp, r3
   1e850:	0f53      	lsrs	r3, r2, #29
   1e852:	4333      	orrs	r3, r6
   1e854:	4ec8      	ldr	r6, [pc, #800]	; (1eb78 <__aeabi_dsub+0x348>)
   1e856:	0065      	lsls	r5, r4, #1
   1e858:	00c0      	lsls	r0, r0, #3
   1e85a:	0fe4      	lsrs	r4, r4, #31
   1e85c:	00d2      	lsls	r2, r2, #3
   1e85e:	0d6d      	lsrs	r5, r5, #21
   1e860:	46a2      	mov	sl, r4
   1e862:	4681      	mov	r9, r0
   1e864:	0d7f      	lsrs	r7, r7, #21
   1e866:	469c      	mov	ip, r3
   1e868:	4690      	mov	r8, r2
   1e86a:	42b7      	cmp	r7, r6
   1e86c:	d100      	bne.n	1e870 <__aeabi_dsub+0x40>
   1e86e:	e0b9      	b.n	1e9e4 <__aeabi_dsub+0x1b4>
   1e870:	465b      	mov	r3, fp
   1e872:	2601      	movs	r6, #1
   1e874:	4073      	eors	r3, r6
   1e876:	469b      	mov	fp, r3
   1e878:	1bee      	subs	r6, r5, r7
   1e87a:	45a3      	cmp	fp, r4
   1e87c:	d100      	bne.n	1e880 <__aeabi_dsub+0x50>
   1e87e:	e083      	b.n	1e988 <__aeabi_dsub+0x158>
   1e880:	2e00      	cmp	r6, #0
   1e882:	dd63      	ble.n	1e94c <__aeabi_dsub+0x11c>
   1e884:	2f00      	cmp	r7, #0
   1e886:	d000      	beq.n	1e88a <__aeabi_dsub+0x5a>
   1e888:	e0b1      	b.n	1e9ee <__aeabi_dsub+0x1be>
   1e88a:	4663      	mov	r3, ip
   1e88c:	4313      	orrs	r3, r2
   1e88e:	d100      	bne.n	1e892 <__aeabi_dsub+0x62>
   1e890:	e123      	b.n	1eada <__aeabi_dsub+0x2aa>
   1e892:	1e73      	subs	r3, r6, #1
   1e894:	2b00      	cmp	r3, #0
   1e896:	d000      	beq.n	1e89a <__aeabi_dsub+0x6a>
   1e898:	e1ba      	b.n	1ec10 <__aeabi_dsub+0x3e0>
   1e89a:	1a86      	subs	r6, r0, r2
   1e89c:	4663      	mov	r3, ip
   1e89e:	42b0      	cmp	r0, r6
   1e8a0:	4180      	sbcs	r0, r0
   1e8a2:	2501      	movs	r5, #1
   1e8a4:	1ac9      	subs	r1, r1, r3
   1e8a6:	4240      	negs	r0, r0
   1e8a8:	1a09      	subs	r1, r1, r0
   1e8aa:	020b      	lsls	r3, r1, #8
   1e8ac:	d400      	bmi.n	1e8b0 <__aeabi_dsub+0x80>
   1e8ae:	e147      	b.n	1eb40 <__aeabi_dsub+0x310>
   1e8b0:	0249      	lsls	r1, r1, #9
   1e8b2:	0a4b      	lsrs	r3, r1, #9
   1e8b4:	4698      	mov	r8, r3
   1e8b6:	4643      	mov	r3, r8
   1e8b8:	2b00      	cmp	r3, #0
   1e8ba:	d100      	bne.n	1e8be <__aeabi_dsub+0x8e>
   1e8bc:	e189      	b.n	1ebd2 <__aeabi_dsub+0x3a2>
   1e8be:	4640      	mov	r0, r8
   1e8c0:	f7fd fe46 	bl	1c550 <__clzsi2>
   1e8c4:	0003      	movs	r3, r0
   1e8c6:	3b08      	subs	r3, #8
   1e8c8:	2b1f      	cmp	r3, #31
   1e8ca:	dd00      	ble.n	1e8ce <__aeabi_dsub+0x9e>
   1e8cc:	e17c      	b.n	1ebc8 <__aeabi_dsub+0x398>
   1e8ce:	2220      	movs	r2, #32
   1e8d0:	0030      	movs	r0, r6
   1e8d2:	1ad2      	subs	r2, r2, r3
   1e8d4:	4641      	mov	r1, r8
   1e8d6:	40d0      	lsrs	r0, r2
   1e8d8:	4099      	lsls	r1, r3
   1e8da:	0002      	movs	r2, r0
   1e8dc:	409e      	lsls	r6, r3
   1e8de:	430a      	orrs	r2, r1
   1e8e0:	429d      	cmp	r5, r3
   1e8e2:	dd00      	ble.n	1e8e6 <__aeabi_dsub+0xb6>
   1e8e4:	e16a      	b.n	1ebbc <__aeabi_dsub+0x38c>
   1e8e6:	1b5d      	subs	r5, r3, r5
   1e8e8:	1c6b      	adds	r3, r5, #1
   1e8ea:	2b1f      	cmp	r3, #31
   1e8ec:	dd00      	ble.n	1e8f0 <__aeabi_dsub+0xc0>
   1e8ee:	e194      	b.n	1ec1a <__aeabi_dsub+0x3ea>
   1e8f0:	2120      	movs	r1, #32
   1e8f2:	0010      	movs	r0, r2
   1e8f4:	0035      	movs	r5, r6
   1e8f6:	1ac9      	subs	r1, r1, r3
   1e8f8:	408e      	lsls	r6, r1
   1e8fa:	40da      	lsrs	r2, r3
   1e8fc:	4088      	lsls	r0, r1
   1e8fe:	40dd      	lsrs	r5, r3
   1e900:	1e71      	subs	r1, r6, #1
   1e902:	418e      	sbcs	r6, r1
   1e904:	0011      	movs	r1, r2
   1e906:	2207      	movs	r2, #7
   1e908:	4328      	orrs	r0, r5
   1e90a:	2500      	movs	r5, #0
   1e90c:	4306      	orrs	r6, r0
   1e90e:	4032      	ands	r2, r6
   1e910:	2a00      	cmp	r2, #0
   1e912:	d009      	beq.n	1e928 <__aeabi_dsub+0xf8>
   1e914:	230f      	movs	r3, #15
   1e916:	4033      	ands	r3, r6
   1e918:	2b04      	cmp	r3, #4
   1e91a:	d005      	beq.n	1e928 <__aeabi_dsub+0xf8>
   1e91c:	1d33      	adds	r3, r6, #4
   1e91e:	42b3      	cmp	r3, r6
   1e920:	41b6      	sbcs	r6, r6
   1e922:	4276      	negs	r6, r6
   1e924:	1989      	adds	r1, r1, r6
   1e926:	001e      	movs	r6, r3
   1e928:	020b      	lsls	r3, r1, #8
   1e92a:	d400      	bmi.n	1e92e <__aeabi_dsub+0xfe>
   1e92c:	e23d      	b.n	1edaa <__aeabi_dsub+0x57a>
   1e92e:	1c6a      	adds	r2, r5, #1
   1e930:	4b91      	ldr	r3, [pc, #580]	; (1eb78 <__aeabi_dsub+0x348>)
   1e932:	0555      	lsls	r5, r2, #21
   1e934:	0d6d      	lsrs	r5, r5, #21
   1e936:	429a      	cmp	r2, r3
   1e938:	d100      	bne.n	1e93c <__aeabi_dsub+0x10c>
   1e93a:	e119      	b.n	1eb70 <__aeabi_dsub+0x340>
   1e93c:	4a8f      	ldr	r2, [pc, #572]	; (1eb7c <__aeabi_dsub+0x34c>)
   1e93e:	08f6      	lsrs	r6, r6, #3
   1e940:	400a      	ands	r2, r1
   1e942:	0757      	lsls	r7, r2, #29
   1e944:	0252      	lsls	r2, r2, #9
   1e946:	4337      	orrs	r7, r6
   1e948:	0b12      	lsrs	r2, r2, #12
   1e94a:	e09b      	b.n	1ea84 <__aeabi_dsub+0x254>
   1e94c:	2e00      	cmp	r6, #0
   1e94e:	d000      	beq.n	1e952 <__aeabi_dsub+0x122>
   1e950:	e0c5      	b.n	1eade <__aeabi_dsub+0x2ae>
   1e952:	1c6e      	adds	r6, r5, #1
   1e954:	0576      	lsls	r6, r6, #21
   1e956:	0d76      	lsrs	r6, r6, #21
   1e958:	2e01      	cmp	r6, #1
   1e95a:	dc00      	bgt.n	1e95e <__aeabi_dsub+0x12e>
   1e95c:	e148      	b.n	1ebf0 <__aeabi_dsub+0x3c0>
   1e95e:	4667      	mov	r7, ip
   1e960:	1a86      	subs	r6, r0, r2
   1e962:	1bcb      	subs	r3, r1, r7
   1e964:	42b0      	cmp	r0, r6
   1e966:	41bf      	sbcs	r7, r7
   1e968:	427f      	negs	r7, r7
   1e96a:	46b8      	mov	r8, r7
   1e96c:	001f      	movs	r7, r3
   1e96e:	4643      	mov	r3, r8
   1e970:	1aff      	subs	r7, r7, r3
   1e972:	003b      	movs	r3, r7
   1e974:	46b8      	mov	r8, r7
   1e976:	021b      	lsls	r3, r3, #8
   1e978:	d500      	bpl.n	1e97c <__aeabi_dsub+0x14c>
   1e97a:	e15f      	b.n	1ec3c <__aeabi_dsub+0x40c>
   1e97c:	4337      	orrs	r7, r6
   1e97e:	d19a      	bne.n	1e8b6 <__aeabi_dsub+0x86>
   1e980:	2200      	movs	r2, #0
   1e982:	2400      	movs	r4, #0
   1e984:	2500      	movs	r5, #0
   1e986:	e079      	b.n	1ea7c <__aeabi_dsub+0x24c>
   1e988:	2e00      	cmp	r6, #0
   1e98a:	dc00      	bgt.n	1e98e <__aeabi_dsub+0x15e>
   1e98c:	e0fa      	b.n	1eb84 <__aeabi_dsub+0x354>
   1e98e:	2f00      	cmp	r7, #0
   1e990:	d100      	bne.n	1e994 <__aeabi_dsub+0x164>
   1e992:	e08d      	b.n	1eab0 <__aeabi_dsub+0x280>
   1e994:	4b78      	ldr	r3, [pc, #480]	; (1eb78 <__aeabi_dsub+0x348>)
   1e996:	429d      	cmp	r5, r3
   1e998:	d067      	beq.n	1ea6a <__aeabi_dsub+0x23a>
   1e99a:	2380      	movs	r3, #128	; 0x80
   1e99c:	4667      	mov	r7, ip
   1e99e:	041b      	lsls	r3, r3, #16
   1e9a0:	431f      	orrs	r7, r3
   1e9a2:	46bc      	mov	ip, r7
   1e9a4:	2e38      	cmp	r6, #56	; 0x38
   1e9a6:	dc00      	bgt.n	1e9aa <__aeabi_dsub+0x17a>
   1e9a8:	e152      	b.n	1ec50 <__aeabi_dsub+0x420>
   1e9aa:	4663      	mov	r3, ip
   1e9ac:	4313      	orrs	r3, r2
   1e9ae:	1e5a      	subs	r2, r3, #1
   1e9b0:	4193      	sbcs	r3, r2
   1e9b2:	181e      	adds	r6, r3, r0
   1e9b4:	4286      	cmp	r6, r0
   1e9b6:	4180      	sbcs	r0, r0
   1e9b8:	4240      	negs	r0, r0
   1e9ba:	1809      	adds	r1, r1, r0
   1e9bc:	020b      	lsls	r3, r1, #8
   1e9be:	d400      	bmi.n	1e9c2 <__aeabi_dsub+0x192>
   1e9c0:	e0be      	b.n	1eb40 <__aeabi_dsub+0x310>
   1e9c2:	4b6d      	ldr	r3, [pc, #436]	; (1eb78 <__aeabi_dsub+0x348>)
   1e9c4:	3501      	adds	r5, #1
   1e9c6:	429d      	cmp	r5, r3
   1e9c8:	d100      	bne.n	1e9cc <__aeabi_dsub+0x19c>
   1e9ca:	e0d2      	b.n	1eb72 <__aeabi_dsub+0x342>
   1e9cc:	4a6b      	ldr	r2, [pc, #428]	; (1eb7c <__aeabi_dsub+0x34c>)
   1e9ce:	0873      	lsrs	r3, r6, #1
   1e9d0:	400a      	ands	r2, r1
   1e9d2:	2101      	movs	r1, #1
   1e9d4:	400e      	ands	r6, r1
   1e9d6:	431e      	orrs	r6, r3
   1e9d8:	0851      	lsrs	r1, r2, #1
   1e9da:	07d3      	lsls	r3, r2, #31
   1e9dc:	2207      	movs	r2, #7
   1e9de:	431e      	orrs	r6, r3
   1e9e0:	4032      	ands	r2, r6
   1e9e2:	e795      	b.n	1e910 <__aeabi_dsub+0xe0>
   1e9e4:	001e      	movs	r6, r3
   1e9e6:	4316      	orrs	r6, r2
   1e9e8:	d000      	beq.n	1e9ec <__aeabi_dsub+0x1bc>
   1e9ea:	e745      	b.n	1e878 <__aeabi_dsub+0x48>
   1e9ec:	e740      	b.n	1e870 <__aeabi_dsub+0x40>
   1e9ee:	4b62      	ldr	r3, [pc, #392]	; (1eb78 <__aeabi_dsub+0x348>)
   1e9f0:	429d      	cmp	r5, r3
   1e9f2:	d03a      	beq.n	1ea6a <__aeabi_dsub+0x23a>
   1e9f4:	2380      	movs	r3, #128	; 0x80
   1e9f6:	4667      	mov	r7, ip
   1e9f8:	041b      	lsls	r3, r3, #16
   1e9fa:	431f      	orrs	r7, r3
   1e9fc:	46bc      	mov	ip, r7
   1e9fe:	2e38      	cmp	r6, #56	; 0x38
   1ea00:	dd00      	ble.n	1ea04 <__aeabi_dsub+0x1d4>
   1ea02:	e0eb      	b.n	1ebdc <__aeabi_dsub+0x3ac>
   1ea04:	2e1f      	cmp	r6, #31
   1ea06:	dc00      	bgt.n	1ea0a <__aeabi_dsub+0x1da>
   1ea08:	e13a      	b.n	1ec80 <__aeabi_dsub+0x450>
   1ea0a:	0033      	movs	r3, r6
   1ea0c:	4667      	mov	r7, ip
   1ea0e:	3b20      	subs	r3, #32
   1ea10:	40df      	lsrs	r7, r3
   1ea12:	003b      	movs	r3, r7
   1ea14:	2e20      	cmp	r6, #32
   1ea16:	d005      	beq.n	1ea24 <__aeabi_dsub+0x1f4>
   1ea18:	2740      	movs	r7, #64	; 0x40
   1ea1a:	1bbf      	subs	r7, r7, r6
   1ea1c:	4666      	mov	r6, ip
   1ea1e:	40be      	lsls	r6, r7
   1ea20:	4332      	orrs	r2, r6
   1ea22:	4690      	mov	r8, r2
   1ea24:	4646      	mov	r6, r8
   1ea26:	1e72      	subs	r2, r6, #1
   1ea28:	4196      	sbcs	r6, r2
   1ea2a:	4333      	orrs	r3, r6
   1ea2c:	e0da      	b.n	1ebe4 <__aeabi_dsub+0x3b4>
   1ea2e:	2b00      	cmp	r3, #0
   1ea30:	d100      	bne.n	1ea34 <__aeabi_dsub+0x204>
   1ea32:	e214      	b.n	1ee5e <__aeabi_dsub+0x62e>
   1ea34:	4663      	mov	r3, ip
   1ea36:	4313      	orrs	r3, r2
   1ea38:	d100      	bne.n	1ea3c <__aeabi_dsub+0x20c>
   1ea3a:	e168      	b.n	1ed0e <__aeabi_dsub+0x4de>
   1ea3c:	2380      	movs	r3, #128	; 0x80
   1ea3e:	074e      	lsls	r6, r1, #29
   1ea40:	08c0      	lsrs	r0, r0, #3
   1ea42:	08c9      	lsrs	r1, r1, #3
   1ea44:	031b      	lsls	r3, r3, #12
   1ea46:	4306      	orrs	r6, r0
   1ea48:	4219      	tst	r1, r3
   1ea4a:	d008      	beq.n	1ea5e <__aeabi_dsub+0x22e>
   1ea4c:	4660      	mov	r0, ip
   1ea4e:	08c0      	lsrs	r0, r0, #3
   1ea50:	4218      	tst	r0, r3
   1ea52:	d104      	bne.n	1ea5e <__aeabi_dsub+0x22e>
   1ea54:	4663      	mov	r3, ip
   1ea56:	0001      	movs	r1, r0
   1ea58:	08d2      	lsrs	r2, r2, #3
   1ea5a:	075e      	lsls	r6, r3, #29
   1ea5c:	4316      	orrs	r6, r2
   1ea5e:	00f3      	lsls	r3, r6, #3
   1ea60:	4699      	mov	r9, r3
   1ea62:	00c9      	lsls	r1, r1, #3
   1ea64:	0f72      	lsrs	r2, r6, #29
   1ea66:	4d44      	ldr	r5, [pc, #272]	; (1eb78 <__aeabi_dsub+0x348>)
   1ea68:	4311      	orrs	r1, r2
   1ea6a:	464b      	mov	r3, r9
   1ea6c:	08de      	lsrs	r6, r3, #3
   1ea6e:	4b42      	ldr	r3, [pc, #264]	; (1eb78 <__aeabi_dsub+0x348>)
   1ea70:	074f      	lsls	r7, r1, #29
   1ea72:	4337      	orrs	r7, r6
   1ea74:	08ca      	lsrs	r2, r1, #3
   1ea76:	429d      	cmp	r5, r3
   1ea78:	d100      	bne.n	1ea7c <__aeabi_dsub+0x24c>
   1ea7a:	e06e      	b.n	1eb5a <__aeabi_dsub+0x32a>
   1ea7c:	0312      	lsls	r2, r2, #12
   1ea7e:	056d      	lsls	r5, r5, #21
   1ea80:	0b12      	lsrs	r2, r2, #12
   1ea82:	0d6d      	lsrs	r5, r5, #21
   1ea84:	2100      	movs	r1, #0
   1ea86:	0312      	lsls	r2, r2, #12
   1ea88:	0b13      	lsrs	r3, r2, #12
   1ea8a:	0d0a      	lsrs	r2, r1, #20
   1ea8c:	0512      	lsls	r2, r2, #20
   1ea8e:	431a      	orrs	r2, r3
   1ea90:	4b3b      	ldr	r3, [pc, #236]	; (1eb80 <__aeabi_dsub+0x350>)
   1ea92:	052d      	lsls	r5, r5, #20
   1ea94:	4013      	ands	r3, r2
   1ea96:	432b      	orrs	r3, r5
   1ea98:	005b      	lsls	r3, r3, #1
   1ea9a:	07e4      	lsls	r4, r4, #31
   1ea9c:	085b      	lsrs	r3, r3, #1
   1ea9e:	4323      	orrs	r3, r4
   1eaa0:	0038      	movs	r0, r7
   1eaa2:	0019      	movs	r1, r3
   1eaa4:	bc3c      	pop	{r2, r3, r4, r5}
   1eaa6:	4690      	mov	r8, r2
   1eaa8:	4699      	mov	r9, r3
   1eaaa:	46a2      	mov	sl, r4
   1eaac:	46ab      	mov	fp, r5
   1eaae:	bdf8      	pop	{r3, r4, r5, r6, r7, pc}
   1eab0:	4663      	mov	r3, ip
   1eab2:	4313      	orrs	r3, r2
   1eab4:	d011      	beq.n	1eada <__aeabi_dsub+0x2aa>
   1eab6:	1e73      	subs	r3, r6, #1
   1eab8:	2b00      	cmp	r3, #0
   1eaba:	d000      	beq.n	1eabe <__aeabi_dsub+0x28e>
   1eabc:	e107      	b.n	1ecce <__aeabi_dsub+0x49e>
   1eabe:	1886      	adds	r6, r0, r2
   1eac0:	4286      	cmp	r6, r0
   1eac2:	4180      	sbcs	r0, r0
   1eac4:	4461      	add	r1, ip
   1eac6:	4240      	negs	r0, r0
   1eac8:	1809      	adds	r1, r1, r0
   1eaca:	2501      	movs	r5, #1
   1eacc:	020b      	lsls	r3, r1, #8
   1eace:	d537      	bpl.n	1eb40 <__aeabi_dsub+0x310>
   1ead0:	2502      	movs	r5, #2
   1ead2:	e77b      	b.n	1e9cc <__aeabi_dsub+0x19c>
   1ead4:	003e      	movs	r6, r7
   1ead6:	4661      	mov	r1, ip
   1ead8:	4691      	mov	r9, r2
   1eada:	0035      	movs	r5, r6
   1eadc:	e7c5      	b.n	1ea6a <__aeabi_dsub+0x23a>
   1eade:	465c      	mov	r4, fp
   1eae0:	2d00      	cmp	r5, #0
   1eae2:	d000      	beq.n	1eae6 <__aeabi_dsub+0x2b6>
   1eae4:	e0e1      	b.n	1ecaa <__aeabi_dsub+0x47a>
   1eae6:	000b      	movs	r3, r1
   1eae8:	4303      	orrs	r3, r0
   1eaea:	d0f3      	beq.n	1ead4 <__aeabi_dsub+0x2a4>
   1eaec:	1c73      	adds	r3, r6, #1
   1eaee:	d100      	bne.n	1eaf2 <__aeabi_dsub+0x2c2>
   1eaf0:	e1ac      	b.n	1ee4c <__aeabi_dsub+0x61c>
   1eaf2:	4b21      	ldr	r3, [pc, #132]	; (1eb78 <__aeabi_dsub+0x348>)
   1eaf4:	429f      	cmp	r7, r3
   1eaf6:	d100      	bne.n	1eafa <__aeabi_dsub+0x2ca>
   1eaf8:	e13a      	b.n	1ed70 <__aeabi_dsub+0x540>
   1eafa:	43f3      	mvns	r3, r6
   1eafc:	2b38      	cmp	r3, #56	; 0x38
   1eafe:	dd00      	ble.n	1eb02 <__aeabi_dsub+0x2d2>
   1eb00:	e16f      	b.n	1ede2 <__aeabi_dsub+0x5b2>
   1eb02:	2b1f      	cmp	r3, #31
   1eb04:	dd00      	ble.n	1eb08 <__aeabi_dsub+0x2d8>
   1eb06:	e18c      	b.n	1ee22 <__aeabi_dsub+0x5f2>
   1eb08:	2520      	movs	r5, #32
   1eb0a:	000e      	movs	r6, r1
   1eb0c:	1aed      	subs	r5, r5, r3
   1eb0e:	40ae      	lsls	r6, r5
   1eb10:	46b0      	mov	r8, r6
   1eb12:	0006      	movs	r6, r0
   1eb14:	46aa      	mov	sl, r5
   1eb16:	40de      	lsrs	r6, r3
   1eb18:	4645      	mov	r5, r8
   1eb1a:	4335      	orrs	r5, r6
   1eb1c:	002e      	movs	r6, r5
   1eb1e:	4655      	mov	r5, sl
   1eb20:	40d9      	lsrs	r1, r3
   1eb22:	40a8      	lsls	r0, r5
   1eb24:	4663      	mov	r3, ip
   1eb26:	1e45      	subs	r5, r0, #1
   1eb28:	41a8      	sbcs	r0, r5
   1eb2a:	1a5b      	subs	r3, r3, r1
   1eb2c:	469c      	mov	ip, r3
   1eb2e:	4330      	orrs	r0, r6
   1eb30:	1a16      	subs	r6, r2, r0
   1eb32:	42b2      	cmp	r2, r6
   1eb34:	4192      	sbcs	r2, r2
   1eb36:	4663      	mov	r3, ip
   1eb38:	4252      	negs	r2, r2
   1eb3a:	1a99      	subs	r1, r3, r2
   1eb3c:	003d      	movs	r5, r7
   1eb3e:	e6b4      	b.n	1e8aa <__aeabi_dsub+0x7a>
   1eb40:	2207      	movs	r2, #7
   1eb42:	4032      	ands	r2, r6
   1eb44:	2a00      	cmp	r2, #0
   1eb46:	d000      	beq.n	1eb4a <__aeabi_dsub+0x31a>
   1eb48:	e6e4      	b.n	1e914 <__aeabi_dsub+0xe4>
   1eb4a:	4b0b      	ldr	r3, [pc, #44]	; (1eb78 <__aeabi_dsub+0x348>)
   1eb4c:	08f6      	lsrs	r6, r6, #3
   1eb4e:	074f      	lsls	r7, r1, #29
   1eb50:	4337      	orrs	r7, r6
   1eb52:	08ca      	lsrs	r2, r1, #3
   1eb54:	429d      	cmp	r5, r3
   1eb56:	d000      	beq.n	1eb5a <__aeabi_dsub+0x32a>
   1eb58:	e790      	b.n	1ea7c <__aeabi_dsub+0x24c>
   1eb5a:	003b      	movs	r3, r7
   1eb5c:	4313      	orrs	r3, r2
   1eb5e:	d100      	bne.n	1eb62 <__aeabi_dsub+0x332>
   1eb60:	e1a6      	b.n	1eeb0 <__aeabi_dsub+0x680>
   1eb62:	2380      	movs	r3, #128	; 0x80
   1eb64:	031b      	lsls	r3, r3, #12
   1eb66:	431a      	orrs	r2, r3
   1eb68:	0312      	lsls	r2, r2, #12
   1eb6a:	0b12      	lsrs	r2, r2, #12
   1eb6c:	4d02      	ldr	r5, [pc, #8]	; (1eb78 <__aeabi_dsub+0x348>)
   1eb6e:	e789      	b.n	1ea84 <__aeabi_dsub+0x254>
   1eb70:	0015      	movs	r5, r2
   1eb72:	2200      	movs	r2, #0
   1eb74:	2700      	movs	r7, #0
   1eb76:	e785      	b.n	1ea84 <__aeabi_dsub+0x254>
   1eb78:	07ff      	lsls	r7, r7, #31
   1eb7a:	0000      	movs	r0, r0
   1eb7c:	ffff ff7f 	vcvt.u32.f32	<illegal reg q15.5>, <illegal reg q15.5>, #1
   1eb80:	ffff 800f 	vaddl.u<illegal width 64>	q12, d15, d15
   1eb84:	2e00      	cmp	r6, #0
   1eb86:	d000      	beq.n	1eb8a <__aeabi_dsub+0x35a>
   1eb88:	e0c7      	b.n	1ed1a <__aeabi_dsub+0x4ea>
   1eb8a:	1c6b      	adds	r3, r5, #1
   1eb8c:	055e      	lsls	r6, r3, #21
   1eb8e:	0d76      	lsrs	r6, r6, #21
   1eb90:	2e01      	cmp	r6, #1
   1eb92:	dc00      	bgt.n	1eb96 <__aeabi_dsub+0x366>
   1eb94:	e0f0      	b.n	1ed78 <__aeabi_dsub+0x548>
   1eb96:	4dc8      	ldr	r5, [pc, #800]	; (1eeb8 <__aeabi_dsub+0x688>)
   1eb98:	42ab      	cmp	r3, r5
   1eb9a:	d100      	bne.n	1eb9e <__aeabi_dsub+0x36e>
   1eb9c:	e0b9      	b.n	1ed12 <__aeabi_dsub+0x4e2>
   1eb9e:	1885      	adds	r5, r0, r2
   1eba0:	000a      	movs	r2, r1
   1eba2:	4285      	cmp	r5, r0
   1eba4:	4189      	sbcs	r1, r1
   1eba6:	4462      	add	r2, ip
   1eba8:	4249      	negs	r1, r1
   1ebaa:	1851      	adds	r1, r2, r1
   1ebac:	2207      	movs	r2, #7
   1ebae:	07ce      	lsls	r6, r1, #31
   1ebb0:	086d      	lsrs	r5, r5, #1
   1ebb2:	432e      	orrs	r6, r5
   1ebb4:	0849      	lsrs	r1, r1, #1
   1ebb6:	4032      	ands	r2, r6
   1ebb8:	001d      	movs	r5, r3
   1ebba:	e6a9      	b.n	1e910 <__aeabi_dsub+0xe0>
   1ebbc:	49bf      	ldr	r1, [pc, #764]	; (1eebc <__aeabi_dsub+0x68c>)
   1ebbe:	1aed      	subs	r5, r5, r3
   1ebc0:	4011      	ands	r1, r2
   1ebc2:	2207      	movs	r2, #7
   1ebc4:	4032      	ands	r2, r6
   1ebc6:	e6a3      	b.n	1e910 <__aeabi_dsub+0xe0>
   1ebc8:	0032      	movs	r2, r6
   1ebca:	3828      	subs	r0, #40	; 0x28
   1ebcc:	4082      	lsls	r2, r0
   1ebce:	2600      	movs	r6, #0
   1ebd0:	e686      	b.n	1e8e0 <__aeabi_dsub+0xb0>
   1ebd2:	0030      	movs	r0, r6
   1ebd4:	f7fd fcbc 	bl	1c550 <__clzsi2>
   1ebd8:	3020      	adds	r0, #32
   1ebda:	e673      	b.n	1e8c4 <__aeabi_dsub+0x94>
   1ebdc:	4663      	mov	r3, ip
   1ebde:	4313      	orrs	r3, r2
   1ebe0:	1e5a      	subs	r2, r3, #1
   1ebe2:	4193      	sbcs	r3, r2
   1ebe4:	1ac6      	subs	r6, r0, r3
   1ebe6:	42b0      	cmp	r0, r6
   1ebe8:	4180      	sbcs	r0, r0
   1ebea:	4240      	negs	r0, r0
   1ebec:	1a09      	subs	r1, r1, r0
   1ebee:	e65c      	b.n	1e8aa <__aeabi_dsub+0x7a>
   1ebf0:	000e      	movs	r6, r1
   1ebf2:	4667      	mov	r7, ip
   1ebf4:	4306      	orrs	r6, r0
   1ebf6:	4317      	orrs	r7, r2
   1ebf8:	2d00      	cmp	r5, #0
   1ebfa:	d15e      	bne.n	1ecba <__aeabi_dsub+0x48a>
   1ebfc:	2e00      	cmp	r6, #0
   1ebfe:	d000      	beq.n	1ec02 <__aeabi_dsub+0x3d2>
   1ec00:	e0f3      	b.n	1edea <__aeabi_dsub+0x5ba>
   1ec02:	2f00      	cmp	r7, #0
   1ec04:	d100      	bne.n	1ec08 <__aeabi_dsub+0x3d8>
   1ec06:	e11e      	b.n	1ee46 <__aeabi_dsub+0x616>
   1ec08:	465c      	mov	r4, fp
   1ec0a:	4661      	mov	r1, ip
   1ec0c:	4691      	mov	r9, r2
   1ec0e:	e72c      	b.n	1ea6a <__aeabi_dsub+0x23a>
   1ec10:	4fa9      	ldr	r7, [pc, #676]	; (1eeb8 <__aeabi_dsub+0x688>)
   1ec12:	42be      	cmp	r6, r7
   1ec14:	d07b      	beq.n	1ed0e <__aeabi_dsub+0x4de>
   1ec16:	001e      	movs	r6, r3
   1ec18:	e6f1      	b.n	1e9fe <__aeabi_dsub+0x1ce>
   1ec1a:	0010      	movs	r0, r2
   1ec1c:	3d1f      	subs	r5, #31
   1ec1e:	40e8      	lsrs	r0, r5
   1ec20:	2b20      	cmp	r3, #32
   1ec22:	d003      	beq.n	1ec2c <__aeabi_dsub+0x3fc>
   1ec24:	2140      	movs	r1, #64	; 0x40
   1ec26:	1acb      	subs	r3, r1, r3
   1ec28:	409a      	lsls	r2, r3
   1ec2a:	4316      	orrs	r6, r2
   1ec2c:	1e73      	subs	r3, r6, #1
   1ec2e:	419e      	sbcs	r6, r3
   1ec30:	2207      	movs	r2, #7
   1ec32:	4306      	orrs	r6, r0
   1ec34:	4032      	ands	r2, r6
   1ec36:	2100      	movs	r1, #0
   1ec38:	2500      	movs	r5, #0
   1ec3a:	e783      	b.n	1eb44 <__aeabi_dsub+0x314>
   1ec3c:	1a16      	subs	r6, r2, r0
   1ec3e:	4663      	mov	r3, ip
   1ec40:	42b2      	cmp	r2, r6
   1ec42:	4180      	sbcs	r0, r0
   1ec44:	1a59      	subs	r1, r3, r1
   1ec46:	4240      	negs	r0, r0
   1ec48:	1a0b      	subs	r3, r1, r0
   1ec4a:	4698      	mov	r8, r3
   1ec4c:	465c      	mov	r4, fp
   1ec4e:	e632      	b.n	1e8b6 <__aeabi_dsub+0x86>
   1ec50:	2e1f      	cmp	r6, #31
   1ec52:	dd00      	ble.n	1ec56 <__aeabi_dsub+0x426>
   1ec54:	e0ab      	b.n	1edae <__aeabi_dsub+0x57e>
   1ec56:	2720      	movs	r7, #32
   1ec58:	1bbb      	subs	r3, r7, r6
   1ec5a:	469a      	mov	sl, r3
   1ec5c:	4663      	mov	r3, ip
   1ec5e:	4657      	mov	r7, sl
   1ec60:	40bb      	lsls	r3, r7
   1ec62:	4699      	mov	r9, r3
   1ec64:	0013      	movs	r3, r2
   1ec66:	464f      	mov	r7, r9
   1ec68:	40f3      	lsrs	r3, r6
   1ec6a:	431f      	orrs	r7, r3
   1ec6c:	003b      	movs	r3, r7
   1ec6e:	4657      	mov	r7, sl
   1ec70:	40ba      	lsls	r2, r7
   1ec72:	1e57      	subs	r7, r2, #1
   1ec74:	41ba      	sbcs	r2, r7
   1ec76:	4313      	orrs	r3, r2
   1ec78:	4662      	mov	r2, ip
   1ec7a:	40f2      	lsrs	r2, r6
   1ec7c:	1889      	adds	r1, r1, r2
   1ec7e:	e698      	b.n	1e9b2 <__aeabi_dsub+0x182>
   1ec80:	2720      	movs	r7, #32
   1ec82:	1bbb      	subs	r3, r7, r6
   1ec84:	469a      	mov	sl, r3
   1ec86:	4663      	mov	r3, ip
   1ec88:	4657      	mov	r7, sl
   1ec8a:	40bb      	lsls	r3, r7
   1ec8c:	4699      	mov	r9, r3
   1ec8e:	0013      	movs	r3, r2
   1ec90:	464f      	mov	r7, r9
   1ec92:	40f3      	lsrs	r3, r6
   1ec94:	431f      	orrs	r7, r3
   1ec96:	003b      	movs	r3, r7
   1ec98:	4657      	mov	r7, sl
   1ec9a:	40ba      	lsls	r2, r7
   1ec9c:	1e57      	subs	r7, r2, #1
   1ec9e:	41ba      	sbcs	r2, r7
   1eca0:	4313      	orrs	r3, r2
   1eca2:	4662      	mov	r2, ip
   1eca4:	40f2      	lsrs	r2, r6
   1eca6:	1a89      	subs	r1, r1, r2
   1eca8:	e79c      	b.n	1ebe4 <__aeabi_dsub+0x3b4>
   1ecaa:	4b83      	ldr	r3, [pc, #524]	; (1eeb8 <__aeabi_dsub+0x688>)
   1ecac:	429f      	cmp	r7, r3
   1ecae:	d05f      	beq.n	1ed70 <__aeabi_dsub+0x540>
   1ecb0:	2580      	movs	r5, #128	; 0x80
   1ecb2:	042d      	lsls	r5, r5, #16
   1ecb4:	4273      	negs	r3, r6
   1ecb6:	4329      	orrs	r1, r5
   1ecb8:	e720      	b.n	1eafc <__aeabi_dsub+0x2cc>
   1ecba:	2e00      	cmp	r6, #0
   1ecbc:	d10c      	bne.n	1ecd8 <__aeabi_dsub+0x4a8>
   1ecbe:	2f00      	cmp	r7, #0
   1ecc0:	d100      	bne.n	1ecc4 <__aeabi_dsub+0x494>
   1ecc2:	e0d0      	b.n	1ee66 <__aeabi_dsub+0x636>
   1ecc4:	465c      	mov	r4, fp
   1ecc6:	4661      	mov	r1, ip
   1ecc8:	4691      	mov	r9, r2
   1ecca:	4d7b      	ldr	r5, [pc, #492]	; (1eeb8 <__aeabi_dsub+0x688>)
   1eccc:	e6cd      	b.n	1ea6a <__aeabi_dsub+0x23a>
   1ecce:	4f7a      	ldr	r7, [pc, #488]	; (1eeb8 <__aeabi_dsub+0x688>)
   1ecd0:	42be      	cmp	r6, r7
   1ecd2:	d01c      	beq.n	1ed0e <__aeabi_dsub+0x4de>
   1ecd4:	001e      	movs	r6, r3
   1ecd6:	e665      	b.n	1e9a4 <__aeabi_dsub+0x174>
   1ecd8:	2f00      	cmp	r7, #0
   1ecda:	d018      	beq.n	1ed0e <__aeabi_dsub+0x4de>
   1ecdc:	08c0      	lsrs	r0, r0, #3
   1ecde:	074e      	lsls	r6, r1, #29
   1ece0:	4306      	orrs	r6, r0
   1ece2:	2080      	movs	r0, #128	; 0x80
   1ece4:	08c9      	lsrs	r1, r1, #3
   1ece6:	0300      	lsls	r0, r0, #12
   1ece8:	4201      	tst	r1, r0
   1ecea:	d008      	beq.n	1ecfe <__aeabi_dsub+0x4ce>
   1ecec:	4663      	mov	r3, ip
   1ecee:	08dc      	lsrs	r4, r3, #3
   1ecf0:	4204      	tst	r4, r0
   1ecf2:	d104      	bne.n	1ecfe <__aeabi_dsub+0x4ce>
   1ecf4:	0021      	movs	r1, r4
   1ecf6:	46da      	mov	sl, fp
   1ecf8:	08d2      	lsrs	r2, r2, #3
   1ecfa:	075e      	lsls	r6, r3, #29
   1ecfc:	4316      	orrs	r6, r2
   1ecfe:	00f3      	lsls	r3, r6, #3
   1ed00:	4699      	mov	r9, r3
   1ed02:	2401      	movs	r4, #1
   1ed04:	4653      	mov	r3, sl
   1ed06:	00c9      	lsls	r1, r1, #3
   1ed08:	0f72      	lsrs	r2, r6, #29
   1ed0a:	4311      	orrs	r1, r2
   1ed0c:	401c      	ands	r4, r3
   1ed0e:	4d6a      	ldr	r5, [pc, #424]	; (1eeb8 <__aeabi_dsub+0x688>)
   1ed10:	e6ab      	b.n	1ea6a <__aeabi_dsub+0x23a>
   1ed12:	001d      	movs	r5, r3
   1ed14:	2200      	movs	r2, #0
   1ed16:	2700      	movs	r7, #0
   1ed18:	e6b4      	b.n	1ea84 <__aeabi_dsub+0x254>
   1ed1a:	2d00      	cmp	r5, #0
   1ed1c:	d159      	bne.n	1edd2 <__aeabi_dsub+0x5a2>
   1ed1e:	000b      	movs	r3, r1
   1ed20:	4303      	orrs	r3, r0
   1ed22:	d100      	bne.n	1ed26 <__aeabi_dsub+0x4f6>
   1ed24:	e6d6      	b.n	1ead4 <__aeabi_dsub+0x2a4>
   1ed26:	1c73      	adds	r3, r6, #1
   1ed28:	d100      	bne.n	1ed2c <__aeabi_dsub+0x4fc>
   1ed2a:	e0b2      	b.n	1ee92 <__aeabi_dsub+0x662>
   1ed2c:	4b62      	ldr	r3, [pc, #392]	; (1eeb8 <__aeabi_dsub+0x688>)
   1ed2e:	429f      	cmp	r7, r3
   1ed30:	d01e      	beq.n	1ed70 <__aeabi_dsub+0x540>
   1ed32:	43f3      	mvns	r3, r6
   1ed34:	2b38      	cmp	r3, #56	; 0x38
   1ed36:	dc6f      	bgt.n	1ee18 <__aeabi_dsub+0x5e8>
   1ed38:	2b1f      	cmp	r3, #31
   1ed3a:	dd00      	ble.n	1ed3e <__aeabi_dsub+0x50e>
   1ed3c:	e097      	b.n	1ee6e <__aeabi_dsub+0x63e>
   1ed3e:	2520      	movs	r5, #32
   1ed40:	000e      	movs	r6, r1
   1ed42:	1aed      	subs	r5, r5, r3
   1ed44:	40ae      	lsls	r6, r5
   1ed46:	46b0      	mov	r8, r6
   1ed48:	0006      	movs	r6, r0
   1ed4a:	46aa      	mov	sl, r5
   1ed4c:	40de      	lsrs	r6, r3
   1ed4e:	4645      	mov	r5, r8
   1ed50:	4335      	orrs	r5, r6
   1ed52:	002e      	movs	r6, r5
   1ed54:	4655      	mov	r5, sl
   1ed56:	40a8      	lsls	r0, r5
   1ed58:	40d9      	lsrs	r1, r3
   1ed5a:	1e45      	subs	r5, r0, #1
   1ed5c:	41a8      	sbcs	r0, r5
   1ed5e:	448c      	add	ip, r1
   1ed60:	4306      	orrs	r6, r0
   1ed62:	18b6      	adds	r6, r6, r2
   1ed64:	4296      	cmp	r6, r2
   1ed66:	4192      	sbcs	r2, r2
   1ed68:	4251      	negs	r1, r2
   1ed6a:	4461      	add	r1, ip
   1ed6c:	003d      	movs	r5, r7
   1ed6e:	e625      	b.n	1e9bc <__aeabi_dsub+0x18c>
   1ed70:	003d      	movs	r5, r7
   1ed72:	4661      	mov	r1, ip
   1ed74:	4691      	mov	r9, r2
   1ed76:	e678      	b.n	1ea6a <__aeabi_dsub+0x23a>
   1ed78:	000b      	movs	r3, r1
   1ed7a:	4303      	orrs	r3, r0
   1ed7c:	2d00      	cmp	r5, #0
   1ed7e:	d000      	beq.n	1ed82 <__aeabi_dsub+0x552>
   1ed80:	e655      	b.n	1ea2e <__aeabi_dsub+0x1fe>
   1ed82:	2b00      	cmp	r3, #0
   1ed84:	d0f5      	beq.n	1ed72 <__aeabi_dsub+0x542>
   1ed86:	4663      	mov	r3, ip
   1ed88:	4313      	orrs	r3, r2
   1ed8a:	d100      	bne.n	1ed8e <__aeabi_dsub+0x55e>
   1ed8c:	e66d      	b.n	1ea6a <__aeabi_dsub+0x23a>
   1ed8e:	1886      	adds	r6, r0, r2
   1ed90:	4286      	cmp	r6, r0
   1ed92:	4180      	sbcs	r0, r0
   1ed94:	4461      	add	r1, ip
   1ed96:	4240      	negs	r0, r0
   1ed98:	1809      	adds	r1, r1, r0
   1ed9a:	2200      	movs	r2, #0
   1ed9c:	020b      	lsls	r3, r1, #8
   1ed9e:	d400      	bmi.n	1eda2 <__aeabi_dsub+0x572>
   1eda0:	e6d0      	b.n	1eb44 <__aeabi_dsub+0x314>
   1eda2:	4b46      	ldr	r3, [pc, #280]	; (1eebc <__aeabi_dsub+0x68c>)
   1eda4:	3501      	adds	r5, #1
   1eda6:	4019      	ands	r1, r3
   1eda8:	e5b2      	b.n	1e910 <__aeabi_dsub+0xe0>
   1edaa:	46b1      	mov	r9, r6
   1edac:	e65d      	b.n	1ea6a <__aeabi_dsub+0x23a>
   1edae:	0033      	movs	r3, r6
   1edb0:	4667      	mov	r7, ip
   1edb2:	3b20      	subs	r3, #32
   1edb4:	40df      	lsrs	r7, r3
   1edb6:	003b      	movs	r3, r7
   1edb8:	2e20      	cmp	r6, #32
   1edba:	d005      	beq.n	1edc8 <__aeabi_dsub+0x598>
   1edbc:	2740      	movs	r7, #64	; 0x40
   1edbe:	1bbf      	subs	r7, r7, r6
   1edc0:	4666      	mov	r6, ip
   1edc2:	40be      	lsls	r6, r7
   1edc4:	4332      	orrs	r2, r6
   1edc6:	4690      	mov	r8, r2
   1edc8:	4646      	mov	r6, r8
   1edca:	1e72      	subs	r2, r6, #1
   1edcc:	4196      	sbcs	r6, r2
   1edce:	4333      	orrs	r3, r6
   1edd0:	e5ef      	b.n	1e9b2 <__aeabi_dsub+0x182>
   1edd2:	4b39      	ldr	r3, [pc, #228]	; (1eeb8 <__aeabi_dsub+0x688>)
   1edd4:	429f      	cmp	r7, r3
   1edd6:	d0cb      	beq.n	1ed70 <__aeabi_dsub+0x540>
   1edd8:	2580      	movs	r5, #128	; 0x80
   1edda:	042d      	lsls	r5, r5, #16
   1eddc:	4273      	negs	r3, r6
   1edde:	4329      	orrs	r1, r5
   1ede0:	e7a8      	b.n	1ed34 <__aeabi_dsub+0x504>
   1ede2:	4308      	orrs	r0, r1
   1ede4:	1e41      	subs	r1, r0, #1
   1ede6:	4188      	sbcs	r0, r1
   1ede8:	e6a2      	b.n	1eb30 <__aeabi_dsub+0x300>
   1edea:	2f00      	cmp	r7, #0
   1edec:	d100      	bne.n	1edf0 <__aeabi_dsub+0x5c0>
   1edee:	e63c      	b.n	1ea6a <__aeabi_dsub+0x23a>
   1edf0:	4663      	mov	r3, ip
   1edf2:	1a86      	subs	r6, r0, r2
   1edf4:	1acf      	subs	r7, r1, r3
   1edf6:	42b0      	cmp	r0, r6
   1edf8:	419b      	sbcs	r3, r3
   1edfa:	425b      	negs	r3, r3
   1edfc:	1afb      	subs	r3, r7, r3
   1edfe:	4698      	mov	r8, r3
   1ee00:	021b      	lsls	r3, r3, #8
   1ee02:	d54e      	bpl.n	1eea2 <__aeabi_dsub+0x672>
   1ee04:	1a16      	subs	r6, r2, r0
   1ee06:	4663      	mov	r3, ip
   1ee08:	42b2      	cmp	r2, r6
   1ee0a:	4192      	sbcs	r2, r2
   1ee0c:	1a59      	subs	r1, r3, r1
   1ee0e:	4252      	negs	r2, r2
   1ee10:	1a89      	subs	r1, r1, r2
   1ee12:	465c      	mov	r4, fp
   1ee14:	2200      	movs	r2, #0
   1ee16:	e57b      	b.n	1e910 <__aeabi_dsub+0xe0>
   1ee18:	4301      	orrs	r1, r0
   1ee1a:	000e      	movs	r6, r1
   1ee1c:	1e71      	subs	r1, r6, #1
   1ee1e:	418e      	sbcs	r6, r1
   1ee20:	e79f      	b.n	1ed62 <__aeabi_dsub+0x532>
   1ee22:	001d      	movs	r5, r3
   1ee24:	000e      	movs	r6, r1
   1ee26:	3d20      	subs	r5, #32
   1ee28:	40ee      	lsrs	r6, r5
   1ee2a:	46b0      	mov	r8, r6
   1ee2c:	2b20      	cmp	r3, #32
   1ee2e:	d004      	beq.n	1ee3a <__aeabi_dsub+0x60a>
   1ee30:	2540      	movs	r5, #64	; 0x40
   1ee32:	1aeb      	subs	r3, r5, r3
   1ee34:	4099      	lsls	r1, r3
   1ee36:	4308      	orrs	r0, r1
   1ee38:	4681      	mov	r9, r0
   1ee3a:	4648      	mov	r0, r9
   1ee3c:	4643      	mov	r3, r8
   1ee3e:	1e41      	subs	r1, r0, #1
   1ee40:	4188      	sbcs	r0, r1
   1ee42:	4318      	orrs	r0, r3
   1ee44:	e674      	b.n	1eb30 <__aeabi_dsub+0x300>
   1ee46:	2200      	movs	r2, #0
   1ee48:	2400      	movs	r4, #0
   1ee4a:	e617      	b.n	1ea7c <__aeabi_dsub+0x24c>
   1ee4c:	1a16      	subs	r6, r2, r0
   1ee4e:	4663      	mov	r3, ip
   1ee50:	42b2      	cmp	r2, r6
   1ee52:	4192      	sbcs	r2, r2
   1ee54:	1a59      	subs	r1, r3, r1
   1ee56:	4252      	negs	r2, r2
   1ee58:	1a89      	subs	r1, r1, r2
   1ee5a:	003d      	movs	r5, r7
   1ee5c:	e525      	b.n	1e8aa <__aeabi_dsub+0x7a>
   1ee5e:	4661      	mov	r1, ip
   1ee60:	4691      	mov	r9, r2
   1ee62:	4d15      	ldr	r5, [pc, #84]	; (1eeb8 <__aeabi_dsub+0x688>)
   1ee64:	e601      	b.n	1ea6a <__aeabi_dsub+0x23a>
   1ee66:	2280      	movs	r2, #128	; 0x80
   1ee68:	2400      	movs	r4, #0
   1ee6a:	0312      	lsls	r2, r2, #12
   1ee6c:	e679      	b.n	1eb62 <__aeabi_dsub+0x332>
   1ee6e:	001d      	movs	r5, r3
   1ee70:	000e      	movs	r6, r1
   1ee72:	3d20      	subs	r5, #32
   1ee74:	40ee      	lsrs	r6, r5
   1ee76:	46b0      	mov	r8, r6
   1ee78:	2b20      	cmp	r3, #32
   1ee7a:	d004      	beq.n	1ee86 <__aeabi_dsub+0x656>
   1ee7c:	2540      	movs	r5, #64	; 0x40
   1ee7e:	1aeb      	subs	r3, r5, r3
   1ee80:	4099      	lsls	r1, r3
   1ee82:	4308      	orrs	r0, r1
   1ee84:	4681      	mov	r9, r0
   1ee86:	464e      	mov	r6, r9
   1ee88:	4643      	mov	r3, r8
   1ee8a:	1e71      	subs	r1, r6, #1
   1ee8c:	418e      	sbcs	r6, r1
   1ee8e:	431e      	orrs	r6, r3
   1ee90:	e767      	b.n	1ed62 <__aeabi_dsub+0x532>
   1ee92:	1886      	adds	r6, r0, r2
   1ee94:	4296      	cmp	r6, r2
   1ee96:	419b      	sbcs	r3, r3
   1ee98:	4461      	add	r1, ip
   1ee9a:	425b      	negs	r3, r3
   1ee9c:	18c9      	adds	r1, r1, r3
   1ee9e:	003d      	movs	r5, r7
   1eea0:	e58c      	b.n	1e9bc <__aeabi_dsub+0x18c>
   1eea2:	4647      	mov	r7, r8
   1eea4:	4337      	orrs	r7, r6
   1eea6:	d0ce      	beq.n	1ee46 <__aeabi_dsub+0x616>
   1eea8:	2207      	movs	r2, #7
   1eeaa:	4641      	mov	r1, r8
   1eeac:	4032      	ands	r2, r6
   1eeae:	e649      	b.n	1eb44 <__aeabi_dsub+0x314>
   1eeb0:	2700      	movs	r7, #0
   1eeb2:	003a      	movs	r2, r7
   1eeb4:	e5e6      	b.n	1ea84 <__aeabi_dsub+0x254>
   1eeb6:	46c0      	nop			; (mov r8, r8)
   1eeb8:	07ff      	lsls	r7, r7, #31
   1eeba:	0000      	movs	r0, r0
   1eebc:	ffff ff7f 	vcvt.u32.f32	<illegal reg q15.5>, <illegal reg q15.5>, #1

0001eec0 <__aeabi_dcmpun>:
   1eec0:	b570      	push	{r4, r5, r6, lr}
   1eec2:	4e0c      	ldr	r6, [pc, #48]	; (1eef4 <__aeabi_dcmpun+0x34>)
   1eec4:	030d      	lsls	r5, r1, #12
   1eec6:	031c      	lsls	r4, r3, #12
   1eec8:	0049      	lsls	r1, r1, #1
   1eeca:	005b      	lsls	r3, r3, #1
   1eecc:	0b2d      	lsrs	r5, r5, #12
   1eece:	0d49      	lsrs	r1, r1, #21
   1eed0:	0b24      	lsrs	r4, r4, #12
   1eed2:	0d5b      	lsrs	r3, r3, #21
   1eed4:	42b1      	cmp	r1, r6
   1eed6:	d008      	beq.n	1eeea <__aeabi_dcmpun+0x2a>
   1eed8:	4906      	ldr	r1, [pc, #24]	; (1eef4 <__aeabi_dcmpun+0x34>)
   1eeda:	2000      	movs	r0, #0
   1eedc:	428b      	cmp	r3, r1
   1eede:	d103      	bne.n	1eee8 <__aeabi_dcmpun+0x28>
   1eee0:	4314      	orrs	r4, r2
   1eee2:	0020      	movs	r0, r4
   1eee4:	1e44      	subs	r4, r0, #1
   1eee6:	41a0      	sbcs	r0, r4
   1eee8:	bd70      	pop	{r4, r5, r6, pc}
   1eeea:	4305      	orrs	r5, r0
   1eeec:	2001      	movs	r0, #1
   1eeee:	2d00      	cmp	r5, #0
   1eef0:	d1fa      	bne.n	1eee8 <__aeabi_dcmpun+0x28>
   1eef2:	e7f1      	b.n	1eed8 <__aeabi_dcmpun+0x18>
   1eef4:	07ff      	lsls	r7, r7, #31
	...

0001eef8 <__aeabi_i2d>:
   1eef8:	b570      	push	{r4, r5, r6, lr}
   1eefa:	2800      	cmp	r0, #0
   1eefc:	d02d      	beq.n	1ef5a <__aeabi_i2d+0x62>
   1eefe:	17c3      	asrs	r3, r0, #31
   1ef00:	18c5      	adds	r5, r0, r3
   1ef02:	405d      	eors	r5, r3
   1ef04:	0fc4      	lsrs	r4, r0, #31
   1ef06:	0028      	movs	r0, r5
   1ef08:	f7fd fb22 	bl	1c550 <__clzsi2>
   1ef0c:	4b15      	ldr	r3, [pc, #84]	; (1ef64 <__aeabi_i2d+0x6c>)
   1ef0e:	1a1b      	subs	r3, r3, r0
   1ef10:	055b      	lsls	r3, r3, #21
   1ef12:	0d5b      	lsrs	r3, r3, #21
   1ef14:	280a      	cmp	r0, #10
   1ef16:	dd15      	ble.n	1ef44 <__aeabi_i2d+0x4c>
   1ef18:	380b      	subs	r0, #11
   1ef1a:	4085      	lsls	r5, r0
   1ef1c:	2200      	movs	r2, #0
   1ef1e:	032d      	lsls	r5, r5, #12
   1ef20:	0b2d      	lsrs	r5, r5, #12
   1ef22:	2100      	movs	r1, #0
   1ef24:	0010      	movs	r0, r2
   1ef26:	032d      	lsls	r5, r5, #12
   1ef28:	0d0a      	lsrs	r2, r1, #20
   1ef2a:	0b2d      	lsrs	r5, r5, #12
   1ef2c:	0512      	lsls	r2, r2, #20
   1ef2e:	432a      	orrs	r2, r5
   1ef30:	4d0d      	ldr	r5, [pc, #52]	; (1ef68 <__aeabi_i2d+0x70>)
   1ef32:	051b      	lsls	r3, r3, #20
   1ef34:	402a      	ands	r2, r5
   1ef36:	4313      	orrs	r3, r2
   1ef38:	005b      	lsls	r3, r3, #1
   1ef3a:	07e4      	lsls	r4, r4, #31
   1ef3c:	085b      	lsrs	r3, r3, #1
   1ef3e:	4323      	orrs	r3, r4
   1ef40:	0019      	movs	r1, r3
   1ef42:	bd70      	pop	{r4, r5, r6, pc}
   1ef44:	0002      	movs	r2, r0
   1ef46:	0029      	movs	r1, r5
   1ef48:	3215      	adds	r2, #21
   1ef4a:	4091      	lsls	r1, r2
   1ef4c:	000a      	movs	r2, r1
   1ef4e:	210b      	movs	r1, #11
   1ef50:	1a08      	subs	r0, r1, r0
   1ef52:	40c5      	lsrs	r5, r0
   1ef54:	032d      	lsls	r5, r5, #12
   1ef56:	0b2d      	lsrs	r5, r5, #12
   1ef58:	e7e3      	b.n	1ef22 <__aeabi_i2d+0x2a>
   1ef5a:	2400      	movs	r4, #0
   1ef5c:	2300      	movs	r3, #0
   1ef5e:	2500      	movs	r5, #0
   1ef60:	2200      	movs	r2, #0
   1ef62:	e7de      	b.n	1ef22 <__aeabi_i2d+0x2a>
   1ef64:	041e      	lsls	r6, r3, #16
   1ef66:	0000      	movs	r0, r0
   1ef68:	ffff 800f 	vaddl.u<illegal width 64>	q12, d15, d15

0001ef6c <__udivsi3>:
   1ef6c:	2200      	movs	r2, #0
   1ef6e:	0843      	lsrs	r3, r0, #1
   1ef70:	428b      	cmp	r3, r1
   1ef72:	d374      	bcc.n	1f05e <__udivsi3+0xf2>
   1ef74:	0903      	lsrs	r3, r0, #4
   1ef76:	428b      	cmp	r3, r1
   1ef78:	d35f      	bcc.n	1f03a <__udivsi3+0xce>
   1ef7a:	0a03      	lsrs	r3, r0, #8
   1ef7c:	428b      	cmp	r3, r1
   1ef7e:	d344      	bcc.n	1f00a <__udivsi3+0x9e>
   1ef80:	0b03      	lsrs	r3, r0, #12
   1ef82:	428b      	cmp	r3, r1
   1ef84:	d328      	bcc.n	1efd8 <__udivsi3+0x6c>
   1ef86:	0c03      	lsrs	r3, r0, #16
   1ef88:	428b      	cmp	r3, r1
   1ef8a:	d30d      	bcc.n	1efa8 <__udivsi3+0x3c>
   1ef8c:	22ff      	movs	r2, #255	; 0xff
   1ef8e:	0209      	lsls	r1, r1, #8
   1ef90:	ba12      	rev	r2, r2
   1ef92:	0c03      	lsrs	r3, r0, #16
   1ef94:	428b      	cmp	r3, r1
   1ef96:	d302      	bcc.n	1ef9e <__udivsi3+0x32>
   1ef98:	1212      	asrs	r2, r2, #8
   1ef9a:	0209      	lsls	r1, r1, #8
   1ef9c:	d065      	beq.n	1f06a <__udivsi3+0xfe>
   1ef9e:	0b03      	lsrs	r3, r0, #12
   1efa0:	428b      	cmp	r3, r1
   1efa2:	d319      	bcc.n	1efd8 <__udivsi3+0x6c>
   1efa4:	e000      	b.n	1efa8 <__udivsi3+0x3c>
   1efa6:	0a09      	lsrs	r1, r1, #8
   1efa8:	0bc3      	lsrs	r3, r0, #15
   1efaa:	428b      	cmp	r3, r1
   1efac:	d301      	bcc.n	1efb2 <__udivsi3+0x46>
   1efae:	03cb      	lsls	r3, r1, #15
   1efb0:	1ac0      	subs	r0, r0, r3
   1efb2:	4152      	adcs	r2, r2
   1efb4:	0b83      	lsrs	r3, r0, #14
   1efb6:	428b      	cmp	r3, r1
   1efb8:	d301      	bcc.n	1efbe <__udivsi3+0x52>
   1efba:	038b      	lsls	r3, r1, #14
   1efbc:	1ac0      	subs	r0, r0, r3
   1efbe:	4152      	adcs	r2, r2
   1efc0:	0b43      	lsrs	r3, r0, #13
   1efc2:	428b      	cmp	r3, r1
   1efc4:	d301      	bcc.n	1efca <__udivsi3+0x5e>
   1efc6:	034b      	lsls	r3, r1, #13
   1efc8:	1ac0      	subs	r0, r0, r3
   1efca:	4152      	adcs	r2, r2
   1efcc:	0b03      	lsrs	r3, r0, #12
   1efce:	428b      	cmp	r3, r1
   1efd0:	d301      	bcc.n	1efd6 <__udivsi3+0x6a>
   1efd2:	030b      	lsls	r3, r1, #12
   1efd4:	1ac0      	subs	r0, r0, r3
   1efd6:	4152      	adcs	r2, r2
   1efd8:	0ac3      	lsrs	r3, r0, #11
   1efda:	428b      	cmp	r3, r1
   1efdc:	d301      	bcc.n	1efe2 <__udivsi3+0x76>
   1efde:	02cb      	lsls	r3, r1, #11
   1efe0:	1ac0      	subs	r0, r0, r3
   1efe2:	4152      	adcs	r2, r2
   1efe4:	0a83      	lsrs	r3, r0, #10
   1efe6:	428b      	cmp	r3, r1
   1efe8:	d301      	bcc.n	1efee <__udivsi3+0x82>
   1efea:	028b      	lsls	r3, r1, #10
   1efec:	1ac0      	subs	r0, r0, r3
   1efee:	4152      	adcs	r2, r2
   1eff0:	0a43      	lsrs	r3, r0, #9
   1eff2:	428b      	cmp	r3, r1
   1eff4:	d301      	bcc.n	1effa <__udivsi3+0x8e>
   1eff6:	024b      	lsls	r3, r1, #9
   1eff8:	1ac0      	subs	r0, r0, r3
   1effa:	4152      	adcs	r2, r2
   1effc:	0a03      	lsrs	r3, r0, #8
   1effe:	428b      	cmp	r3, r1
   1f000:	d301      	bcc.n	1f006 <__udivsi3+0x9a>
   1f002:	020b      	lsls	r3, r1, #8
   1f004:	1ac0      	subs	r0, r0, r3
   1f006:	4152      	adcs	r2, r2
   1f008:	d2cd      	bcs.n	1efa6 <__udivsi3+0x3a>
   1f00a:	09c3      	lsrs	r3, r0, #7
   1f00c:	428b      	cmp	r3, r1
   1f00e:	d301      	bcc.n	1f014 <__udivsi3+0xa8>
   1f010:	01cb      	lsls	r3, r1, #7
   1f012:	1ac0      	subs	r0, r0, r3
   1f014:	4152      	adcs	r2, r2
   1f016:	0983      	lsrs	r3, r0, #6
   1f018:	428b      	cmp	r3, r1
   1f01a:	d301      	bcc.n	1f020 <__udivsi3+0xb4>
   1f01c:	018b      	lsls	r3, r1, #6
   1f01e:	1ac0      	subs	r0, r0, r3
   1f020:	4152      	adcs	r2, r2
   1f022:	0943      	lsrs	r3, r0, #5
   1f024:	428b      	cmp	r3, r1
   1f026:	d301      	bcc.n	1f02c <__udivsi3+0xc0>
   1f028:	014b      	lsls	r3, r1, #5
   1f02a:	1ac0      	subs	r0, r0, r3
   1f02c:	4152      	adcs	r2, r2
   1f02e:	0903      	lsrs	r3, r0, #4
   1f030:	428b      	cmp	r3, r1
   1f032:	d301      	bcc.n	1f038 <__udivsi3+0xcc>
   1f034:	010b      	lsls	r3, r1, #4
   1f036:	1ac0      	subs	r0, r0, r3
   1f038:	4152      	adcs	r2, r2
   1f03a:	08c3      	lsrs	r3, r0, #3
   1f03c:	428b      	cmp	r3, r1
   1f03e:	d301      	bcc.n	1f044 <__udivsi3+0xd8>
   1f040:	00cb      	lsls	r3, r1, #3
   1f042:	1ac0      	subs	r0, r0, r3
   1f044:	4152      	adcs	r2, r2
   1f046:	0883      	lsrs	r3, r0, #2
   1f048:	428b      	cmp	r3, r1
   1f04a:	d301      	bcc.n	1f050 <__udivsi3+0xe4>
   1f04c:	008b      	lsls	r3, r1, #2
   1f04e:	1ac0      	subs	r0, r0, r3
   1f050:	4152      	adcs	r2, r2
   1f052:	0843      	lsrs	r3, r0, #1
   1f054:	428b      	cmp	r3, r1
   1f056:	d301      	bcc.n	1f05c <__udivsi3+0xf0>
   1f058:	004b      	lsls	r3, r1, #1
   1f05a:	1ac0      	subs	r0, r0, r3
   1f05c:	4152      	adcs	r2, r2
   1f05e:	1a41      	subs	r1, r0, r1
   1f060:	d200      	bcs.n	1f064 <__udivsi3+0xf8>
   1f062:	4601      	mov	r1, r0
   1f064:	4152      	adcs	r2, r2
   1f066:	4610      	mov	r0, r2
   1f068:	4770      	bx	lr
   1f06a:	e7ff      	b.n	1f06c <__udivsi3+0x100>
   1f06c:	b501      	push	{r0, lr}
   1f06e:	2000      	movs	r0, #0
   1f070:	f000 f806 	bl	1f080 <__aeabi_idiv0>
   1f074:	bd02      	pop	{r1, pc}
   1f076:	46c0      	nop			; (mov r8, r8)

0001f078 <__aeabi_uidivmod>:
   1f078:	2900      	cmp	r1, #0
   1f07a:	d0f7      	beq.n	1f06c <__udivsi3+0x100>
   1f07c:	e776      	b.n	1ef6c <__udivsi3>
   1f07e:	4770      	bx	lr

0001f080 <__aeabi_idiv0>:
   1f080:	4770      	bx	lr
   1f082:	46c0      	nop			; (mov r8, r8)

0001f084 <__errno>:
   1f084:	4b01      	ldr	r3, [pc, #4]	; (1f08c <__errno+0x8>)
   1f086:	6818      	ldr	r0, [r3, #0]
   1f088:	4770      	bx	lr
   1f08a:	46c0      	nop			; (mov r8, r8)
   1f08c:	2030      	movs	r0, #48	; 0x30
   1f08e:	2000      	movs	r0, #0

0001f090 <_init>:
   1f090:	b5f8      	push	{r3, r4, r5, r6, r7, lr}
   1f092:	46c0      	nop			; (mov r8, r8)
   1f094:	bcf8      	pop	{r3, r4, r5, r6, r7}
   1f096:	bc08      	pop	{r3}
   1f098:	469e      	mov	lr, r3
   1f09a:	4770      	bx	lr

0001f09c <_fini>:
   1f09c:	b5f8      	push	{r3, r4, r5, r6, r7, lr}
   1f09e:	46c0      	nop			; (mov r8, r8)
   1f0a0:	bcf8      	pop	{r3, r4, r5, r6, r7}
   1f0a2:	bc08      	pop	{r3}
   1f0a4:	469e      	mov	lr, r3
   1f0a6:	4770      	bx	lr

0001f0a8 <color_timer>:
   1f0a8:	2478      	movs	r4, #120	; 0x78
   1f0aa:	2000      	movs	r0, #0

0001f0ac <startup_timer>:
   1f0ac:	24c0      	movs	r4, #192	; 0xc0
   1f0ae:	2000      	movs	r0, #0
   1f0b0:	504c      	str	r4, [r1, r1]
   1f0b2:	5343      	strh	r3, [r0, r5]
   1f0b4:	5f42      	ldrsh	r2, [r0, r5]
   1f0b6:	4554      	cmp	r4, sl
   1f0b8:	5453      	strb	r3, [r2, r1]
	...

0001f0bb <ENABLE_ADC>:
   1f0bb:	0380      	lsls	r0, r0, #14
   1f0bd:	0000      	movs	r0, r0
	...

0001f0c0 <ENABLE_SENSOR_ADC>:
   1f0c0:	f0bb 0001 			; <UNDEFINED> instruction: 0xf0bb0001
   1f0c4:	5202      	strh	r2, [r0, r0]
	...

0001f0c8 <MEAS_BLUE_CMD>:
   1f0c8:	009a      	lsls	r2, r3, #2
	...

0001f0cc <MEAS_BLUE_TXFR>:
   1f0cc:	f0c8 0001 			; <UNDEFINED> instruction: 0xf0c80001
   1f0d0:	5201      	strh	r1, [r0, r0]
   1f0d2:	0000      	movs	r0, r0
   1f0d4:	24e4      	movs	r4, #228	; 0xe4
   1f0d6:	2000      	movs	r0, #0
   1f0d8:	5302      	strh	r2, [r0, r4]
	...

0001f0dc <MEAS_CLEAR_CMD>:
   1f0dc:	0094      	lsls	r4, r2, #2
	...

0001f0e0 <MEAS_CLEAR_TXFR>:
   1f0e0:	f0dc 0001 			; <UNDEFINED> instruction: 0xf0dc0001
   1f0e4:	5201      	strh	r1, [r0, r0]
   1f0e6:	0000      	movs	r0, r0
   1f0e8:	24e6      	movs	r4, #230	; 0xe6
   1f0ea:	2000      	movs	r0, #0
   1f0ec:	5302      	strh	r2, [r0, r4]
	...

0001f0f0 <MEAS_GREEN_CMD>:
   1f0f0:	0098      	lsls	r0, r3, #2
	...

0001f0f4 <MEAS_GREEN_TXFR>:
   1f0f4:	f0f0 0001 			; <UNDEFINED> instruction: 0xf0f00001
   1f0f8:	5201      	strh	r1, [r0, r0]
   1f0fa:	0000      	movs	r0, r0
   1f0fc:	24e8      	movs	r4, #232	; 0xe8
   1f0fe:	2000      	movs	r0, #0
   1f100:	5302      	strh	r2, [r0, r4]
	...

0001f104 <MEAS_RED_CMD>:
   1f104:	0096      	lsls	r6, r2, #2
	...

0001f108 <MEAS_RED_TXFR>:
   1f108:	f104 0001 	add.w	r0, r4, #1
   1f10c:	5201      	strh	r1, [r0, r0]
   1f10e:	0000      	movs	r0, r0
   1f110:	2500      	movs	r5, #0
   1f112:	2000      	movs	r0, #0
   1f114:	5302      	strh	r2, [r0, r4]
	...

0001f118 <POWER_ON>:
   1f118:	0180      	lsls	r0, r0, #6
	...

0001f11c <POWER_ON_SENSOR>:
   1f11c:	f118 0001 	adds.w	r0, r8, #1
   1f120:	5202      	strh	r2, [r0, r0]
	...

0001f124 <READ_ID_CMD>:
   1f124:	0092      	lsls	r2, r2, #2
	...

0001f128 <READ_SENSOR>:
   1f128:	f124 0001 			; <UNDEFINED> instruction: 0xf1240001
   1f12c:	5201      	strh	r1, [r0, r0]
   1f12e:	0001      	movs	r1, r0
   1f130:	2538      	movs	r5, #56	; 0x38
   1f132:	2000      	movs	r0, #0
   1f134:	5301      	strh	r1, [r0, r4]
	...

0001f138 <SET_GAIN>:
   1f138:	f140 0001 	adc.w	r0, r0, #1
   1f13c:	5202      	strh	r2, [r0, r0]
	...

0001f140 <SET_GAIN_CMDS>:
   1f140:	008f      	lsls	r7, r1, #2
	...

0001f144 <SET_INT_TIME>:
   1f144:	f14c 0001 	adc.w	r0, ip, #1
   1f148:	5202      	strh	r2, [r0, r0]
	...

0001f14c <SET_INT_TIME_CMDS>:
   1f14c:	0081      	lsls	r1, r0, #2
	...

0001f150 <enable.8655>:
   1f150:	876d      	strh	r5, [r5, #58]	; 0x3a
   1f152:	0001      	movs	r1, r0
   1f154:	0000      	movs	r0, r0
   1f156:	0000      	movs	r0, r0
   1f158:	f0c0 0001 			; <UNDEFINED> instruction: 0xf0c00001
   1f15c:	0001      	movs	r1, r0
	...

0001f160 <power_on.8648>:
   1f160:	876d      	strh	r5, [r5, #58]	; 0x3a
   1f162:	0001      	movs	r1, r0
   1f164:	0000      	movs	r0, r0
   1f166:	0000      	movs	r0, r0
   1f168:	f11c 0001 	adds.w	r0, ip, #1
   1f16c:	0001      	movs	r1, r0
	...

0001f170 <readID.8626>:
   1f170:	876d      	strh	r5, [r5, #58]	; 0x3a
   1f172:	0001      	movs	r1, r0
   1f174:	0000      	movs	r0, r0
   1f176:	0000      	movs	r0, r0
   1f178:	f128 0001 			; <UNDEFINED> instruction: 0xf1280001
   1f17c:	0002      	movs	r2, r0
	...

0001f180 <setGain.8641>:
   1f180:	876d      	strh	r5, [r5, #58]	; 0x3a
   1f182:	0001      	movs	r1, r0
   1f184:	0000      	movs	r0, r0
   1f186:	0000      	movs	r0, r0
   1f188:	f138 0001 			; <UNDEFINED> instruction: 0xf1380001
   1f18c:	0001      	movs	r1, r0
	...

0001f190 <setIntTime.8634>:
   1f190:	876d      	strh	r5, [r5, #58]	; 0x3a
   1f192:	0001      	movs	r1, r0
   1f194:	0000      	movs	r0, r0
   1f196:	0000      	movs	r0, r0
   1f198:	f144 0001 	adc.w	r0, r4, #1
   1f19c:	0001      	movs	r1, r0
	...

0001f1a0 <tcs34725_timer>:
   1f1a0:	2518      	movs	r5, #24
   1f1a2:	2000      	movs	r0, #0

0001f1a4 <transaction.8674>:
   1f1a4:	876d      	strh	r5, [r5, #58]	; 0x3a
   1f1a6:	0001      	movs	r1, r0
   1f1a8:	0000      	movs	r0, r0
   1f1aa:	0000      	movs	r0, r0
   1f1ac:	f0e0 0001 			; <UNDEFINED> instruction: 0xf0e00001
   1f1b0:	0002      	movs	r2, r0
	...

0001f1b4 <transaction.8683>:
   1f1b4:	876d      	strh	r5, [r5, #58]	; 0x3a
   1f1b6:	0001      	movs	r1, r0
   1f1b8:	0000      	movs	r0, r0
   1f1ba:	0000      	movs	r0, r0
   1f1bc:	f108 0001 	add.w	r0, r8, #1
   1f1c0:	0002      	movs	r2, r0
	...

0001f1c4 <transaction.8692>:
   1f1c4:	876d      	strh	r5, [r5, #58]	; 0x3a
   1f1c6:	0001      	movs	r1, r0
   1f1c8:	0000      	movs	r0, r0
   1f1ca:	0000      	movs	r0, r0
   1f1cc:	f0f4 0001 			; <UNDEFINED> instruction: 0xf0f40001
   1f1d0:	0002      	movs	r2, r0
	...

0001f1d4 <transaction.8701>:
   1f1d4:	876d      	strh	r5, [r5, #58]	; 0x3a
   1f1d6:	0001      	movs	r1, r0
   1f1d8:	0000      	movs	r0, r0
   1f1da:	0000      	movs	r0, r0
   1f1dc:	f0cc 0001 			; <UNDEFINED> instruction: 0xf0cc0001
   1f1e0:	0002      	movs	r2, r0
	...

0001f1e4 <m_conn_params_timer_id>:
   1f1e4:	2584      	movs	r5, #132	; 0x84
   1f1e6:	2000      	movs	r0, #0

0001f1e8 <m_default_config>:
   1f1e8:	0000      	movs	r0, r0
   1f1ea:	0000      	movs	r0, r0
   1f1ec:	0001      	movs	r1, r0
   1f1ee:	0000      	movs	r0, r0
   1f1f0:	0000      	movs	r0, r0
   1f1f2:	0198      	lsls	r0, r3, #6
   1f1f4:	0003      	movs	r3, r0
   1f1f6:	0000      	movs	r0, r0
   1f1f8:	0000      	movs	r0, r0
   1f1fa:	0000      	movs	r0, r0
   1f1fc:	0001      	movs	r1, r0
   1f1fe:	0000      	movs	r0, r0
   1f200:	0000      	movs	r0, r0
   1f202:	0198      	lsls	r0, r3, #6
   1f204:	0003      	movs	r3, r0
	...

0001f208 <m_error>:
   1f208:	0003      	movs	r3, r0
   1f20a:	0000      	movs	r0, r0
   1f20c:	9f45      	ldr	r7, [sp, #276]	; 0x114
   1f20e:	0001      	movs	r1, r0
   1f210:	0002      	movs	r2, r0
   1f212:	0000      	movs	r0, r0
   1f214:	9f45      	ldr	r7, [sp, #276]	; 0x114
   1f216:	0001      	movs	r1, r0
   1f218:	0005      	movs	r5, r0
   1f21a:	0000      	movs	r0, r0
   1f21c:	9f45      	ldr	r7, [sp, #276]	; 0x114
   1f21e:	0001      	movs	r1, r0

0001f220 <m_idle>:
   1f220:	0100      	lsls	r0, r0, #4
   1f222:	0000      	movs	r0, r0
   1f224:	9e81      	ldr	r6, [sp, #516]	; 0x204
   1f226:	0001      	movs	r1, r0
   1f228:	0201      	lsls	r1, r0, #8
   1f22a:	0000      	movs	r0, r0
   1f22c:	9dcd      	ldr	r5, [sp, #820]	; 0x334
   1f22e:	0001      	movs	r1, r0

0001f230 <m_rx_suspended>:
   1f230:	0201      	lsls	r1, r0, #8
   1f232:	0000      	movs	r0, r0
   1f234:	9e21      	ldr	r6, [sp, #132]	; 0x84
   1f236:	0001      	movs	r1, r0
   1f238:	0203      	lsls	r3, r0, #8
   1f23a:	0000      	movs	r0, r0
   1f23c:	9e29      	ldr	r6, [sp, #164]	; 0xa4
   1f23e:	0001      	movs	r1, r0
   1f240:	0304      	lsls	r4, r0, #12
   1f242:	0000      	movs	r0, r0
   1f244:	0000      	movs	r0, r0
   1f246:	0000      	movs	r0, r0
   1f248:	0405      	lsls	r5, r0, #16
   1f24a:	0000      	movs	r0, r0
   1f24c:	9efd      	ldr	r6, [sp, #1012]	; 0x3f4
   1f24e:	0001      	movs	r1, r0

0001f250 <m_states_len>:
   1f250:	0002      	movs	r2, r0
   1f252:	0000      	movs	r0, r0
   1f254:	0005      	movs	r5, r0
   1f256:	0000      	movs	r0, r0
   1f258:	0004      	movs	r4, r0
   1f25a:	0000      	movs	r0, r0
   1f25c:	0003      	movs	r3, r0
   1f25e:	0000      	movs	r0, r0
   1f260:	0003      	movs	r3, r0
	...

0001f264 <m_stopped>:
   1f264:	0003      	movs	r3, r0
   1f266:	0000      	movs	r0, r0
   1f268:	9e29      	ldr	r6, [sp, #164]	; 0xa4
   1f26a:	0001      	movs	r1, r0
   1f26c:	0002      	movs	r2, r0
   1f26e:	0000      	movs	r0, r0
   1f270:	9ed9      	ldr	r6, [sp, #868]	; 0x364
   1f272:	0001      	movs	r1, r0
   1f274:	0005      	movs	r5, r0
   1f276:	0000      	movs	r0, r0
   1f278:	9f45      	ldr	r7, [sp, #276]	; 0x114
   1f27a:	0001      	movs	r1, r0

0001f27c <m_tx_suspended>:
   1f27c:	0102      	lsls	r2, r0, #4
   1f27e:	0000      	movs	r0, r0
   1f280:	9ed9      	ldr	r6, [sp, #868]	; 0x364
   1f282:	0001      	movs	r1, r0
   1f284:	0201      	lsls	r1, r0, #8
   1f286:	0000      	movs	r0, r0
   1f288:	9dcd      	ldr	r5, [sp, #820]	; 0x334
   1f28a:	0001      	movs	r1, r0
   1f28c:	0100      	lsls	r0, r0, #4
   1f28e:	0000      	movs	r0, r0
   1f290:	9e59      	ldr	r6, [sp, #356]	; 0x164
   1f292:	0001      	movs	r1, r0
   1f294:	0304      	lsls	r4, r0, #12
   1f296:	0000      	movs	r0, r0
   1f298:	0000      	movs	r0, r0
   1f29a:	0000      	movs	r0, r0
   1f29c:	0405      	lsls	r5, r0, #16
   1f29e:	0000      	movs	r0, r0
   1f2a0:	9efd      	ldr	r6, [sp, #1012]	; 0x3f4
   1f2a2:	0001      	movs	r1, r0

0001f2a4 <mp_states>:
   1f2a4:	f220 0001 			; <UNDEFINED> instruction: 0xf2200001
   1f2a8:	f27c 0001 			; <UNDEFINED> instruction: 0xf27c0001
   1f2ac:	f230 0001 			; <UNDEFINED> instruction: 0xf2300001
   1f2b0:	f264 0001 			; <UNDEFINED> instruction: 0xf2640001
   1f2b4:	f208 0001 	addw	r0, r8, #1

0001f2b8 <CONN_SUP_TIMEOUT>:
   1f2b8:	0190      	lsls	r0, r2, #6
	...

0001f2bc <FIRST_CONN_PARAMS_UPDATE_DELAY>:
   1f2bc:	8000      	strh	r0, [r0, #0]
	...

0001f2c0 <SLAVE_LATENCY>:
   1f2c0:	0000      	movs	r0, r0
   1f2c2:	0000      	movs	r0, r0
   1f2c4:	b33e      	cbz	r6, 1f316 <SLAVE_LATENCY+0x56>
   1f2c6:	0001      	movs	r1, r0
   1f2c8:	b27a      	sxtb	r2, r7
   1f2ca:	0001      	movs	r1, r0
   1f2cc:	b29e      	uxth	r6, r3
   1f2ce:	0001      	movs	r1, r0
   1f2d0:	b23c      	sxth	r4, r7
   1f2d2:	0001      	movs	r1, r0
   1f2d4:	b29e      	uxth	r6, r3
   1f2d6:	0001      	movs	r1, r0
   1f2d8:	b31a      	cbz	r2, 1f322 <SLAVE_LATENCY+0x62>
   1f2da:	0001      	movs	r1, r0
   1f2dc:	b29e      	uxth	r6, r3
   1f2de:	0001      	movs	r1, r0
   1f2e0:	b23c      	sxth	r4, r7
   1f2e2:	0001      	movs	r1, r0
   1f2e4:	b27a      	sxtb	r2, r7
   1f2e6:	0001      	movs	r1, r0
   1f2e8:	b27a      	sxtb	r2, r7
   1f2ea:	0001      	movs	r1, r0
   1f2ec:	b31a      	cbz	r2, 1f336 <SLAVE_LATENCY+0x76>
   1f2ee:	0001      	movs	r1, r0
   1f2f0:	b23c      	sxth	r4, r7
   1f2f2:	0001      	movs	r1, r0
   1f2f4:	b370      	cbz	r0, 1f354 <SLAVE_LATENCY+0x94>
   1f2f6:	0001      	movs	r1, r0
   1f2f8:	b370      	cbz	r0, 1f358 <SLAVE_LATENCY+0x98>
   1f2fa:	0001      	movs	r1, r0
   1f2fc:	b370      	cbz	r0, 1f35c <SLAVE_LATENCY+0x9c>
   1f2fe:	0001      	movs	r1, r0
   1f300:	b326      	cbz	r6, 1f34c <SLAVE_LATENCY+0x8c>
   1f302:	0001      	movs	r1, r0
   1f304:	b27a      	sxtb	r2, r7
   1f306:	0001      	movs	r1, r0
   1f308:	b27a      	sxtb	r2, r7
   1f30a:	0001      	movs	r1, r0
   1f30c:	b29e      	uxth	r6, r3
   1f30e:	0001      	movs	r1, r0
   1f310:	b23a      	sxth	r2, r7
   1f312:	0001      	movs	r1, r0
   1f314:	b29e      	uxth	r6, r3
   1f316:	0001      	movs	r1, r0
   1f318:	b31a      	cbz	r2, 1f362 <SLAVE_LATENCY+0xa2>
   1f31a:	0001      	movs	r1, r0
   1f31c:	b29e      	uxth	r6, r3
   1f31e:	0001      	movs	r1, r0
   1f320:	b23a      	sxth	r2, r7
   1f322:	0001      	movs	r1, r0
   1f324:	b27a      	sxtb	r2, r7
   1f326:	0001      	movs	r1, r0
   1f328:	b27a      	sxtb	r2, r7
   1f32a:	0001      	movs	r1, r0
   1f32c:	b31a      	cbz	r2, 1f376 <SLAVE_LATENCY+0xb6>
   1f32e:	0001      	movs	r1, r0
   1f330:	b23a      	sxth	r2, r7
   1f332:	0001      	movs	r1, r0
   1f334:	b370      	cbz	r0, 1f394 <SLAVE_LATENCY+0xd4>
   1f336:	0001      	movs	r1, r0
   1f338:	b370      	cbz	r0, 1f398 <SLAVE_LATENCY+0xd8>
   1f33a:	0001      	movs	r1, r0
   1f33c:	b370      	cbz	r0, 1f39c <SLAVE_LATENCY+0xdc>
   1f33e:	0001      	movs	r1, r0
   1f340:	b324      	cbz	r4, 1f38c <SLAVE_LATENCY+0xcc>
   1f342:	0001      	movs	r1, r0
   1f344:	b668      			; <UNDEFINED> instruction: 0xb668
   1f346:	0001      	movs	r1, r0
   1f348:	b612      			; <UNDEFINED> instruction: 0xb612
   1f34a:	0001      	movs	r1, r0
   1f34c:	b612      			; <UNDEFINED> instruction: 0xb612
   1f34e:	0001      	movs	r1, r0
   1f350:	b740      			; <UNDEFINED> instruction: 0xb740
   1f352:	0001      	movs	r1, r0
   1f354:	b60e      			; <UNDEFINED> instruction: 0xb60e
   1f356:	0001      	movs	r1, r0
   1f358:	b60e      			; <UNDEFINED> instruction: 0xb60e
   1f35a:	0001      	movs	r1, r0
   1f35c:	b736      			; <UNDEFINED> instruction: 0xb736
   1f35e:	0001      	movs	r1, r0
   1f360:	b740      			; <UNDEFINED> instruction: 0xb740
   1f362:	0001      	movs	r1, r0
   1f364:	b60e      			; <UNDEFINED> instruction: 0xb60e
   1f366:	0001      	movs	r1, r0
   1f368:	b736      			; <UNDEFINED> instruction: 0xb736
   1f36a:	0001      	movs	r1, r0
   1f36c:	b60e      			; <UNDEFINED> instruction: 0xb60e
   1f36e:	0001      	movs	r1, r0
   1f370:	b740      			; <UNDEFINED> instruction: 0xb740
   1f372:	0001      	movs	r1, r0
   1f374:	b744      			; <UNDEFINED> instruction: 0xb744
   1f376:	0001      	movs	r1, r0
   1f378:	b744      			; <UNDEFINED> instruction: 0xb744
   1f37a:	0001      	movs	r1, r0
   1f37c:	b744      			; <UNDEFINED> instruction: 0xb744
   1f37e:	0001      	movs	r1, r0
   1f380:	b74c      			; <UNDEFINED> instruction: 0xb74c
   1f382:	0001      	movs	r1, r0
   1f384:	c078      	stmia	r0!, {r3, r4, r5, r6}
   1f386:	0001      	movs	r1, r0
   1f388:	bf7a      	itte	vc
   1f38a:	0001      	movvc	r1, r0
   1f38c:	bf7a      	itte	vc	; unpredictable <IT:vc>
   1f38e:	0001      	movvc	r1, r0
   1f390:	c298      	stmiavc	r2!, {r3, r4, r7}
   1f392:	0001      	movvs	r1, r0
   1f394:	bf74      	ite	vc
   1f396:	0001      	movvc	r1, r0
   1f398:	bf74      	ite	vc	; unpredictable <IT:vs>
   1f39a:	0001      	movvc	r1, r0
   1f39c:	c280      	stmiavs	r2!, {r7}
   1f39e:	0001      	movs	r1, r0
   1f3a0:	c298      	stmia	r2!, {r3, r4, r7}
   1f3a2:	0001      	movs	r1, r0
   1f3a4:	bf74      	ite	vc
   1f3a6:	0001      	movvc	r1, r0
   1f3a8:	c280      	stmiavs	r2!, {r7}
   1f3aa:	0001      	movs	r1, r0
   1f3ac:	bf74      	ite	vc
   1f3ae:	0001      	movvc	r1, r0
   1f3b0:	c298      	stmiavs	r2!, {r3, r4, r7}
   1f3b2:	0001      	movs	r1, r0
   1f3b4:	c28e      	stmia	r2!, {r1, r2, r3, r7}
   1f3b6:	0001      	movs	r1, r0
   1f3b8:	c28e      	stmia	r2!, {r1, r2, r3, r7}
   1f3ba:	0001      	movs	r1, r0
   1f3bc:	c28e      	stmia	r2!, {r1, r2, r3, r7}
   1f3be:	0001      	movs	r1, r0
   1f3c0:	c29c      	stmia	r2!, {r2, r3, r4, r7}
   1f3c2:	0001      	movs	r1, r0

0001f3c4 <_global_impure_ptr>:
   1f3c4:	2038      	movs	r0, #56	; 0x38
   1f3c6:	2000      	movs	r0, #0
   1f3c8:	6f70      	ldr	r0, [r6, #116]	; 0x74
   1f3ca:	0077      	lsls	r7, r6, #1
   1f3cc:	0000      	movs	r0, r0
	...

0001f3d0 <TWO52>:
   1f3d0:	0000      	movs	r0, r0
   1f3d2:	0000      	movs	r0, r0
   1f3d4:	0000      	movs	r0, r0
   1f3d6:	4330      	orrs	r0, r6
   1f3d8:	0000      	movs	r0, r0
   1f3da:	0000      	movs	r0, r0
   1f3dc:	0000      	movs	r0, r0
   1f3de:	c330      	stmia	r3!, {r4, r5}
   1f3e0:	e4d0      	b.n	1ed84 <__aeabi_dsub+0x554>
   1f3e2:	0001      	movs	r1, r0
   1f3e4:	e342      	b.n	1fa6c <__etext+0x640>
   1f3e6:	0001      	movs	r1, r0
   1f3e8:	e386      	b.n	1faf8 <__etext+0x6cc>
   1f3ea:	0001      	movs	r1, r0
   1f3ec:	e2ea      	b.n	1f9c4 <__etext+0x598>
   1f3ee:	0001      	movs	r1, r0
   1f3f0:	e386      	b.n	1fb00 <__etext+0x6d4>
   1f3f2:	0001      	movs	r1, r0
   1f3f4:	e476      	b.n	1ece4 <__aeabi_dsub+0x4b4>
   1f3f6:	0001      	movs	r1, r0
   1f3f8:	e386      	b.n	1fb08 <__etext+0x6dc>
   1f3fa:	0001      	movs	r1, r0
   1f3fc:	e2ea      	b.n	1f9d4 <__etext+0x5a8>
   1f3fe:	0001      	movs	r1, r0
   1f400:	e342      	b.n	1fa88 <__etext+0x65c>
   1f402:	0001      	movs	r1, r0
   1f404:	e342      	b.n	1fa8c <__etext+0x660>
   1f406:	0001      	movs	r1, r0
   1f408:	e476      	b.n	1ecf8 <__aeabi_dsub+0x4c8>
   1f40a:	0001      	movs	r1, r0
   1f40c:	e2ea      	b.n	1f9e4 <__etext+0x5b8>
   1f40e:	0001      	movs	r1, r0
   1f410:	e2e2      	b.n	1f9d8 <__etext+0x5ac>
   1f412:	0001      	movs	r1, r0
   1f414:	e2e2      	b.n	1f9dc <__etext+0x5b0>
   1f416:	0001      	movs	r1, r0
   1f418:	e2e2      	b.n	1f9e0 <__etext+0x5b4>
   1f41a:	0001      	movs	r1, r0
   1f41c:	e484      	b.n	1ed28 <__aeabi_dsub+0x4f8>
   1f41e:	0001      	movs	r1, r0

0001f420 <__EH_FRAME_BEGIN__>:
   1f420:	0000      	movs	r0, r0
	...

Disassembly of section .ARM.exidx:

0001f424 <__etext-0x8>:
   1f424:	8c9c      	ldrh	r4, [r3, #36]	; 0x24
   1f426:	7fff      	ldrb	r7, [r7, #31]
   1f428:	0001      	movs	r1, r0
	...

Disassembly of section .data:

20002000 <__data_start__>:
20002000:	0040      	lsls	r0, r0, #1
20002002:	ffff f0b0 	vshr.u64	d31, d16, #1
20002006:	0001      	movs	r1, r0
20002008:	0fa0      	lsrs	r0, r4, #30
2000200a:	0190      	lsls	r0, r2, #6
2000200c:	0320      	lsls	r0, r4, #12
	...

20002010 <twi_instance>:
	...
20002020:	4000      	ands	r0, r0
20002022:	4000      	ands	r0, r0
20002024:	0104      	lsls	r4, r0, #4
	...

20002028 <m_sec_params>:
20002028:	070d      	lsls	r5, r1, #28
2000202a:	0010      	movs	r0, r2
2000202c:	0000      	movs	r0, r0
	...

20002030 <_impure_ptr>:
20002030:	2038      	movs	r0, #56	; 0x38
20002032:	2000      	movs	r0, #0
20002034:	0000      	movs	r0, r0
	...

20002038 <impure_data>:
20002038:	0000      	movs	r0, r0
2000203a:	0000      	movs	r0, r0
2000203c:	2324      	movs	r3, #36	; 0x24
2000203e:	2000      	movs	r0, #0
20002040:	238c      	movs	r3, #140	; 0x8c
20002042:	2000      	movs	r0, #0
20002044:	23f4      	movs	r3, #244	; 0xf4
20002046:	2000      	movs	r0, #0
	...
200020e0:	0001      	movs	r1, r0
200020e2:	0000      	movs	r0, r0
200020e4:	0000      	movs	r0, r0
200020e6:	0000      	movs	r0, r0
200020e8:	330e      	adds	r3, #14
200020ea:	abcd      	add	r3, sp, #820	; 0x334
200020ec:	1234      	asrs	r4, r6, #8
200020ee:	e66d      	b.n	20001dcc <__etext+0x1ffe29a0>
200020f0:	deec      	udf	#236	; 0xec
200020f2:	0005      	movs	r5, r0
200020f4:	000b      	movs	r3, r1
	...

20002460 <__atexit_recursive_mutex>:
20002460:	2998      	cmp	r1, #152	; 0x98
20002462:	2000      	movs	r0, #0

20002464 <__fdlib_version>:
20002464:	0001      	movs	r1, r0
	...

Disassembly of section .bss:

20002468 <__bss_start__>:
	...

20002478 <color_timer_data>:
	...

20002498 <light_type>:
20002498:	0000      	movs	r0, r0
	...

2000249c <queue_buffer.8969>:
	...

200024c0 <startup_timer_data>:
	...

200024e0 <adc_enable_callback>:
200024e0:	0000      	movs	r0, r0
	...

200024e4 <blue>:
	...

200024e6 <clear>:
	...

200024e8 <green>:
200024e8:	0000      	movs	r0, r0
	...

200024ec <read_ID_callback>:
200024ec:	0000      	movs	r0, r0
	...

200024f0 <read_blue_callback>:
200024f0:	0000      	movs	r0, r0
	...

200024f4 <read_clear_callback>:
200024f4:	0000      	movs	r0, r0
	...

200024f8 <read_green_callback>:
200024f8:	0000      	movs	r0, r0
	...

200024fc <read_red_callback>:
200024fc:	0000      	movs	r0, r0
	...

20002500 <red>:
20002500:	0000      	movs	r0, r0
	...

20002504 <sensor_enable_callback>:
20002504:	0000      	movs	r0, r0
	...

20002508 <set_gain_callback>:
20002508:	0000      	movs	r0, r0
	...

2000250c <set_int_time_callback>:
2000250c:	0000      	movs	r0, r0
	...

20002510 <set_interrupt_callback>:
20002510:	0000      	movs	r0, r0
	...

20002514 <state>:
20002514:	0000      	movs	r0, r0
	...

20002518 <tcs34725_timer_data>:
	...

20002538 <tcsIDval>:
20002538:	0000      	movs	r0, r0
	...

2000253c <twi>:
2000253c:	0000      	movs	r0, r0
	...

20002540 <m_evt_schedule_func>:
20002540:	0000      	movs	r0, r0
	...

20002544 <m_rtc1_reset>:
	...

20002545 <m_rtc1_running>:
20002545:	0000      	movs	r0, r0
	...

20002548 <m_ticks_elapsed>:
	...

20002550 <m_ticks_elapsed_q_read_ind>:
	...

20002551 <m_ticks_elapsed_q_write_ind>:
20002551:	0000      	movs	r0, r0
	...

20002554 <m_ticks_latest>:
20002554:	0000      	movs	r0, r0
	...

20002558 <m_user_array_size>:
20002558:	0000      	movs	r0, r0
	...

2000255c <mp_timer_id_head>:
2000255c:	0000      	movs	r0, r0
	...

20002560 <mp_users>:
20002560:	0000      	movs	r0, r0
	...

20002564 <m_change_param>:
	...

20002566 <m_conn_handle>:
	...

20002568 <m_conn_params_config>:
	...

20002584 <m_conn_params_timer_id_data>:
	...

200025a4 <m_current_conn_params>:
	...

200025ac <m_preferred_conn_params>:
	...

200025b4 <m_update_count>:
200025b4:	0000      	movs	r0, r0
	...

200025b8 <m_cb>:
	...

200025e8 <m_handlers>:
	...

200025f0 <m_instances>:
	...

200025f8 <mp_contexts>:
	...

20002600 <m_ble_evt_buffer_size>:
20002600:	0000      	movs	r0, r0
	...

20002604 <m_ble_evt_handler>:
20002604:	0000      	movs	r0, r0
	...

20002608 <m_evt_schedule_func>:
20002608:	0000      	movs	r0, r0
	...

2000260c <m_softdevice_enabled>:
2000260c:	0000      	movs	r0, r0
	...

20002610 <m_sys_evt_handler>:
20002610:	0000      	movs	r0, r0
	...

20002614 <mp_ble_evt_buffer>:
20002614:	0000      	movs	r0, r0
	...

20002618 <APP_TIMER_BUF.8784>:
	...

20002900 <BLE_EVT_BUFFER.8753>:
	...

20002948 <ble_config>:
20002948:	0000      	movs	r0, r0
	...

2000294c <color_data>:
	...

2000295c <minRatio>:
2000295c:	0000      	movs	r0, r0
	...

20002960 <blueData>:
	...

20002962 <luxData>:
	...

20002964 <light_data>:
	...

2000296c <ratioCompare>:
2000296c:	0000      	movs	r0, r0
	...

20002970 <greenData>:
	...

20002972 <redData>:
	...

20002974 <maxRatio>:
20002974:	0000      	movs	r0, r0
	...

20002978 <colorTempData>:
20002978:	0000      	movs	r0, r0
	...

2000297c <m_adv_params>:
	...

20002994 <app>:
20002994:	0000      	movs	r0, r0
	...

20002998 <__lock___atexit_recursive_mutex>:
20002998:	0000      	movs	r0, r0
	...

2000299c <__lock___arc4random_mutex>:
2000299c:	0000      	movs	r0, r0
	...

200029a0 <__lock___env_recursive_mutex>:
200029a0:	0000      	movs	r0, r0
	...

200029a4 <__lock___sinit_recursive_mutex>:
200029a4:	0000      	movs	r0, r0
	...

200029a8 <__lock___malloc_recursive_mutex>:
200029a8:	0000      	movs	r0, r0
	...

200029ac <__lock___at_quick_exit_mutex>:
200029ac:	0000      	movs	r0, r0
	...

200029b0 <__lock___dd_hash_mutex>:
200029b0:	0000      	movs	r0, r0
	...

200029b4 <__lock___tz_mutex>:
200029b4:	0000      	movs	r0, r0
	...

200029b8 <__lock___sfp_recursive_mutex>:
	...

Disassembly of section .heap:

200029c0 <__HeapBase>:
	...

Disassembly of section .stack_dummy:

200029c0 <.stack_dummy>:
	...

Disassembly of section .ARM.attributes:

00000000 <.ARM.attributes>:
   0:	2741      	movs	r7, #65	; 0x41
   2:	0000      	movs	r0, r0
   4:	6100      	str	r0, [r0, #16]
   6:	6165      	str	r5, [r4, #20]
   8:	6962      	ldr	r2, [r4, #20]
   a:	0100      	lsls	r0, r0, #4
   c:	001d      	movs	r5, r3
   e:	0000      	movs	r0, r0
  10:	3605      	adds	r6, #5
  12:	2d53      	cmp	r5, #83	; 0x53
  14:	004d      	lsls	r5, r1, #1
  16:	0c06      	lsrs	r6, r0, #16
  18:	4d07      	ldr	r5, [pc, #28]	; (38 <NRF_POWER_RAMON_RAM1ON_ONMODE_Msk+0x35>)
  1a:	0109      	lsls	r1, r1, #4
  1c:	0412      	lsls	r2, r2, #16
  1e:	0114      	lsls	r4, r2, #4
  20:	0115      	lsls	r5, r2, #4
  22:	0317      	lsls	r7, r2, #12
  24:	0118      	lsls	r0, r3, #4
  26:	011a      	lsls	r2, r3, #4

Disassembly of section .comment:

00000000 <.comment>:
   0:	4347      	muls	r7, r0
   2:	3a43      	subs	r2, #67	; 0x43
   4:	2820      	cmp	r0, #32
   6:	4e47      	ldr	r6, [pc, #284]	; (124 <Heap_Size+0x24>)
   8:	2055      	movs	r0, #85	; 0x55
   a:	6f54      	ldr	r4, [r2, #116]	; 0x74
   c:	6c6f      	ldr	r7, [r5, #68]	; 0x44
   e:	2073      	movs	r0, #115	; 0x73
  10:	6f66      	ldr	r6, [r4, #116]	; 0x74
  12:	2072      	movs	r0, #114	; 0x72
  14:	7241      	strb	r1, [r0, #9]
  16:	206d      	movs	r0, #109	; 0x6d
  18:	6d45      	ldr	r5, [r0, #84]	; 0x54
  1a:	6562      	str	r2, [r4, #84]	; 0x54
  1c:	6464      	str	r4, [r4, #68]	; 0x44
  1e:	6465      	str	r5, [r4, #68]	; 0x44
  20:	5020      	str	r0, [r4, r0]
  22:	6f72      	ldr	r2, [r6, #116]	; 0x74
  24:	6563      	str	r3, [r4, #84]	; 0x54
  26:	7373      	strb	r3, [r6, #13]
  28:	726f      	strb	r7, [r5, #9]
  2a:	2073      	movs	r0, #115	; 0x73
  2c:	2d37      	cmp	r5, #55	; 0x37
  2e:	3032      	adds	r0, #50	; 0x32
  30:	3831      	subs	r0, #49	; 0x31
  32:	712d      	strb	r5, [r5, #4]
  34:	2d33      	cmp	r5, #51	; 0x33
  36:	7075      	strb	r5, [r6, #1]
  38:	6164      	str	r4, [r4, #20]
  3a:	6574      	str	r4, [r6, #84]	; 0x54
  3c:	2029      	movs	r0, #41	; 0x29
  3e:	2e37      	cmp	r6, #55	; 0x37
  40:	2e33      	cmp	r6, #51	; 0x33
  42:	2031      	movs	r0, #49	; 0x31
  44:	3032      	adds	r0, #50	; 0x32
  46:	3831      	subs	r0, #49	; 0x31
  48:	3630      	adds	r6, #48	; 0x30
  4a:	3232      	adds	r2, #50	; 0x32
  4c:	2820      	cmp	r0, #32
  4e:	6572      	str	r2, [r6, #84]	; 0x54
  50:	656c      	str	r4, [r5, #84]	; 0x54
  52:	7361      	strb	r1, [r4, #13]
  54:	2965      	cmp	r1, #101	; 0x65
  56:	5b20      	ldrh	r0, [r4, r4]
  58:	5241      	strh	r1, [r0, r1]
  5a:	2f4d      	cmp	r7, #77	; 0x4d
  5c:	6d65      	ldr	r5, [r4, #84]	; 0x54
  5e:	6562      	str	r2, [r4, #84]	; 0x54
  60:	6464      	str	r4, [r4, #68]	; 0x44
  62:	6465      	str	r5, [r4, #68]	; 0x44
  64:	372d      	adds	r7, #45	; 0x2d
  66:	622d      	str	r5, [r5, #32]
  68:	6172      	str	r2, [r6, #20]
  6a:	636e      	str	r6, [r5, #52]	; 0x34
  6c:	2068      	movs	r0, #104	; 0x68
  6e:	6572      	str	r2, [r6, #84]	; 0x54
  70:	6976      	ldr	r6, [r6, #20]
  72:	6973      	ldr	r3, [r6, #20]
  74:	6e6f      	ldr	r7, [r5, #100]	; 0x64
  76:	3220      	adds	r2, #32
  78:	3136      	adds	r1, #54	; 0x36
  7a:	3039      	adds	r0, #57	; 0x39
  7c:	5d37      	ldrb	r7, [r6, r4]
	...

Disassembly of section .debug_frame:

00000000 <.debug_frame>:
   0:	000c      	movs	r4, r1
   2:	0000      	movs	r0, r0
   4:	ffff ffff 			; <UNDEFINED> instruction: 0xffffffff
   8:	0001      	movs	r1, r0
   a:	7c02      	ldrb	r2, [r0, #16]
   c:	0c0e      	lsrs	r6, r1, #16
   e:	000d      	movs	r5, r1
  10:	0014      	movs	r4, r2
  12:	0000      	movs	r0, r0
  14:	0000      	movs	r0, r0
  16:	0000      	movs	r0, r0
  18:	ae5c      	add	r6, sp, #368	; 0x170
  1a:	0001      	movs	r1, r0
  1c:	0030      	movs	r0, r6
  1e:	0000      	movs	r0, r0
  20:	0e42      	lsrs	r2, r0, #25
  22:	8408      	strh	r0, [r1, #32]
  24:	8e02      	ldrh	r2, [r0, #48]	; 0x30
  26:	0001      	movs	r1, r0
  28:	000c      	movs	r4, r1
  2a:	0000      	movs	r0, r0
  2c:	ffff ffff 			; <UNDEFINED> instruction: 0xffffffff
  30:	0001      	movs	r1, r0
  32:	7c02      	ldrb	r2, [r0, #16]
  34:	0c0e      	lsrs	r6, r1, #16
  36:	000d      	movs	r5, r1
  38:	0024      	movs	r4, r4
  3a:	0000      	movs	r0, r0
  3c:	0028      	movs	r0, r5
  3e:	0000      	movs	r0, r0
  40:	ae8c      	add	r6, sp, #560	; 0x230
  42:	0001      	movs	r1, r0
  44:	0334      	lsls	r4, r6, #12
  46:	0000      	movs	r0, r0
  48:	0e41      	lsrs	r1, r0, #25
  4a:	8318      	strh	r0, [r3, #24]
  4c:	8406      	strh	r6, [r0, #32]
  4e:	8505      	strh	r5, [r0, #40]	; 0x28
  50:	8604      	strh	r4, [r0, #48]	; 0x30
  52:	8703      	strh	r3, [r0, #56]	; 0x38
  54:	8e02      	ldrh	r2, [r0, #48]	; 0x30
  56:	4e01      	ldr	r6, [pc, #4]	; (5c <NRF_POWER_RAMON_RAM1ON_ONMODE_Msk+0x59>)
  58:	200e      	movs	r0, #14
  5a:	0888      	lsrs	r0, r1, #2
  5c:	0789      	lsls	r1, r1, #30
  5e:	0000      	movs	r0, r0
  60:	000c      	movs	r4, r1
  62:	0000      	movs	r0, r0
  64:	ffff ffff 			; <UNDEFINED> instruction: 0xffffffff
  68:	0001      	movs	r1, r0
  6a:	7c02      	ldrb	r2, [r0, #16]
  6c:	0c0e      	lsrs	r6, r1, #16
  6e:	000d      	movs	r5, r1
  70:	0028      	movs	r0, r5
  72:	0000      	movs	r0, r0
  74:	0060      	lsls	r0, r4, #1
  76:	0000      	movs	r0, r0
  78:	b1c0      	cbz	r0, ac <NRF_POWER_RAMON_RAM1ON_ONMODE_Msk+0xa9>
  7a:	0001      	movs	r1, r0
  7c:	0224      	lsls	r4, r4, #8
  7e:	0000      	movs	r0, r0
  80:	0e41      	lsrs	r1, r0, #25
  82:	8318      	strh	r0, [r3, #24]
  84:	8406      	strh	r6, [r0, #32]
  86:	8505      	strh	r5, [r0, #40]	; 0x28
  88:	8604      	strh	r4, [r0, #48]	; 0x30
  8a:	8703      	strh	r3, [r0, #56]	; 0x38
  8c:	8e02      	ldrh	r2, [r0, #48]	; 0x30
  8e:	4601      	mov	r1, r0
  90:	280e      	cmp	r0, #14
  92:	0a88      	lsrs	r0, r1, #10
  94:	0989      	lsrs	r1, r1, #6
  96:	088a      	lsrs	r2, r1, #2
  98:	078b      	lsls	r3, r1, #30
  9a:	0000      	movs	r0, r0
  9c:	000c      	movs	r4, r1
  9e:	0000      	movs	r0, r0
  a0:	ffff ffff 			; <UNDEFINED> instruction: 0xffffffff
  a4:	0001      	movs	r1, r0
  a6:	7c02      	ldrb	r2, [r0, #16]
  a8:	0c0e      	lsrs	r6, r1, #16
  aa:	000d      	movs	r5, r1
  ac:	0018      	movs	r0, r3
  ae:	0000      	movs	r0, r0
  b0:	009c      	lsls	r4, r3, #2
  b2:	0000      	movs	r0, r0
  b4:	b3e4      	cbz	r4, 130 <Heap_Size+0x30>
  b6:	0001      	movs	r1, r0
  b8:	004e      	lsls	r6, r1, #1
  ba:	0000      	movs	r0, r0
  bc:	0e41      	lsrs	r1, r0, #25
  be:	8410      	strh	r0, [r2, #32]
  c0:	8504      	strh	r4, [r0, #40]	; 0x28
  c2:	8603      	strh	r3, [r0, #48]	; 0x30
  c4:	8e02      	ldrh	r2, [r0, #48]	; 0x30
  c6:	0001      	movs	r1, r0
  c8:	000c      	movs	r4, r1
  ca:	0000      	movs	r0, r0
  cc:	ffff ffff 			; <UNDEFINED> instruction: 0xffffffff
  d0:	0001      	movs	r1, r0
  d2:	7c02      	ldrb	r2, [r0, #16]
  d4:	0c0e      	lsrs	r6, r1, #16
  d6:	000d      	movs	r5, r1
  d8:	0018      	movs	r0, r3
  da:	0000      	movs	r0, r0
  dc:	00c8      	lsls	r0, r1, #3
  de:	0000      	movs	r0, r0
  e0:	b434      	push	{r2, r4, r5}
  e2:	0001      	movs	r1, r0
  e4:	009c      	lsls	r4, r3, #2
  e6:	0000      	movs	r0, r0
  e8:	0e41      	lsrs	r1, r0, #25
  ea:	8410      	strh	r0, [r2, #32]
  ec:	8504      	strh	r4, [r0, #40]	; 0x28
  ee:	8603      	strh	r3, [r0, #48]	; 0x30
  f0:	8e02      	ldrh	r2, [r0, #48]	; 0x30
  f2:	0001      	movs	r1, r0
  f4:	000c      	movs	r4, r1
  f6:	0000      	movs	r0, r0
  f8:	ffff ffff 			; <UNDEFINED> instruction: 0xffffffff
  fc:	0001      	movs	r1, r0
  fe:	7c02      	ldrb	r2, [r0, #16]
 100:	0c0e      	lsrs	r6, r1, #16
 102:	000d      	movs	r5, r1
 104:	0018      	movs	r0, r3
 106:	0000      	movs	r0, r0
 108:	00f4      	lsls	r4, r6, #3
 10a:	0000      	movs	r0, r0
 10c:	b4d0      	push	{r4, r6, r7}
 10e:	0001      	movs	r1, r0
 110:	009e      	lsls	r6, r3, #2
 112:	0000      	movs	r0, r0
 114:	0e41      	lsrs	r1, r0, #25
 116:	840c      	strh	r4, [r1, #32]
 118:	8503      	strh	r3, [r0, #40]	; 0x28
 11a:	8e02      	ldrh	r2, [r0, #48]	; 0x30
 11c:	0001      	movs	r1, r0
 11e:	0000      	movs	r0, r0
 120:	000c      	movs	r4, r1
 122:	0000      	movs	r0, r0
 124:	ffff ffff 			; <UNDEFINED> instruction: 0xffffffff
 128:	0001      	movs	r1, r0
 12a:	7c02      	ldrb	r2, [r0, #16]
 12c:	0c0e      	lsrs	r6, r1, #16
 12e:	000d      	movs	r5, r1
 130:	0028      	movs	r0, r5
 132:	0000      	movs	r0, r0
 134:	0120      	lsls	r0, r4, #4
 136:	0000      	movs	r0, r0
 138:	b570      	push	{r4, r5, r6, lr}
 13a:	0001      	movs	r1, r0
 13c:	0264      	lsls	r4, r4, #9
 13e:	0000      	movs	r0, r0
 140:	0e41      	lsrs	r1, r0, #25
 142:	8414      	strh	r4, [r2, #32]
 144:	8505      	strh	r5, [r0, #40]	; 0x28
 146:	8604      	strh	r4, [r0, #48]	; 0x30
 148:	8703      	strh	r3, [r0, #56]	; 0x38
 14a:	8e02      	ldrh	r2, [r0, #48]	; 0x30
 14c:	4501      	cmp	r1, r0
 14e:	240e      	movs	r4, #14
 150:	0988      	lsrs	r0, r1, #6
 152:	0889      	lsrs	r1, r1, #2
 154:	078a      	lsls	r2, r1, #30
 156:	068b      	lsls	r3, r1, #26
 158:	0e44      	lsrs	r4, r0, #25
 15a:	0030      	movs	r0, r6
 15c:	000c      	movs	r4, r1
 15e:	0000      	movs	r0, r0
 160:	ffff ffff 			; <UNDEFINED> instruction: 0xffffffff
 164:	0001      	movs	r1, r0
 166:	7c02      	ldrb	r2, [r0, #16]
 168:	0c0e      	lsrs	r6, r1, #16
 16a:	000d      	movs	r5, r1
 16c:	0024      	movs	r4, r4
 16e:	0000      	movs	r0, r0
 170:	015c      	lsls	r4, r3, #5
 172:	0000      	movs	r0, r0
 174:	b7d4      			; <UNDEFINED> instruction: 0xb7d4
 176:	0001      	movs	r1, r0
 178:	0388      	lsls	r0, r1, #14
 17a:	0000      	movs	r0, r0
 17c:	0e41      	lsrs	r1, r0, #25
 17e:	8318      	strh	r0, [r3, #24]
 180:	8406      	strh	r6, [r0, #32]
 182:	8505      	strh	r5, [r0, #40]	; 0x28
 184:	8604      	strh	r4, [r0, #48]	; 0x30
 186:	8703      	strh	r3, [r0, #56]	; 0x38
 188:	8e02      	ldrh	r2, [r0, #48]	; 0x30
 18a:	4501      	cmp	r1, r0
 18c:	200e      	movs	r0, #14
 18e:	0888      	lsrs	r0, r1, #2
 190:	0789      	lsls	r1, r1, #30
 192:	0000      	movs	r0, r0
 194:	000c      	movs	r4, r1
 196:	0000      	movs	r0, r0
 198:	ffff ffff 			; <UNDEFINED> instruction: 0xffffffff
 19c:	0001      	movs	r1, r0
 19e:	7c02      	ldrb	r2, [r0, #16]
 1a0:	0c0e      	lsrs	r6, r1, #16
 1a2:	000d      	movs	r5, r1
 1a4:	000c      	movs	r4, r1
 1a6:	0000      	movs	r0, r0
 1a8:	0194      	lsls	r4, r2, #6
 1aa:	0000      	movs	r0, r0
 1ac:	bb5c      	cbnz	r4, 206 <Heap_Size+0x106>
 1ae:	0001      	movs	r1, r0
 1b0:	0040      	lsls	r0, r0, #1
 1b2:	0000      	movs	r0, r0
 1b4:	000c      	movs	r4, r1
 1b6:	0000      	movs	r0, r0
 1b8:	ffff ffff 			; <UNDEFINED> instruction: 0xffffffff
 1bc:	0001      	movs	r1, r0
 1be:	7c02      	ldrb	r2, [r0, #16]
 1c0:	0c0e      	lsrs	r6, r1, #16
 1c2:	000d      	movs	r5, r1
 1c4:	0018      	movs	r0, r3
 1c6:	0000      	movs	r0, r0
 1c8:	01b4      	lsls	r4, r6, #6
 1ca:	0000      	movs	r0, r0
 1cc:	bb9c      	cbnz	r4, 236 <Heap_Size+0x136>
 1ce:	0001      	movs	r1, r0
 1d0:	0094      	lsls	r4, r2, #2
 1d2:	0000      	movs	r0, r0
 1d4:	0e41      	lsrs	r1, r0, #25
 1d6:	8410      	strh	r0, [r2, #32]
 1d8:	8504      	strh	r4, [r0, #40]	; 0x28
 1da:	8603      	strh	r3, [r0, #48]	; 0x30
 1dc:	8e02      	ldrh	r2, [r0, #48]	; 0x30
 1de:	0001      	movs	r1, r0
 1e0:	000c      	movs	r4, r1
 1e2:	0000      	movs	r0, r0
 1e4:	ffff ffff 			; <UNDEFINED> instruction: 0xffffffff
 1e8:	0001      	movs	r1, r0
 1ea:	7c02      	ldrb	r2, [r0, #16]
 1ec:	0c0e      	lsrs	r6, r1, #16
 1ee:	000d      	movs	r5, r1
 1f0:	0018      	movs	r0, r3
 1f2:	0000      	movs	r0, r0
 1f4:	01e0      	lsls	r0, r4, #7
 1f6:	0000      	movs	r0, r0
 1f8:	bc30      	pop	{r4, r5}
 1fa:	0001      	movs	r1, r0
 1fc:	0080      	lsls	r0, r0, #2
 1fe:	0000      	movs	r0, r0
 200:	0e41      	lsrs	r1, r0, #25
 202:	8410      	strh	r0, [r2, #32]
 204:	8504      	strh	r4, [r0, #40]	; 0x28
 206:	8603      	strh	r3, [r0, #48]	; 0x30
 208:	8e02      	ldrh	r2, [r0, #48]	; 0x30
 20a:	0001      	movs	r1, r0
 20c:	000c      	movs	r4, r1
 20e:	0000      	movs	r0, r0
 210:	ffff ffff 			; <UNDEFINED> instruction: 0xffffffff
 214:	0001      	movs	r1, r0
 216:	7c02      	ldrb	r2, [r0, #16]
 218:	0c0e      	lsrs	r6, r1, #16
 21a:	000d      	movs	r5, r1
 21c:	0024      	movs	r4, r4
 21e:	0000      	movs	r0, r0
 220:	020c      	lsls	r4, r1, #8
 222:	0000      	movs	r0, r0
 224:	bcb0      	pop	{r4, r5, r7}
 226:	0001      	movs	r1, r0
 228:	0078      	lsls	r0, r7, #1
 22a:	0000      	movs	r0, r0
 22c:	0e41      	lsrs	r1, r0, #25
 22e:	8414      	strh	r4, [r2, #32]
 230:	8505      	strh	r5, [r0, #40]	; 0x28
 232:	8604      	strh	r4, [r0, #48]	; 0x30
 234:	8703      	strh	r3, [r0, #56]	; 0x38
 236:	8e02      	ldrh	r2, [r0, #48]	; 0x30
 238:	4501      	cmp	r1, r0
 23a:	200e      	movs	r0, #14
 23c:	0888      	lsrs	r0, r1, #2
 23e:	0789      	lsls	r1, r1, #30
 240:	068a      	lsls	r2, r1, #26
 242:	0000      	movs	r0, r0
 244:	000c      	movs	r4, r1
 246:	0000      	movs	r0, r0
 248:	ffff ffff 			; <UNDEFINED> instruction: 0xffffffff
 24c:	0001      	movs	r1, r0
 24e:	7c02      	ldrb	r2, [r0, #16]
 250:	0c0e      	lsrs	r6, r1, #16
 252:	000d      	movs	r5, r1
 254:	0024      	movs	r4, r4
 256:	0000      	movs	r0, r0
 258:	0244      	lsls	r4, r0, #9
 25a:	0000      	movs	r0, r0
 25c:	bd28      	pop	{r3, r5, pc}
 25e:	0001      	movs	r1, r0
 260:	00c8      	lsls	r0, r1, #3
 262:	0000      	movs	r0, r0
 264:	0e41      	lsrs	r1, r0, #25
 266:	8414      	strh	r4, [r2, #32]
 268:	8505      	strh	r5, [r0, #40]	; 0x28
 26a:	8604      	strh	r4, [r0, #48]	; 0x30
 26c:	8703      	strh	r3, [r0, #56]	; 0x38
 26e:	8e02      	ldrh	r2, [r0, #48]	; 0x30
 270:	4501      	cmp	r1, r0
 272:	200e      	movs	r0, #14
 274:	0888      	lsrs	r0, r1, #2
 276:	0789      	lsls	r1, r1, #30
 278:	068a      	lsls	r2, r1, #26
 27a:	0000      	movs	r0, r0
 27c:	000c      	movs	r4, r1
 27e:	0000      	movs	r0, r0
 280:	ffff ffff 			; <UNDEFINED> instruction: 0xffffffff
 284:	0001      	movs	r1, r0
 286:	7c02      	ldrb	r2, [r0, #16]
 288:	0c0e      	lsrs	r6, r1, #16
 28a:	000d      	movs	r5, r1
 28c:	0024      	movs	r4, r4
 28e:	0000      	movs	r0, r0
 290:	027c      	lsls	r4, r7, #9
 292:	0000      	movs	r0, r0
 294:	bdf0      	pop	{r4, r5, r6, r7, pc}
 296:	0001      	movs	r1, r0
 298:	00d0      	lsls	r0, r2, #3
 29a:	0000      	movs	r0, r0
 29c:	0e41      	lsrs	r1, r0, #25
 29e:	8414      	strh	r4, [r2, #32]
 2a0:	8505      	strh	r5, [r0, #40]	; 0x28
 2a2:	8604      	strh	r4, [r0, #48]	; 0x30
 2a4:	8703      	strh	r3, [r0, #56]	; 0x38
 2a6:	8e02      	ldrh	r2, [r0, #48]	; 0x30
 2a8:	4501      	cmp	r1, r0
 2aa:	200e      	movs	r0, #14
 2ac:	0888      	lsrs	r0, r1, #2
 2ae:	0789      	lsls	r1, r1, #30
 2b0:	068a      	lsls	r2, r1, #26
 2b2:	0000      	movs	r0, r0
 2b4:	000c      	movs	r4, r1
 2b6:	0000      	movs	r0, r0
 2b8:	ffff ffff 			; <UNDEFINED> instruction: 0xffffffff
 2bc:	0001      	movs	r1, r0
 2be:	7c02      	ldrb	r2, [r0, #16]
 2c0:	0c0e      	lsrs	r6, r1, #16
 2c2:	000d      	movs	r5, r1
 2c4:	0028      	movs	r0, r5
 2c6:	0000      	movs	r0, r0
 2c8:	02b4      	lsls	r4, r6, #10
 2ca:	0000      	movs	r0, r0
 2cc:	bec0      	bkpt	0x00c0
 2ce:	0001      	movs	r1, r0
 2d0:	04e4      	lsls	r4, r4, #19
 2d2:	0000      	movs	r0, r0
 2d4:	0e41      	lsrs	r1, r0, #25
 2d6:	8414      	strh	r4, [r2, #32]
 2d8:	8505      	strh	r5, [r0, #40]	; 0x28
 2da:	8604      	strh	r4, [r0, #48]	; 0x30
 2dc:	8703      	strh	r3, [r0, #56]	; 0x38
 2de:	8e02      	ldrh	r2, [r0, #48]	; 0x30
 2e0:	4501      	cmp	r1, r0
 2e2:	240e      	movs	r4, #14
 2e4:	0988      	lsrs	r0, r1, #6
 2e6:	0889      	lsrs	r1, r1, #2
 2e8:	078a      	lsls	r2, r1, #30
 2ea:	068b      	lsls	r3, r1, #26
 2ec:	0e45      	lsrs	r5, r0, #25
 2ee:	0040      	lsls	r0, r0, #1
 2f0:	000c      	movs	r4, r1
 2f2:	0000      	movs	r0, r0
 2f4:	ffff ffff 			; <UNDEFINED> instruction: 0xffffffff
 2f8:	0001      	movs	r1, r0
 2fa:	7c02      	ldrb	r2, [r0, #16]
 2fc:	0c0e      	lsrs	r6, r1, #16
 2fe:	000d      	movs	r5, r1
 300:	0018      	movs	r0, r3
 302:	0000      	movs	r0, r0
 304:	02f0      	lsls	r0, r6, #11
 306:	0000      	movs	r0, r0
 308:	c3a4      	stmia	r3!, {r2, r5, r7}
 30a:	0001      	movs	r1, r0
 30c:	00a4      	lsls	r4, r4, #2
 30e:	0000      	movs	r0, r0
 310:	0e44      	lsrs	r4, r0, #25
 312:	8410      	strh	r0, [r2, #32]
 314:	8504      	strh	r4, [r0, #40]	; 0x28
 316:	8603      	strh	r3, [r0, #48]	; 0x30
 318:	8e02      	ldrh	r2, [r0, #48]	; 0x30
 31a:	0001      	movs	r1, r0
 31c:	000c      	movs	r4, r1
 31e:	0000      	movs	r0, r0
 320:	ffff ffff 			; <UNDEFINED> instruction: 0xffffffff
 324:	0001      	movs	r1, r0
 326:	7c02      	ldrb	r2, [r0, #16]
 328:	0c0e      	lsrs	r6, r1, #16
 32a:	000d      	movs	r5, r1
 32c:	001c      	movs	r4, r3
 32e:	0000      	movs	r0, r0
 330:	031c      	lsls	r4, r3, #12
 332:	0000      	movs	r0, r0
 334:	c448      	stmia	r4!, {r3, r6}
 336:	0001      	movs	r1, r0
 338:	0108      	lsls	r0, r1, #4
 33a:	0000      	movs	r0, r0
 33c:	0e41      	lsrs	r1, r0, #25
 33e:	8414      	strh	r4, [r2, #32]
 340:	8505      	strh	r5, [r0, #40]	; 0x28
 342:	8604      	strh	r4, [r0, #48]	; 0x30
 344:	8703      	strh	r3, [r0, #56]	; 0x38
 346:	8e02      	ldrh	r2, [r0, #48]	; 0x30
 348:	0001      	movs	r1, r0
 34a:	0000      	movs	r0, r0
 34c:	000c      	movs	r4, r1
 34e:	0000      	movs	r0, r0
 350:	ffff ffff 			; <UNDEFINED> instruction: 0xffffffff
 354:	0001      	movs	r1, r0
 356:	7c02      	ldrb	r2, [r0, #16]
 358:	0c0e      	lsrs	r6, r1, #16
 35a:	000d      	movs	r5, r1
 35c:	0014      	movs	r4, r2
 35e:	0000      	movs	r0, r0
 360:	034c      	lsls	r4, r1, #13
 362:	0000      	movs	r0, r0
 364:	c58c      	stmia	r5!, {r2, r3, r7}
 366:	0001      	movs	r1, r0
 368:	0020      	movs	r0, r4
 36a:	0000      	movs	r0, r0
 36c:	0e41      	lsrs	r1, r0, #25
 36e:	8408      	strh	r0, [r1, #32]
 370:	8e02      	ldrh	r2, [r0, #48]	; 0x30
 372:	0001      	movs	r1, r0
 374:	000c      	movs	r4, r1
 376:	0000      	movs	r0, r0
 378:	ffff ffff 			; <UNDEFINED> instruction: 0xffffffff
 37c:	0001      	movs	r1, r0
 37e:	7c02      	ldrb	r2, [r0, #16]
 380:	0c0e      	lsrs	r6, r1, #16
 382:	000d      	movs	r5, r1
 384:	0018      	movs	r0, r3
 386:	0000      	movs	r0, r0
 388:	0374      	lsls	r4, r6, #13
 38a:	0000      	movs	r0, r0
 38c:	c5ac      	stmia	r5!, {r2, r3, r5, r7}
 38e:	0001      	movs	r1, r0
 390:	0048      	lsls	r0, r1, #1
 392:	0000      	movs	r0, r0
 394:	0e41      	lsrs	r1, r0, #25
 396:	8410      	strh	r0, [r2, #32]
 398:	8504      	strh	r4, [r0, #40]	; 0x28
 39a:	8603      	strh	r3, [r0, #48]	; 0x30
 39c:	8e02      	ldrh	r2, [r0, #48]	; 0x30
 39e:	0001      	movs	r1, r0
 3a0:	000c      	movs	r4, r1
 3a2:	0000      	movs	r0, r0
 3a4:	ffff ffff 			; <UNDEFINED> instruction: 0xffffffff
 3a8:	0001      	movs	r1, r0
 3aa:	7c02      	ldrb	r2, [r0, #16]
 3ac:	0c0e      	lsrs	r6, r1, #16
 3ae:	000d      	movs	r5, r1
 3b0:	001c      	movs	r4, r3
 3b2:	0000      	movs	r0, r0
 3b4:	03a0      	lsls	r0, r4, #14
 3b6:	0000      	movs	r0, r0
 3b8:	c5f4      	stmia	r5!, {r2, r4, r5, r6, r7}
 3ba:	0001      	movs	r1, r0
 3bc:	0086      	lsls	r6, r0, #2
 3be:	0000      	movs	r0, r0
 3c0:	0e41      	lsrs	r1, r0, #25
 3c2:	8414      	strh	r4, [r2, #32]
 3c4:	8505      	strh	r5, [r0, #40]	; 0x28
 3c6:	8604      	strh	r4, [r0, #48]	; 0x30
 3c8:	8703      	strh	r3, [r0, #56]	; 0x38
 3ca:	8e02      	ldrh	r2, [r0, #48]	; 0x30
 3cc:	0001      	movs	r1, r0
 3ce:	0000      	movs	r0, r0
 3d0:	000c      	movs	r4, r1
 3d2:	0000      	movs	r0, r0
 3d4:	ffff ffff 			; <UNDEFINED> instruction: 0xffffffff
 3d8:	0001      	movs	r1, r0
 3da:	7c02      	ldrb	r2, [r0, #16]
 3dc:	0c0e      	lsrs	r6, r1, #16
 3de:	000d      	movs	r5, r1
 3e0:	001c      	movs	r4, r3
 3e2:	0000      	movs	r0, r0
 3e4:	03d0      	lsls	r0, r2, #15
 3e6:	0000      	movs	r0, r0
 3e8:	c67c      	stmia	r6!, {r2, r3, r4, r5, r6}
 3ea:	0001      	movs	r1, r0
 3ec:	009a      	lsls	r2, r3, #2
 3ee:	0000      	movs	r0, r0
 3f0:	0e41      	lsrs	r1, r0, #25
 3f2:	8414      	strh	r4, [r2, #32]
 3f4:	8505      	strh	r5, [r0, #40]	; 0x28
 3f6:	8604      	strh	r4, [r0, #48]	; 0x30
 3f8:	8703      	strh	r3, [r0, #56]	; 0x38
 3fa:	8e02      	ldrh	r2, [r0, #48]	; 0x30
 3fc:	0001      	movs	r1, r0
 3fe:	0000      	movs	r0, r0
 400:	000c      	movs	r4, r1
 402:	0000      	movs	r0, r0
 404:	ffff ffff 			; <UNDEFINED> instruction: 0xffffffff
 408:	0001      	movs	r1, r0
 40a:	7c02      	ldrb	r2, [r0, #16]
 40c:	0c0e      	lsrs	r6, r1, #16
 40e:	000d      	movs	r5, r1
 410:	0014      	movs	r4, r2
 412:	0000      	movs	r0, r0
 414:	0400      	lsls	r0, r0, #16
 416:	0000      	movs	r0, r0
 418:	c718      	stmia	r7!, {r3, r4}
 41a:	0001      	movs	r1, r0
 41c:	0064      	lsls	r4, r4, #1
 41e:	0000      	movs	r0, r0
 420:	0e41      	lsrs	r1, r0, #25
 422:	8408      	strh	r0, [r1, #32]
 424:	8e02      	ldrh	r2, [r0, #48]	; 0x30
 426:	0001      	movs	r1, r0
 428:	000c      	movs	r4, r1
 42a:	0000      	movs	r0, r0
 42c:	ffff ffff 			; <UNDEFINED> instruction: 0xffffffff
 430:	0001      	movs	r1, r0
 432:	7c02      	ldrb	r2, [r0, #16]
 434:	0c0e      	lsrs	r6, r1, #16
 436:	000d      	movs	r5, r1
 438:	0014      	movs	r4, r2
 43a:	0000      	movs	r0, r0
 43c:	0428      	lsls	r0, r5, #16
 43e:	0000      	movs	r0, r0
 440:	0000      	movs	r0, r0
 442:	0000      	movs	r0, r0
 444:	0018      	movs	r0, r3
 446:	0000      	movs	r0, r0
 448:	0e42      	lsrs	r2, r0, #25
 44a:	8408      	strh	r0, [r1, #32]
 44c:	8e02      	ldrh	r2, [r0, #48]	; 0x30
 44e:	0001      	movs	r1, r0
 450:	0028      	movs	r0, r5
 452:	0000      	movs	r0, r0
 454:	0428      	lsls	r0, r5, #16
 456:	0000      	movs	r0, r0
 458:	c77c      	stmia	r7!, {r2, r3, r4, r5, r6}
 45a:	0001      	movs	r1, r0
 45c:	0118      	lsls	r0, r3, #4
 45e:	0000      	movs	r0, r0
 460:	0e41      	lsrs	r1, r0, #25
 462:	8414      	strh	r4, [r2, #32]
 464:	8505      	strh	r5, [r0, #40]	; 0x28
 466:	8604      	strh	r4, [r0, #48]	; 0x30
 468:	8703      	strh	r3, [r0, #56]	; 0x38
 46a:	8e02      	ldrh	r2, [r0, #48]	; 0x30
 46c:	4501      	cmp	r1, r0
 46e:	240e      	movs	r4, #14
 470:	0988      	lsrs	r0, r1, #6
 472:	0889      	lsrs	r1, r1, #2
 474:	078a      	lsls	r2, r1, #30
 476:	068b      	lsls	r3, r1, #26
 478:	0e42      	lsrs	r2, r0, #25
 47a:	0040      	lsls	r0, r0, #1
 47c:	000c      	movs	r4, r1
 47e:	0000      	movs	r0, r0
 480:	ffff ffff 			; <UNDEFINED> instruction: 0xffffffff
 484:	0001      	movs	r1, r0
 486:	7c02      	ldrb	r2, [r0, #16]
 488:	0c0e      	lsrs	r6, r1, #16
 48a:	000d      	movs	r5, r1
 48c:	0014      	movs	r4, r2
 48e:	0000      	movs	r0, r0
 490:	047c      	lsls	r4, r7, #17
 492:	0000      	movs	r0, r0
 494:	c894      	ldmia	r0!, {r2, r4, r7}
 496:	0001      	movs	r1, r0
 498:	0010      	movs	r0, r2
 49a:	0000      	movs	r0, r0
 49c:	0e41      	lsrs	r1, r0, #25
 49e:	8408      	strh	r0, [r1, #32]
 4a0:	8e02      	ldrh	r2, [r0, #48]	; 0x30
 4a2:	0001      	movs	r1, r0
 4a4:	000c      	movs	r4, r1
 4a6:	0000      	movs	r0, r0
 4a8:	ffff ffff 			; <UNDEFINED> instruction: 0xffffffff
 4ac:	0001      	movs	r1, r0
 4ae:	7c02      	ldrb	r2, [r0, #16]
 4b0:	0c0e      	lsrs	r6, r1, #16
 4b2:	000d      	movs	r5, r1
 4b4:	0018      	movs	r0, r3
 4b6:	0000      	movs	r0, r0
 4b8:	04a4      	lsls	r4, r4, #18
 4ba:	0000      	movs	r0, r0
 4bc:	c8a4      	ldmia	r0!, {r2, r5, r7}
 4be:	0001      	movs	r1, r0
 4c0:	0034      	movs	r4, r6
 4c2:	0000      	movs	r0, r0
 4c4:	0e41      	lsrs	r1, r0, #25
 4c6:	8410      	strh	r0, [r2, #32]
 4c8:	8504      	strh	r4, [r0, #40]	; 0x28
 4ca:	8603      	strh	r3, [r0, #48]	; 0x30
 4cc:	8e02      	ldrh	r2, [r0, #48]	; 0x30
 4ce:	0001      	movs	r1, r0
 4d0:	000c      	movs	r4, r1
 4d2:	0000      	movs	r0, r0
 4d4:	ffff ffff 			; <UNDEFINED> instruction: 0xffffffff
 4d8:	0001      	movs	r1, r0
 4da:	7c02      	ldrb	r2, [r0, #16]
 4dc:	0c0e      	lsrs	r6, r1, #16
 4de:	000d      	movs	r5, r1
 4e0:	000c      	movs	r4, r1
 4e2:	0000      	movs	r0, r0
 4e4:	04d0      	lsls	r0, r2, #19
 4e6:	0000      	movs	r0, r0
 4e8:	0000      	movs	r0, r0
 4ea:	0000      	movs	r0, r0
 4ec:	0002      	movs	r2, r0
 4ee:	0000      	movs	r0, r0
 4f0:	000c      	movs	r4, r1
 4f2:	0000      	movs	r0, r0
 4f4:	04d0      	lsls	r0, r2, #19
 4f6:	0000      	movs	r0, r0
 4f8:	0000      	movs	r0, r0
 4fa:	0000      	movs	r0, r0
 4fc:	0002      	movs	r2, r0
 4fe:	0000      	movs	r0, r0
 500:	000c      	movs	r4, r1
 502:	0000      	movs	r0, r0
 504:	04d0      	lsls	r0, r2, #19
 506:	0000      	movs	r0, r0
 508:	0000      	movs	r0, r0
 50a:	0000      	movs	r0, r0
 50c:	0002      	movs	r2, r0
 50e:	0000      	movs	r0, r0
 510:	000c      	movs	r4, r1
 512:	0000      	movs	r0, r0
 514:	04d0      	lsls	r0, r2, #19
 516:	0000      	movs	r0, r0
 518:	0000      	movs	r0, r0
 51a:	0000      	movs	r0, r0
 51c:	0002      	movs	r2, r0
 51e:	0000      	movs	r0, r0
 520:	000c      	movs	r4, r1
 522:	0000      	movs	r0, r0
 524:	04d0      	lsls	r0, r2, #19
 526:	0000      	movs	r0, r0
 528:	0000      	movs	r0, r0
 52a:	0000      	movs	r0, r0
 52c:	0002      	movs	r2, r0
 52e:	0000      	movs	r0, r0
 530:	000c      	movs	r4, r1
 532:	0000      	movs	r0, r0
 534:	04d0      	lsls	r0, r2, #19
 536:	0000      	movs	r0, r0
 538:	c8d8      	ldmia	r0!, {r3, r4, r6, r7}
 53a:	0001      	movs	r1, r0
 53c:	0002      	movs	r2, r0
 53e:	0000      	movs	r0, r0
 540:	000c      	movs	r4, r1
 542:	0000      	movs	r0, r0
 544:	04d0      	lsls	r0, r2, #19
 546:	0000      	movs	r0, r0
 548:	0000      	movs	r0, r0
 54a:	0000      	movs	r0, r0
 54c:	0004      	movs	r4, r0
 54e:	0000      	movs	r0, r0
 550:	000c      	movs	r4, r1
 552:	0000      	movs	r0, r0
 554:	04d0      	lsls	r0, r2, #19
 556:	0000      	movs	r0, r0
 558:	0000      	movs	r0, r0
 55a:	0000      	movs	r0, r0
 55c:	0004      	movs	r4, r0
 55e:	0000      	movs	r0, r0
 560:	000c      	movs	r4, r1
 562:	0000      	movs	r0, r0
 564:	04d0      	lsls	r0, r2, #19
 566:	0000      	movs	r0, r0
 568:	0000      	movs	r0, r0
 56a:	0000      	movs	r0, r0
 56c:	0002      	movs	r2, r0
 56e:	0000      	movs	r0, r0
 570:	000c      	movs	r4, r1
 572:	0000      	movs	r0, r0
 574:	04d0      	lsls	r0, r2, #19
 576:	0000      	movs	r0, r0
 578:	c8dc      	ldmia	r0!, {r2, r3, r4, r6, r7}
 57a:	0001      	movs	r1, r0
 57c:	0002      	movs	r2, r0
 57e:	0000      	movs	r0, r0
 580:	000c      	movs	r4, r1
 582:	0000      	movs	r0, r0
 584:	ffff ffff 			; <UNDEFINED> instruction: 0xffffffff
 588:	0001      	movs	r1, r0
 58a:	7c02      	ldrb	r2, [r0, #16]
 58c:	0c0e      	lsrs	r6, r1, #16
 58e:	000d      	movs	r5, r1
 590:	0028      	movs	r0, r5
 592:	0000      	movs	r0, r0
 594:	0580      	lsls	r0, r0, #22
 596:	0000      	movs	r0, r0
 598:	c8e0      	ldmia	r0!, {r5, r6, r7}
 59a:	0001      	movs	r1, r0
 59c:	00f4      	lsls	r4, r6, #3
 59e:	0000      	movs	r0, r0
 5a0:	0e41      	lsrs	r1, r0, #25
 5a2:	8414      	strh	r4, [r2, #32]
 5a4:	8505      	strh	r5, [r0, #40]	; 0x28
 5a6:	8604      	strh	r4, [r0, #48]	; 0x30
 5a8:	8703      	strh	r3, [r0, #56]	; 0x38
 5aa:	8e02      	ldrh	r2, [r0, #48]	; 0x30
 5ac:	4501      	cmp	r1, r0
 5ae:	240e      	movs	r4, #14
 5b0:	0988      	lsrs	r0, r1, #6
 5b2:	0889      	lsrs	r1, r1, #2
 5b4:	078a      	lsls	r2, r1, #30
 5b6:	068b      	lsls	r3, r1, #26
 5b8:	0e42      	lsrs	r2, r0, #25
 5ba:	0030      	movs	r0, r6
 5bc:	000c      	movs	r4, r1
 5be:	0000      	movs	r0, r0
 5c0:	ffff ffff 			; <UNDEFINED> instruction: 0xffffffff
 5c4:	0001      	movs	r1, r0
 5c6:	7c02      	ldrb	r2, [r0, #16]
 5c8:	0c0e      	lsrs	r6, r1, #16
 5ca:	000d      	movs	r5, r1
 5cc:	0028      	movs	r0, r5
 5ce:	0000      	movs	r0, r0
 5d0:	05bc      	lsls	r4, r7, #22
 5d2:	0000      	movs	r0, r0
 5d4:	c9d4      	ldmia	r1!, {r2, r4, r6, r7}
 5d6:	0001      	movs	r1, r0
 5d8:	0374      	lsls	r4, r6, #13
 5da:	0000      	movs	r0, r0
 5dc:	0e41      	lsrs	r1, r0, #25
 5de:	8414      	strh	r4, [r2, #32]
 5e0:	8505      	strh	r5, [r0, #40]	; 0x28
 5e2:	8604      	strh	r4, [r0, #48]	; 0x30
 5e4:	8703      	strh	r3, [r0, #56]	; 0x38
 5e6:	8e02      	ldrh	r2, [r0, #48]	; 0x30
 5e8:	4501      	cmp	r1, r0
 5ea:	240e      	movs	r4, #14
 5ec:	0988      	lsrs	r0, r1, #6
 5ee:	0889      	lsrs	r1, r1, #2
 5f0:	078a      	lsls	r2, r1, #30
 5f2:	068b      	lsls	r3, r1, #26
 5f4:	0e41      	lsrs	r1, r0, #25
 5f6:	0060      	lsls	r0, r4, #1
 5f8:	000c      	movs	r4, r1
 5fa:	0000      	movs	r0, r0
 5fc:	ffff ffff 			; <UNDEFINED> instruction: 0xffffffff
 600:	0001      	movs	r1, r0
 602:	7c02      	ldrb	r2, [r0, #16]
 604:	0c0e      	lsrs	r6, r1, #16
 606:	000d      	movs	r5, r1
 608:	0028      	movs	r0, r5
 60a:	0000      	movs	r0, r0
 60c:	05f8      	lsls	r0, r7, #23
 60e:	0000      	movs	r0, r0
 610:	cd48      	ldmia	r5!, {r3, r6}
 612:	0001      	movs	r1, r0
 614:	0acc      	lsrs	r4, r1, #11
 616:	0000      	movs	r0, r0
 618:	0e41      	lsrs	r1, r0, #25
 61a:	8414      	strh	r4, [r2, #32]
 61c:	8505      	strh	r5, [r0, #40]	; 0x28
 61e:	8604      	strh	r4, [r0, #48]	; 0x30
 620:	8703      	strh	r3, [r0, #56]	; 0x38
 622:	8e02      	ldrh	r2, [r0, #48]	; 0x30
 624:	4701      	bx	r0
 626:	240e      	movs	r4, #14
 628:	0988      	lsrs	r0, r1, #6
 62a:	0889      	lsrs	r1, r1, #2
 62c:	078a      	lsls	r2, r1, #30
 62e:	068b      	lsls	r3, r1, #26
 630:	0e44      	lsrs	r4, r0, #25
 632:	0070      	lsls	r0, r6, #1
 634:	000c      	movs	r4, r1
 636:	0000      	movs	r0, r0
 638:	ffff ffff 			; <UNDEFINED> instruction: 0xffffffff
 63c:	0001      	movs	r1, r0
 63e:	7c02      	ldrb	r2, [r0, #16]
 640:	0c0e      	lsrs	r6, r1, #16
 642:	000d      	movs	r5, r1
 644:	0024      	movs	r4, r4
 646:	0000      	movs	r0, r0
 648:	0634      	lsls	r4, r6, #24
 64a:	0000      	movs	r0, r0
 64c:	d814      	bhi.n	678 <Heap_Size+0x578>
 64e:	0001      	movs	r1, r0
 650:	01b0      	lsls	r0, r6, #6
 652:	0000      	movs	r0, r0
 654:	0e41      	lsrs	r1, r0, #25
 656:	8318      	strh	r0, [r3, #24]
 658:	8406      	strh	r6, [r0, #32]
 65a:	8505      	strh	r5, [r0, #40]	; 0x28
 65c:	8604      	strh	r4, [r0, #48]	; 0x30
 65e:	8703      	strh	r3, [r0, #56]	; 0x38
 660:	8e02      	ldrh	r2, [r0, #48]	; 0x30
 662:	4401      	add	r1, r0
 664:	200e      	movs	r0, #14
 666:	0888      	lsrs	r0, r1, #2
 668:	0789      	lsls	r1, r1, #30
 66a:	0000      	movs	r0, r0
 66c:	000c      	movs	r4, r1
 66e:	0000      	movs	r0, r0
 670:	ffff ffff 			; <UNDEFINED> instruction: 0xffffffff
 674:	0001      	movs	r1, r0
 676:	7c02      	ldrb	r2, [r0, #16]
 678:	0c0e      	lsrs	r6, r1, #16
 67a:	000d      	movs	r5, r1
 67c:	000c      	movs	r4, r1
 67e:	0000      	movs	r0, r0
 680:	066c      	lsls	r4, r5, #25
 682:	0000      	movs	r0, r0
 684:	d9c4      	bls.n	610 <Heap_Size+0x510>
 686:	0001      	movs	r1, r0
 688:	0008      	movs	r0, r1
 68a:	0000      	movs	r0, r0
 68c:	000c      	movs	r4, r1
 68e:	0000      	movs	r0, r0
 690:	ffff ffff 			; <UNDEFINED> instruction: 0xffffffff
 694:	0001      	movs	r1, r0
 696:	7c02      	ldrb	r2, [r0, #16]
 698:	0c0e      	lsrs	r6, r1, #16
 69a:	000d      	movs	r5, r1
 69c:	000c      	movs	r4, r1
 69e:	0000      	movs	r0, r0
 6a0:	068c      	lsls	r4, r1, #26
 6a2:	0000      	movs	r0, r0
 6a4:	d9cc      	bls.n	640 <Heap_Size+0x540>
 6a6:	0001      	movs	r1, r0
 6a8:	0014      	movs	r4, r2
 6aa:	0000      	movs	r0, r0
 6ac:	000c      	movs	r4, r1
 6ae:	0000      	movs	r0, r0
 6b0:	ffff ffff 			; <UNDEFINED> instruction: 0xffffffff
 6b4:	0001      	movs	r1, r0
 6b6:	7c02      	ldrb	r2, [r0, #16]
 6b8:	0c0e      	lsrs	r6, r1, #16
 6ba:	000d      	movs	r5, r1
 6bc:	000c      	movs	r4, r1
 6be:	0000      	movs	r0, r0
 6c0:	06ac      	lsls	r4, r5, #26
 6c2:	0000      	movs	r0, r0
 6c4:	d9e0      	bls.n	688 <Heap_Size+0x588>
 6c6:	0001      	movs	r1, r0
 6c8:	0004      	movs	r4, r0
 6ca:	0000      	movs	r0, r0
 6cc:	000c      	movs	r4, r1
 6ce:	0000      	movs	r0, r0
 6d0:	ffff ffff 			; <UNDEFINED> instruction: 0xffffffff
 6d4:	0001      	movs	r1, r0
 6d6:	7c02      	ldrb	r2, [r0, #16]
 6d8:	0c0e      	lsrs	r6, r1, #16
 6da:	000d      	movs	r5, r1
 6dc:	000c      	movs	r4, r1
 6de:	0000      	movs	r0, r0
 6e0:	06cc      	lsls	r4, r1, #27
 6e2:	0000      	movs	r0, r0
 6e4:	d9e4      	bls.n	6b0 <Heap_Size+0x5b0>
 6e6:	0001      	movs	r1, r0
 6e8:	000c      	movs	r4, r1
 6ea:	0000      	movs	r0, r0
 6ec:	000c      	movs	r4, r1
 6ee:	0000      	movs	r0, r0
 6f0:	ffff ffff 			; <UNDEFINED> instruction: 0xffffffff
 6f4:	0001      	movs	r1, r0
 6f6:	7c02      	ldrb	r2, [r0, #16]
 6f8:	0c0e      	lsrs	r6, r1, #16
 6fa:	000d      	movs	r5, r1
 6fc:	0024      	movs	r4, r4
 6fe:	0000      	movs	r0, r0
 700:	06ec      	lsls	r4, r5, #27
 702:	0000      	movs	r0, r0
 704:	d9f0      	bls.n	6e8 <Heap_Size+0x5e8>
 706:	0001      	movs	r1, r0
 708:	0120      	lsls	r0, r4, #4
 70a:	0000      	movs	r0, r0
 70c:	0e41      	lsrs	r1, r0, #25
 70e:	8414      	strh	r4, [r2, #32]
 710:	8505      	strh	r5, [r0, #40]	; 0x28
 712:	8604      	strh	r4, [r0, #48]	; 0x30
 714:	8703      	strh	r3, [r0, #56]	; 0x38
 716:	8e02      	ldrh	r2, [r0, #48]	; 0x30
 718:	4201      	tst	r1, r0
 71a:	180e      	adds	r6, r1, r0
 71c:	0688      	lsls	r0, r1, #26
 71e:	0e47      	lsrs	r7, r0, #25
 720:	0020      	movs	r0, r4
 722:	0000      	movs	r0, r0
 724:	000c      	movs	r4, r1
 726:	0000      	movs	r0, r0
 728:	ffff ffff 			; <UNDEFINED> instruction: 0xffffffff
 72c:	0001      	movs	r1, r0
 72e:	7c02      	ldrb	r2, [r0, #16]
 730:	0c0e      	lsrs	r6, r1, #16
 732:	000d      	movs	r5, r1
 734:	0018      	movs	r0, r3
 736:	0000      	movs	r0, r0
 738:	0724      	lsls	r4, r4, #28
 73a:	0000      	movs	r0, r0
 73c:	db10      	blt.n	760 <Heap_Size+0x660>
 73e:	0001      	movs	r1, r0
 740:	00d0      	lsls	r0, r2, #3
 742:	0000      	movs	r0, r0
 744:	0e42      	lsrs	r2, r0, #25
 746:	8410      	strh	r0, [r2, #32]
 748:	8504      	strh	r4, [r0, #40]	; 0x28
 74a:	8603      	strh	r3, [r0, #48]	; 0x30
 74c:	8e02      	ldrh	r2, [r0, #48]	; 0x30
 74e:	0001      	movs	r1, r0
 750:	000c      	movs	r4, r1
 752:	0000      	movs	r0, r0
 754:	ffff ffff 			; <UNDEFINED> instruction: 0xffffffff
 758:	0001      	movs	r1, r0
 75a:	7c02      	ldrb	r2, [r0, #16]
 75c:	0c0e      	lsrs	r6, r1, #16
 75e:	000d      	movs	r5, r1
 760:	0018      	movs	r0, r3
 762:	0000      	movs	r0, r0
 764:	0750      	lsls	r0, r2, #29
 766:	0000      	movs	r0, r0
 768:	dbe0      	blt.n	72c <Heap_Size+0x62c>
 76a:	0001      	movs	r1, r0
 76c:	0010      	movs	r0, r2
 76e:	0000      	movs	r0, r0
 770:	0e41      	lsrs	r1, r0, #25
 772:	840c      	strh	r4, [r1, #32]
 774:	8503      	strh	r3, [r0, #40]	; 0x28
 776:	8e02      	ldrh	r2, [r0, #48]	; 0x30
 778:	0001      	movs	r1, r0
 77a:	0000      	movs	r0, r0
 77c:	000c      	movs	r4, r1
 77e:	0000      	movs	r0, r0
 780:	ffff ffff 			; <UNDEFINED> instruction: 0xffffffff
 784:	0001      	movs	r1, r0
 786:	7c02      	ldrb	r2, [r0, #16]
 788:	0c0e      	lsrs	r6, r1, #16
 78a:	000d      	movs	r5, r1
 78c:	000c      	movs	r4, r1
 78e:	0000      	movs	r0, r0
 790:	077c      	lsls	r4, r7, #29
 792:	0000      	movs	r0, r0
 794:	dbf0      	blt.n	778 <Heap_Size+0x678>
 796:	0001      	movs	r1, r0
 798:	0002      	movs	r2, r0
 79a:	0000      	movs	r0, r0
 79c:	000c      	movs	r4, r1
 79e:	0000      	movs	r0, r0
 7a0:	ffff ffff 			; <UNDEFINED> instruction: 0xffffffff
 7a4:	0001      	movs	r1, r0
 7a6:	7c02      	ldrb	r2, [r0, #16]
 7a8:	0c0e      	lsrs	r6, r1, #16
 7aa:	000d      	movs	r5, r1
 7ac:	0024      	movs	r4, r4
 7ae:	0000      	movs	r0, r0
 7b0:	079c      	lsls	r4, r3, #30
 7b2:	0000      	movs	r0, r0
 7b4:	dbf4      	blt.n	7a0 <Heap_Size+0x6a0>
 7b6:	0001      	movs	r1, r0
 7b8:	0638      	lsls	r0, r7, #24
 7ba:	0000      	movs	r0, r0
 7bc:	0e41      	lsrs	r1, r0, #25
 7be:	8414      	strh	r4, [r2, #32]
 7c0:	8505      	strh	r5, [r0, #40]	; 0x28
 7c2:	8604      	strh	r4, [r0, #48]	; 0x30
 7c4:	8703      	strh	r3, [r0, #56]	; 0x38
 7c6:	8e02      	ldrh	r2, [r0, #48]	; 0x30
 7c8:	4601      	mov	r1, r0
 7ca:	200e      	movs	r0, #14
 7cc:	0888      	lsrs	r0, r1, #2
 7ce:	0789      	lsls	r1, r1, #30
 7d0:	068a      	lsls	r2, r1, #26
 7d2:	0000      	movs	r0, r0
 7d4:	000c      	movs	r4, r1
 7d6:	0000      	movs	r0, r0
 7d8:	ffff ffff 			; <UNDEFINED> instruction: 0xffffffff
 7dc:	0001      	movs	r1, r0
 7de:	7c02      	ldrb	r2, [r0, #16]
 7e0:	0c0e      	lsrs	r6, r1, #16
 7e2:	000d      	movs	r5, r1
 7e4:	0028      	movs	r0, r5
 7e6:	0000      	movs	r0, r0
 7e8:	07d4      	lsls	r4, r2, #31
 7ea:	0000      	movs	r0, r0
 7ec:	e22c      	b.n	c48 <Stack_Size+0x48>
 7ee:	0001      	movs	r1, r0
 7f0:	0604      	lsls	r4, r0, #24
 7f2:	0000      	movs	r0, r0
 7f4:	0e41      	lsrs	r1, r0, #25
 7f6:	8414      	strh	r4, [r2, #32]
 7f8:	8505      	strh	r5, [r0, #40]	; 0x28
 7fa:	8604      	strh	r4, [r0, #48]	; 0x30
 7fc:	8703      	strh	r3, [r0, #56]	; 0x38
 7fe:	8e02      	ldrh	r2, [r0, #48]	; 0x30
 800:	4501      	cmp	r1, r0
 802:	240e      	movs	r4, #14
 804:	0988      	lsrs	r0, r1, #6
 806:	0889      	lsrs	r1, r1, #2
 808:	078a      	lsls	r2, r1, #30
 80a:	068b      	lsls	r3, r1, #26
 80c:	0e45      	lsrs	r5, r0, #25
 80e:	0038      	movs	r0, r7
 810:	000c      	movs	r4, r1
 812:	0000      	movs	r0, r0
 814:	ffff ffff 			; <UNDEFINED> instruction: 0xffffffff
 818:	0001      	movs	r1, r0
 81a:	7c02      	ldrb	r2, [r0, #16]
 81c:	0c0e      	lsrs	r6, r1, #16
 81e:	000d      	movs	r5, r1
 820:	0028      	movs	r0, r5
 822:	0000      	movs	r0, r0
 824:	0810      	lsrs	r0, r2, #32
 826:	0000      	movs	r0, r0
 828:	e830 0001 			; <UNDEFINED> instruction: 0xe8300001
 82c:	0690      	lsls	r0, r2, #26
 82e:	0000      	movs	r0, r0
 830:	0e41      	lsrs	r1, r0, #25
 832:	8318      	strh	r0, [r3, #24]
 834:	8406      	strh	r6, [r0, #32]
 836:	8505      	strh	r5, [r0, #40]	; 0x28
 838:	8604      	strh	r4, [r0, #48]	; 0x30
 83a:	8703      	strh	r3, [r0, #56]	; 0x38
 83c:	8e02      	ldrh	r2, [r0, #48]	; 0x30
 83e:	4701      	bx	r0
 840:	280e      	cmp	r0, #14
 842:	0a88      	lsrs	r0, r1, #10
 844:	0989      	lsrs	r1, r1, #6
 846:	088a      	lsrs	r2, r1, #2
 848:	078b      	lsls	r3, r1, #30
 84a:	0000      	movs	r0, r0
 84c:	000c      	movs	r4, r1
 84e:	0000      	movs	r0, r0
 850:	ffff ffff 			; <UNDEFINED> instruction: 0xffffffff
 854:	0001      	movs	r1, r0
 856:	7c02      	ldrb	r2, [r0, #16]
 858:	0c0e      	lsrs	r6, r1, #16
 85a:	000d      	movs	r5, r1
 85c:	0018      	movs	r0, r3
 85e:	0000      	movs	r0, r0
 860:	084c      	lsrs	r4, r1, #1
 862:	0000      	movs	r0, r0
 864:	eec0 0001 	cdp	0, 12, cr0, cr0, cr1, {0}
 868:	0038      	movs	r0, r7
 86a:	0000      	movs	r0, r0
 86c:	0e41      	lsrs	r1, r0, #25
 86e:	8410      	strh	r0, [r2, #32]
 870:	8504      	strh	r4, [r0, #40]	; 0x28
 872:	8603      	strh	r3, [r0, #48]	; 0x30
 874:	8e02      	ldrh	r2, [r0, #48]	; 0x30
 876:	0001      	movs	r1, r0
 878:	000c      	movs	r4, r1
 87a:	0000      	movs	r0, r0
 87c:	ffff ffff 			; <UNDEFINED> instruction: 0xffffffff
 880:	0001      	movs	r1, r0
 882:	7c02      	ldrb	r2, [r0, #16]
 884:	0c0e      	lsrs	r6, r1, #16
 886:	000d      	movs	r5, r1
 888:	0018      	movs	r0, r3
 88a:	0000      	movs	r0, r0
 88c:	0878      	lsrs	r0, r7, #1
 88e:	0000      	movs	r0, r0
 890:	eef8 0001 	cdp	0, 15, cr0, cr8, cr1, {0}
 894:	0074      	lsls	r4, r6, #1
 896:	0000      	movs	r0, r0
 898:	0e41      	lsrs	r1, r0, #25
 89a:	8410      	strh	r0, [r2, #32]
 89c:	8504      	strh	r4, [r0, #40]	; 0x28
 89e:	8603      	strh	r3, [r0, #48]	; 0x30
 8a0:	8e02      	ldrh	r2, [r0, #48]	; 0x30
 8a2:	0001      	movs	r1, r0
 8a4:	000c      	movs	r4, r1
 8a6:	0000      	movs	r0, r0
 8a8:	ffff ffff 			; <UNDEFINED> instruction: 0xffffffff
 8ac:	0001      	movs	r1, r0
 8ae:	7c01      	ldrb	r1, [r0, #16]
 8b0:	0c0e      	lsrs	r6, r1, #16
 8b2:	000d      	movs	r5, r1
 8b4:	000c      	movs	r4, r1
 8b6:	0000      	movs	r0, r0
 8b8:	08a4      	lsrs	r4, r4, #2
 8ba:	0000      	movs	r0, r0
 8bc:	ef6d 0001 	vhadd.s32	d16, d13, d1
 8c0:	010a      	lsls	r2, r1, #4
 8c2:	0000      	movs	r0, r0
 8c4:	000c      	movs	r4, r1
 8c6:	0000      	movs	r0, r0
 8c8:	ffff ffff 			; <UNDEFINED> instruction: 0xffffffff
 8cc:	0001      	movs	r1, r0
 8ce:	7c02      	ldrb	r2, [r0, #16]
 8d0:	0c0e      	lsrs	r6, r1, #16
 8d2:	000d      	movs	r5, r1
 8d4:	000c      	movs	r4, r1
 8d6:	0000      	movs	r0, r0
 8d8:	08c4      	lsrs	r4, r0, #3
 8da:	0000      	movs	r0, r0
 8dc:	f084 0001 	eor.w	r0, r4, #1
 8e0:	000c      	movs	r4, r1
	...
